ARM GAS  C:\Users\Lenovo\AppData\Local\Temp\ccWML6Ej.s 			page 1


   1              		.cpu cortex-m3
   2              		.arch armv7-m
   3              		.fpu softvfp
   4              		.eabi_attribute 20, 1
   5              		.eabi_attribute 21, 1
   6              		.eabi_attribute 23, 3
   7              		.eabi_attribute 24, 1
   8              		.eabi_attribute 25, 1
   9              		.eabi_attribute 26, 1
  10              		.eabi_attribute 30, 1
  11              		.eabi_attribute 34, 1
  12              		.eabi_attribute 18, 4
  13              		.file	"bmi08a.c"
  14              		.text
  15              	.Ltext0:
  16              		.cfi_sections	.debug_frame
  17              		.section	.text.null_ptr_check,"ax",%progbits
  18              		.align	1
  19              		.syntax unified
  20              		.thumb
  21              		.thumb_func
  23              	null_ptr_check:
  24              	.LVL0:
  25              	.LFB17:
  26              		.file 1 "BMI088/Src/bmi08a.c"
   1:BMI088/Src/bmi08a.c **** /**\mainpage
   2:BMI088/Src/bmi08a.c ****  * Copyright (C) 2017 - 2018 Bosch Sensortec GmbH
   3:BMI088/Src/bmi08a.c ****  *
   4:BMI088/Src/bmi08a.c ****  * Redistribution and use in source and binary forms, with or without
   5:BMI088/Src/bmi08a.c ****  * modification, are permitted provided that the following conditions are met:
   6:BMI088/Src/bmi08a.c ****  *
   7:BMI088/Src/bmi08a.c ****  * Redistributions of source code must retain the above copyright
   8:BMI088/Src/bmi08a.c ****  * notice, this list of conditions and the following disclaimer.
   9:BMI088/Src/bmi08a.c ****  *
  10:BMI088/Src/bmi08a.c ****  * Redistributions in binary form must reproduce the above copyright
  11:BMI088/Src/bmi08a.c ****  * notice, this list of conditions and the following disclaimer in the
  12:BMI088/Src/bmi08a.c ****  * documentation and/or other materials provided with the distribution.
  13:BMI088/Src/bmi08a.c ****  *
  14:BMI088/Src/bmi08a.c ****  * Neither the name of the copyright holder nor the names of the
  15:BMI088/Src/bmi08a.c ****  * contributors may be used to endorse or promote products derived from
  16:BMI088/Src/bmi08a.c ****  * this software without specific prior written permission.
  17:BMI088/Src/bmi08a.c ****  *
  18:BMI088/Src/bmi08a.c ****  * THIS SOFTWARE IS PROVIDED BY THE COPYRIGHT HOLDERS AND
  19:BMI088/Src/bmi08a.c ****  * CONTRIBUTORS "AS IS" AND ANY EXPRESS OR
  20:BMI088/Src/bmi08a.c ****  * IMPLIED WARRANTIES, INCLUDING, BUT NOT LIMITED TO, THE IMPLIED
  21:BMI088/Src/bmi08a.c ****  * WARRANTIES OF MERCHANTABILITY AND FITNESS FOR A PARTICULAR PURPOSE ARE
  22:BMI088/Src/bmi08a.c ****  * DISCLAIMED. IN NO EVENT SHALL COPYRIGHT HOLDER
  23:BMI088/Src/bmi08a.c ****  * OR CONTRIBUTORS BE LIABLE FOR ANY
  24:BMI088/Src/bmi08a.c ****  * DIRECT, INDIRECT, INCIDENTAL, SPECIAL, EXEMPLARY,
  25:BMI088/Src/bmi08a.c ****  * OR CONSEQUENTIAL DAMAGES(INCLUDING, BUT NOT LIMITED TO,
  26:BMI088/Src/bmi08a.c ****  * PROCUREMENT OF SUBSTITUTE GOODS OR SERVICES;
  27:BMI088/Src/bmi08a.c ****  * LOSS OF USE, DATA, OR PROFITS; OR BUSINESS INTERRUPTION)
  28:BMI088/Src/bmi08a.c ****  * HOWEVER CAUSED AND ON ANY THEORY OF LIABILITY,
  29:BMI088/Src/bmi08a.c ****  * WHETHER IN CONTRACT, STRICT LIABILITY, OR TORT
  30:BMI088/Src/bmi08a.c ****  * (INCLUDING NEGLIGENCE OR OTHERWISE) ARISING IN
  31:BMI088/Src/bmi08a.c ****  * ANY WAY OUT OF THE USE OF THIS
  32:BMI088/Src/bmi08a.c ****  * SOFTWARE, EVEN IF ADVISED OF THE POSSIBILITY OF SUCH DAMAGE
ARM GAS  C:\Users\Lenovo\AppData\Local\Temp\ccWML6Ej.s 			page 2


  33:BMI088/Src/bmi08a.c ****  *
  34:BMI088/Src/bmi08a.c ****  * The information provided is believed to be accurate and reliable.
  35:BMI088/Src/bmi08a.c ****  * The copyright holder assumes no responsibility
  36:BMI088/Src/bmi08a.c ****  * for the consequences of use
  37:BMI088/Src/bmi08a.c ****  * of such information nor for any infringement of patents or
  38:BMI088/Src/bmi08a.c ****  * other rights of third parties which may result from its use.
  39:BMI088/Src/bmi08a.c ****  * No license is granted by implication or otherwise under any patent or
  40:BMI088/Src/bmi08a.c ****  * patent rights of the copyright holder.
  41:BMI088/Src/bmi08a.c ****  *
  42:BMI088/Src/bmi08a.c ****  * @file        bmi08a.c
  43:BMI088/Src/bmi08a.c ****  * @date        24 Aug 2018
  44:BMI088/Src/bmi08a.c ****  * @version     1.2.0
  45:BMI088/Src/bmi08a.c ****  *
  46:BMI088/Src/bmi08a.c ****  */
  47:BMI088/Src/bmi08a.c **** /*! \file bmi08a.c
  48:BMI088/Src/bmi08a.c ****  \brief Sensor Driver for BMI08x family of sensors */
  49:BMI088/Src/bmi08a.c **** /****************************************************************************/
  50:BMI088/Src/bmi08a.c **** /**\name        Header files
  51:BMI088/Src/bmi08a.c ****  ****************************************************************************/
  52:BMI088/Src/bmi08a.c **** #include "bmi08x.h"
  53:BMI088/Src/bmi08a.c **** /****************************************************************************/
  54:BMI088/Src/bmi08a.c **** /** \name       Macros
  55:BMI088/Src/bmi08a.c ****  ****************************************************************************/
  56:BMI088/Src/bmi08a.c **** #if BMI08X_FEATURE_BMI085 == 1
  57:BMI088/Src/bmi08a.c **** /**\name    Value of LSB_PER_G = (power(2, BMI08X_16_BIT_RESOLUTION) / (2 * range)) */
  58:BMI088/Src/bmi08a.c **** #define LSB_PER_G       UINT32_C(2048)  /* for the 16-bit resolution and 16g range */
  59:BMI088/Src/bmi08a.c **** #elif BMI08X_FEATURE_BMI088 == 1
  60:BMI088/Src/bmi08a.c **** /**\name    Value of LSB_PER_G = (power(2, BMI08X_16_BIT_RESOLUTION) / (2 * range)) */
  61:BMI088/Src/bmi08a.c **** #define LSB_PER_G       UINT32_C(1365)  /* for the 16-bit resolution and 24g range */
  62:BMI088/Src/bmi08a.c **** #endif
  63:BMI088/Src/bmi08a.c **** /****************************************************************************/
  64:BMI088/Src/bmi08a.c **** /**\name        Local structures
  65:BMI088/Src/bmi08a.c ****  ****************************************************************************/
  66:BMI088/Src/bmi08a.c **** /*!
  67:BMI088/Src/bmi08a.c ****  * @brief Accel self test diff xyz data structure
  68:BMI088/Src/bmi08a.c ****  */
  69:BMI088/Src/bmi08a.c **** struct selftest_delta_limit {
  70:BMI088/Src/bmi08a.c **** /*! Accel X  data */
  71:BMI088/Src/bmi08a.c **** uint16_t x;
  72:BMI088/Src/bmi08a.c **** /*! Accel Y  data */
  73:BMI088/Src/bmi08a.c **** uint16_t y;
  74:BMI088/Src/bmi08a.c **** /*! Accel Z  data */
  75:BMI088/Src/bmi08a.c **** uint16_t z;
  76:BMI088/Src/bmi08a.c **** };
  77:BMI088/Src/bmi08a.c **** /**\name Feature configuration file */
  78:BMI088/Src/bmi08a.c **** const uint8_t bmi08x_config_file[] = {
  79:BMI088/Src/bmi08a.c **** 0xC8, 0x2E, 0x00, 0x2E, 0x80, 0x2E, 0x47, 0x01, 0xC8, 0x2E, 0x00,
  80:BMI088/Src/bmi08a.c **** 0x2E, 0xC8, 0x2E, 0x00, 0x2E, 0xC8, 0x2E, 0x00, 0x2E, 0x80, 0x2E,
  81:BMI088/Src/bmi08a.c **** 0xA0, 0x00, 0x80, 0x2E, 0x7C, 0x00, 0x80, 0x2E, 0x11, 0x01, 0x50,
  82:BMI088/Src/bmi08a.c **** 0x39, 0x21, 0x2E, 0xB0, 0xF0, 0x10, 0x30, 0x21, 0x2E, 0x16, 0xF0,
  83:BMI088/Src/bmi08a.c **** 0x80, 0x2E, 0x90, 0x01, 0x00, 0x00, 0x00, 0x00, 0x00, 0x00, 0x00,
  84:BMI088/Src/bmi08a.c **** 0x00, 0x00, 0x00, 0x00, 0x00, 0x00, 0x00, 0x00, 0x00, 0x00, 0x00,
  85:BMI088/Src/bmi08a.c **** 0x00, 0x00, 0x00, 0x00, 0x00, 0x00, 0x00, 0x00, 0x5A, 0xBE, 0x80,
  86:BMI088/Src/bmi08a.c **** 0x2E, 0x18, 0x00, 0x80, 0x2E, 0x18, 0x00, 0x80, 0x2E, 0x18, 0x00,
  87:BMI088/Src/bmi08a.c **** 0x80, 0x2E, 0x18, 0x00, 0x80, 0x2E, 0x18, 0x00, 0x80, 0x2E, 0x18,
  88:BMI088/Src/bmi08a.c **** 0x00, 0x80, 0x2E, 0x18, 0x00, 0x80, 0x2E, 0x18, 0x00, 0x80, 0x2E,
  89:BMI088/Src/bmi08a.c **** 0x18, 0x00, 0x80, 0x2E, 0x18, 0x00, 0x80, 0x2E, 0x18, 0x00, 0x80,
ARM GAS  C:\Users\Lenovo\AppData\Local\Temp\ccWML6Ej.s 			page 3


  90:BMI088/Src/bmi08a.c **** 0x2E, 0x18, 0x00, 0x80, 0x2E, 0x18, 0x00, 0x80, 0x2E, 0x18, 0x00,
  91:BMI088/Src/bmi08a.c **** 0x80, 0x2E, 0x18, 0x00, 0x80, 0x2E, 0x18, 0x00, 0x80, 0x2E, 0x18,
  92:BMI088/Src/bmi08a.c **** 0x00, 0x80, 0x2E, 0x18, 0x00, 0x00, 0x00, 0x00, 0x00, 0x00, 0x00,
  93:BMI088/Src/bmi08a.c **** 0x00, 0x00, 0x00, 0x00, 0x00, 0x00, 0x00, 0x00, 0x00, 0x00, 0x00,
  94:BMI088/Src/bmi08a.c **** 0x00, 0x00, 0x00, 0x00, 0x00, 0x00, 0x00, 0x00, 0x00, 0x00, 0x00,
  95:BMI088/Src/bmi08a.c **** 0x00, 0x00, 0x00, 0x00, 0x00, 0x00, 0x00, 0x00, 0x00, 0x00, 0x00,
  96:BMI088/Src/bmi08a.c **** 0x00, 0x00, 0x00, 0x00, 0x00, 0x00, 0x00, 0x00, 0x00, 0x00, 0x00,
  97:BMI088/Src/bmi08a.c **** 0x00, 0x00, 0x00, 0x00, 0x00, 0x00, 0x00, 0x00, 0x00, 0x00, 0x00,
  98:BMI088/Src/bmi08a.c **** 0x00, 0x00, 0x00, 0x00, 0x00, 0x00, 0x00, 0x00, 0x00, 0x00, 0x00,
  99:BMI088/Src/bmi08a.c **** 0x00, 0x00, 0x00, 0x00, 0x00, 0x00, 0x00, 0x00, 0x00, 0x00, 0x00,
 100:BMI088/Src/bmi08a.c **** 0x00, 0x00, 0x00, 0x00, 0x00, 0x00, 0x00, 0x00, 0x00, 0x00, 0x00,
 101:BMI088/Src/bmi08a.c **** 0x00, 0x00, 0x00, 0x00, 0x00, 0x00, 0xA0, 0x50, 0x80, 0x7F, 0xE7,
 102:BMI088/Src/bmi08a.c **** 0x7F, 0xD5, 0x7F, 0xC4, 0x7F, 0xB3, 0x7F, 0xA2, 0x7F, 0x91, 0x7F,
 103:BMI088/Src/bmi08a.c **** 0xF6, 0x7F, 0x7B, 0x7F, 0x00, 0x2E, 0x01, 0x2E, 0x43, 0xF0, 0x08,
 104:BMI088/Src/bmi08a.c **** 0xBC, 0x0F, 0xB8, 0x60, 0x7F, 0x00, 0x2E, 0x60, 0x6F, 0x00, 0xB2,
 105:BMI088/Src/bmi08a.c **** 0x01, 0x2F, 0x98, 0x2E, 0xD9, 0xB1, 0x40, 0x30, 0x21, 0x2E, 0xB8,
 106:BMI088/Src/bmi08a.c **** 0xF0, 0xF6, 0x6F, 0x91, 0x6F, 0xA2, 0x6F, 0xB3, 0x6F, 0xC4, 0x6F,
 107:BMI088/Src/bmi08a.c **** 0xD5, 0x6F, 0xE7, 0x6F, 0x7B, 0x6F, 0x80, 0x6F, 0x60, 0x5F, 0xC8,
 108:BMI088/Src/bmi08a.c **** 0x2E, 0xA0, 0x50, 0x80, 0x7F, 0xE7, 0x7F, 0xD5, 0x7F, 0xC4, 0x7F,
 109:BMI088/Src/bmi08a.c **** 0xB3, 0x7F, 0xA2, 0x7F, 0x91, 0x7F, 0xF6, 0x7F, 0x7B, 0x7F, 0x00,
 110:BMI088/Src/bmi08a.c **** 0x2E, 0x01, 0x2E, 0x29, 0xF0, 0x08, 0xBC, 0x0F, 0xB8, 0x60, 0x7F,
 111:BMI088/Src/bmi08a.c **** 0x00, 0x2E, 0x60, 0x6F, 0x01, 0x90, 0x1B, 0x2F, 0x01, 0x2E, 0x02,
 112:BMI088/Src/bmi08a.c **** 0x01, 0x0E, 0xBC, 0x0E, 0xB8, 0x00, 0x90, 0x05, 0x2F, 0x01, 0x2E,
 113:BMI088/Src/bmi08a.c **** 0x04, 0x01, 0x0F, 0xBC, 0x0F, 0xB8, 0x01, 0xB2, 0x0D, 0x2F, 0x01,
 114:BMI088/Src/bmi08a.c **** 0x2E, 0x63, 0x00, 0x01, 0x90, 0x04, 0x2F, 0x98, 0x2E, 0x6D, 0xB2,
 115:BMI088/Src/bmi08a.c **** 0x00, 0x30, 0x21, 0x2E, 0x63, 0x00, 0x01, 0x2E, 0x37, 0xF0, 0x21,
 116:BMI088/Src/bmi08a.c **** 0x2E, 0x37, 0xF0, 0x02, 0x2D, 0x98, 0x2E, 0x45, 0xB3, 0x80, 0x30,
 117:BMI088/Src/bmi08a.c **** 0x21, 0x2E, 0xB8, 0xF0, 0xF6, 0x6F, 0x91, 0x6F, 0xA2, 0x6F, 0xB3,
 118:BMI088/Src/bmi08a.c **** 0x6F, 0xC4, 0x6F, 0xD5, 0x6F, 0xE7, 0x6F, 0x7B, 0x6F, 0x80, 0x6F,
 119:BMI088/Src/bmi08a.c **** 0x60, 0x5F, 0xC8, 0x2E, 0x40, 0x30, 0x21, 0x2E, 0xBA, 0xF0, 0xB8,
 120:BMI088/Src/bmi08a.c **** 0x2E, 0x80, 0x30, 0x21, 0x2E, 0xBA, 0xF0, 0x10, 0x24, 0x80, 0x00,
 121:BMI088/Src/bmi08a.c **** 0x03, 0x2E, 0x06, 0xF0, 0x08, 0x0A, 0x21, 0x2E, 0x06, 0xF0, 0x00,
 122:BMI088/Src/bmi08a.c **** 0x3E, 0x03, 0x2E, 0x06, 0xF0, 0x08, 0x08, 0x51, 0x30, 0x01, 0x0A,
 123:BMI088/Src/bmi08a.c **** 0x21, 0x2E, 0x06, 0xF0, 0xB8, 0x2E, 0x00, 0x31, 0x21, 0x2E, 0xBA,
 124:BMI088/Src/bmi08a.c **** 0xF0, 0xB8, 0x2E, 0x10, 0x30, 0x21, 0x2E, 0xBB, 0xF0, 0xB8, 0x2E,
 125:BMI088/Src/bmi08a.c **** 0x80, 0x2E, 0x18, 0x00, 0xFD, 0x2D, 0xAA, 0x00, 0x05, 0x00, 0x00,
 126:BMI088/Src/bmi08a.c **** 0x00, 0x00, 0x00, 0x04, 0x00, 0x01, 0x00, 0xED, 0x8F, 0xD9, 0x31,
 127:BMI088/Src/bmi08a.c **** 0xC6, 0x01, 0x8C, 0x03, 0xC6, 0x01, 0x00, 0x00, 0x0E, 0x00, 0x0E,
 128:BMI088/Src/bmi08a.c **** 0x00, 0x10, 0x00, 0x10, 0x00, 0x10, 0x00, 0x60, 0x50, 0xE7, 0x7F,
 129:BMI088/Src/bmi08a.c **** 0xF6, 0x7F, 0x36, 0x30, 0x0F, 0x2E, 0x01, 0xF0, 0xFE, 0xBF, 0xFE,
 130:BMI088/Src/bmi08a.c **** 0xBB, 0xB7, 0x05, 0xA6, 0x7F, 0xD3, 0x7F, 0xC4, 0x7F, 0xB5, 0x7F,
 131:BMI088/Src/bmi08a.c **** 0x14, 0x24, 0x89, 0xF0, 0x3F, 0x8B, 0x03, 0x41, 0x44, 0x41, 0xB8,
 132:BMI088/Src/bmi08a.c **** 0xBD, 0x9C, 0x0B, 0xA3, 0x6F, 0x14, 0x24, 0x19, 0x00, 0xB3, 0x11,
 133:BMI088/Src/bmi08a.c **** 0x43, 0x8B, 0x16, 0x43, 0x00, 0x2E, 0x67, 0x41, 0x46, 0x41, 0xF8,
 134:BMI088/Src/bmi08a.c **** 0xBF, 0xBE, 0x0B, 0xB3, 0x11, 0x16, 0x43, 0x43, 0x8D, 0x00, 0x2E,
 135:BMI088/Src/bmi08a.c **** 0xA5, 0x41, 0x86, 0x41, 0xD8, 0xBE, 0x6E, 0x0B, 0xEB, 0x10, 0x03,
 136:BMI088/Src/bmi08a.c **** 0x43, 0x13, 0x30, 0x27, 0x2E, 0x18, 0x00, 0x03, 0x31, 0x27, 0x2E,
 137:BMI088/Src/bmi08a.c **** 0xB8, 0xF0, 0xF6, 0x6F, 0xE7, 0x6F, 0xC4, 0x6F, 0xB5, 0x6F, 0xD3,
 138:BMI088/Src/bmi08a.c **** 0x6F, 0xA0, 0x5F, 0xC8, 0x2E, 0xA0, 0x50, 0x80, 0x7F, 0x91, 0x7F,
 139:BMI088/Src/bmi08a.c **** 0xE7, 0x7F, 0xD5, 0x7F, 0xC4, 0x7F, 0xB3, 0x7F, 0xA2, 0x7F, 0xF6,
 140:BMI088/Src/bmi08a.c **** 0x7F, 0x7B, 0x7F, 0x00, 0x2E, 0x01, 0x2E, 0xB9, 0xF0, 0x60, 0x7F,
 141:BMI088/Src/bmi08a.c **** 0x10, 0x30, 0x61, 0x6F, 0x08, 0x08, 0x00, 0xB2, 0x01, 0x2F, 0x98,
 142:BMI088/Src/bmi08a.c **** 0x2E, 0xE6, 0xB0, 0x10, 0x30, 0x21, 0x2E, 0xB9, 0xF0, 0x21, 0x2E,
 143:BMI088/Src/bmi08a.c **** 0x5F, 0xF0, 0xF6, 0x6F, 0x91, 0x6F, 0xA2, 0x6F, 0xB3, 0x6F, 0xC4,
 144:BMI088/Src/bmi08a.c **** 0x6F, 0xD5, 0x6F, 0xE7, 0x6F, 0x7B, 0x6F, 0x80, 0x6F, 0x60, 0x5F,
 145:BMI088/Src/bmi08a.c **** 0xC8, 0x2E, 0x98, 0x2E, 0x9E, 0x01, 0x20, 0x26, 0x98, 0x2E, 0xDE,
 146:BMI088/Src/bmi08a.c **** 0x00, 0x98, 0x2E, 0xF9, 0x00, 0x98, 0x2E, 0xF5, 0x00, 0x98, 0x2E,
ARM GAS  C:\Users\Lenovo\AppData\Local\Temp\ccWML6Ej.s 			page 4


 147:BMI088/Src/bmi08a.c **** 0xE2, 0x00, 0x10, 0x30, 0x21, 0x2E, 0x59, 0xF0, 0x98, 0x2E, 0x94,
 148:BMI088/Src/bmi08a.c **** 0x01, 0x21, 0x30, 0x10, 0x24, 0x19, 0x00, 0x00, 0x2E, 0x00, 0x2E,
 149:BMI088/Src/bmi08a.c **** 0xD0, 0x2E, 0x05, 0x2E, 0x18, 0x00, 0x80, 0xB2, 0x02, 0x30, 0x05,
 150:BMI088/Src/bmi08a.c **** 0x2F, 0x23, 0x2E, 0x5F, 0xF0, 0x25, 0x2E, 0x18, 0x00, 0x98, 0x2E,
 151:BMI088/Src/bmi08a.c **** 0x00, 0xB0, 0x98, 0x2E, 0x51, 0xB2, 0xEC, 0x2D, 0x1A, 0x24, 0x26,
 152:BMI088/Src/bmi08a.c **** 0x00, 0x80, 0x2E, 0x6C, 0x01, 0x10, 0x50, 0x01, 0x2E, 0x55, 0xF0,
 153:BMI088/Src/bmi08a.c **** 0xF0, 0x7F, 0x00, 0x2E, 0xF0, 0x6F, 0x21, 0x2E, 0x55, 0xF0, 0xF0,
 154:BMI088/Src/bmi08a.c **** 0x5F, 0xB8, 0x2E, 0x20, 0x50, 0x00, 0x30, 0xE0, 0x7F, 0xFB, 0x7F,
 155:BMI088/Src/bmi08a.c **** 0x11, 0x24, 0xB1, 0xF0, 0x42, 0x40, 0x43, 0x30, 0x93, 0x0A, 0x42,
 156:BMI088/Src/bmi08a.c **** 0x42, 0x58, 0x82, 0x12, 0x24, 0xAF, 0x00, 0x62, 0x42, 0x12, 0x24,
 157:BMI088/Src/bmi08a.c **** 0xFF, 0x00, 0x42, 0x42, 0x69, 0x82, 0x72, 0x3C, 0x43, 0x40, 0x9A,
 158:BMI088/Src/bmi08a.c **** 0x08, 0x83, 0x32, 0x93, 0x0A, 0x42, 0x42, 0x42, 0x82, 0x02, 0x3F,
 159:BMI088/Src/bmi08a.c **** 0x43, 0x40, 0x9A, 0x08, 0x52, 0x42, 0x0B, 0x31, 0x4B, 0x42, 0x7E,
 160:BMI088/Src/bmi08a.c **** 0x82, 0x12, 0x31, 0x42, 0x42, 0x11, 0x24, 0xFE, 0x00, 0x05, 0x2E,
 161:BMI088/Src/bmi08a.c **** 0x40, 0xF0, 0x51, 0x08, 0x5E, 0x90, 0x27, 0x2F, 0x11, 0x24, 0x00,
 162:BMI088/Src/bmi08a.c **** 0x02, 0x12, 0x24, 0x05, 0x80, 0x13, 0x24, 0xFF, 0xB7, 0x1B, 0x24,
 163:BMI088/Src/bmi08a.c **** 0x00, 0xB0, 0x04, 0x30, 0x05, 0x30, 0x56, 0x32, 0x6E, 0x1A, 0x00,
 164:BMI088/Src/bmi08a.c **** 0x2F, 0xA5, 0x34, 0x69, 0x1A, 0x01, 0x2F, 0x5B, 0x25, 0x00, 0x2E,
 165:BMI088/Src/bmi08a.c **** 0x56, 0x41, 0x26, 0x0D, 0x06, 0x30, 0xCF, 0xBB, 0x41, 0xBE, 0xC0,
 166:BMI088/Src/bmi08a.c **** 0x91, 0x01, 0x2F, 0x00, 0x2E, 0x01, 0x2D, 0x22, 0x0D, 0x81, 0x8D,
 167:BMI088/Src/bmi08a.c **** 0x90, 0xA1, 0xF5, 0x2F, 0xEB, 0x0E, 0xE8, 0x2F, 0x01, 0x2E, 0x25,
 168:BMI088/Src/bmi08a.c **** 0x00, 0x20, 0x1A, 0x05, 0x2F, 0x20, 0x30, 0xE0, 0x7F, 0x03, 0x2D,
 169:BMI088/Src/bmi08a.c **** 0x30, 0x30, 0xE0, 0x7F, 0x00, 0x2E, 0xE0, 0x6F, 0x00, 0xB2, 0x03,
 170:BMI088/Src/bmi08a.c **** 0x2F, 0x21, 0x2E, 0x59, 0xF0, 0x98, 0x2E, 0x94, 0x01, 0xFB, 0x6F,
 171:BMI088/Src/bmi08a.c **** 0xE0, 0x5F, 0xB8, 0x2E, 0x80, 0x2E, 0x18, 0x00, 0x80, 0x2E, 0x18,
 172:BMI088/Src/bmi08a.c **** 0x00, 0xB0, 0x50, 0xF0, 0x7F, 0x00, 0x2E, 0x01, 0x2E, 0x01, 0x01,
 173:BMI088/Src/bmi08a.c **** 0x02, 0xBC, 0x0F, 0xB8, 0xE0, 0x7F, 0x00, 0x2E, 0x01, 0x2E, 0x01,
 174:BMI088/Src/bmi08a.c **** 0x01, 0x01, 0xBC, 0x0F, 0xB8, 0xD0, 0x7F, 0x00, 0x2E, 0x01, 0x2E,
 175:BMI088/Src/bmi08a.c **** 0x01, 0x01, 0x0F, 0xB8, 0xC0, 0x7F, 0x02, 0x30, 0xE6, 0x6F, 0xD4,
 176:BMI088/Src/bmi08a.c **** 0x6F, 0xC3, 0x6F, 0x80, 0x91, 0x04, 0x2F, 0x00, 0x91, 0x02, 0x2F,
 177:BMI088/Src/bmi08a.c **** 0xC0, 0xB2, 0x90, 0x2E, 0xE2, 0xB0, 0xF0, 0x6F, 0x0B, 0x2E, 0x24,
 178:BMI088/Src/bmi08a.c **** 0x00, 0x01, 0x82, 0x40, 0x91, 0x14, 0x2F, 0x41, 0x87, 0x27, 0x2E,
 179:BMI088/Src/bmi08a.c **** 0x24, 0x00, 0x00, 0x40, 0x21, 0x2E, 0x1F, 0x00, 0x53, 0x40, 0x10,
 180:BMI088/Src/bmi08a.c **** 0x24, 0x20, 0x00, 0x13, 0x42, 0x00, 0x2E, 0x41, 0x40, 0x01, 0x42,
 181:BMI088/Src/bmi08a.c **** 0x25, 0x2E, 0x1C, 0x00, 0x25, 0x2E, 0x1D, 0x00, 0x25, 0x2E, 0x22,
 182:BMI088/Src/bmi08a.c **** 0x00, 0x50, 0x5F, 0xB8, 0x2E, 0x0B, 0x2E, 0x00, 0x01, 0xD5, 0xBE,
 183:BMI088/Src/bmi08a.c **** 0xD5, 0xBA, 0xB5, 0x7F, 0x00, 0x2E, 0x0B, 0x2E, 0x01, 0x01, 0xD3,
 184:BMI088/Src/bmi08a.c **** 0xBE, 0xD3, 0xBA, 0xA5, 0x7F, 0x00, 0x2E, 0x0B, 0x2E, 0x00, 0x01,
 185:BMI088/Src/bmi08a.c **** 0xD4, 0xBE, 0xDF, 0xBA, 0x95, 0x7F, 0x00, 0x2E, 0x95, 0x6F, 0x0F,
 186:BMI088/Src/bmi08a.c **** 0x2E, 0x1E, 0x00, 0x3D, 0x1A, 0x05, 0x2F, 0x25, 0x2E, 0x1C, 0x00,
 187:BMI088/Src/bmi08a.c **** 0x25, 0x2E, 0x1D, 0x00, 0x2B, 0x2E, 0x1E, 0x00, 0x82, 0x7F, 0x72,
 188:BMI088/Src/bmi08a.c **** 0x7F, 0x80, 0x91, 0x62, 0x7F, 0x01, 0x2F, 0x06, 0x30, 0x07, 0x2D,
 189:BMI088/Src/bmi08a.c **** 0x06, 0x40, 0x0F, 0x2E, 0x1F, 0x00, 0xB7, 0x05, 0x80, 0xA9, 0xD6,
 190:BMI088/Src/bmi08a.c **** 0x05, 0xB7, 0x23, 0x86, 0x7F, 0x00, 0x91, 0x01, 0x2F, 0x04, 0x30,
 191:BMI088/Src/bmi08a.c **** 0x07, 0x2D, 0x44, 0x40, 0x0D, 0x2E, 0x20, 0x00, 0x26, 0x05, 0x00,
 192:BMI088/Src/bmi08a.c **** 0xA9, 0x94, 0x05, 0x26, 0x23, 0x74, 0x7F, 0xC0, 0x90, 0x01, 0x2F,
 193:BMI088/Src/bmi08a.c **** 0x00, 0x2E, 0x09, 0x2D, 0x02, 0x86, 0x00, 0x2E, 0xC3, 0x40, 0x09,
 194:BMI088/Src/bmi08a.c **** 0x2E, 0x21, 0x00, 0xDC, 0x04, 0xC0, 0xA8, 0x93, 0x04, 0x9A, 0x22,
 195:BMI088/Src/bmi08a.c **** 0x62, 0x7F, 0x12, 0x30, 0x84, 0x6F, 0xB3, 0x6F, 0x63, 0x0F, 0x14,
 196:BMI088/Src/bmi08a.c **** 0x30, 0x08, 0x2F, 0x74, 0x6F, 0x63, 0x0F, 0x14, 0x30, 0x04, 0x2F,
 197:BMI088/Src/bmi08a.c **** 0x64, 0x6F, 0x63, 0x0F, 0x14, 0x30, 0x00, 0x2F, 0x04, 0x30, 0x54,
 198:BMI088/Src/bmi08a.c **** 0x7F, 0x40, 0x91, 0x0B, 0x2E, 0x1C, 0x00, 0x54, 0x6F, 0xA3, 0x6F,
 199:BMI088/Src/bmi08a.c **** 0x6A, 0x29, 0x1D, 0x2F, 0x00, 0x91, 0x06, 0x30, 0x14, 0x24, 0x20,
 200:BMI088/Src/bmi08a.c **** 0x00, 0x0D, 0x2F, 0x2D, 0x2E, 0x1C, 0x00, 0x05, 0x2E, 0x1D, 0x00,
 201:BMI088/Src/bmi08a.c **** 0x81, 0x84, 0x25, 0x2E, 0x1D, 0x00, 0x05, 0x2E, 0x1D, 0x00, 0x53,
 202:BMI088/Src/bmi08a.c **** 0x0E, 0x2B, 0x2F, 0x2D, 0x2E, 0x22, 0x00, 0x29, 0x2D, 0x2B, 0x2E,
 203:BMI088/Src/bmi08a.c **** 0x1C, 0x00, 0x2D, 0x2E, 0x1D, 0x00, 0x0B, 0x2E, 0x1C, 0x00, 0x6B,
ARM GAS  C:\Users\Lenovo\AppData\Local\Temp\ccWML6Ej.s 			page 5


 204:BMI088/Src/bmi08a.c **** 0x0E, 0x20, 0x2F, 0x25, 0x2E, 0x22, 0x00, 0x1E, 0x2D, 0x00, 0xB3,
 205:BMI088/Src/bmi08a.c **** 0x05, 0x2F, 0x02, 0x30, 0x25, 0x2E, 0x1C, 0x00, 0x25, 0x2E, 0x22,
 206:BMI088/Src/bmi08a.c **** 0x00, 0x08, 0x2D, 0x2B, 0x2E, 0x1C, 0x00, 0x09, 0x2E, 0x1C, 0x00,
 207:BMI088/Src/bmi08a.c **** 0x63, 0x0E, 0x01, 0x2F, 0x25, 0x2E, 0x22, 0x00, 0x02, 0x40, 0x25,
 208:BMI088/Src/bmi08a.c **** 0x2E, 0x1F, 0x00, 0x31, 0x25, 0x00, 0x2E, 0xD5, 0x40, 0x12, 0x24,
 209:BMI088/Src/bmi08a.c **** 0x20, 0x00, 0x42, 0x25, 0x95, 0x42, 0x00, 0x2E, 0xC3, 0x40, 0x83,
 210:BMI088/Src/bmi08a.c **** 0x42, 0x00, 0x2E, 0x05, 0x2E, 0x22, 0x00, 0x80, 0xB2, 0x0D, 0x2F,
 211:BMI088/Src/bmi08a.c **** 0x00, 0x40, 0x21, 0x2E, 0x1F, 0x00, 0x50, 0x40, 0x10, 0x43, 0x00,
 212:BMI088/Src/bmi08a.c **** 0x2E, 0x40, 0x40, 0x00, 0x43, 0x20, 0x30, 0x21, 0x2E, 0x5E, 0xF0,
 213:BMI088/Src/bmi08a.c **** 0x02, 0x2D, 0x25, 0x2E, 0x24, 0x00, 0x50, 0x5F, 0xB8, 0x2E, 0x30,
 214:BMI088/Src/bmi08a.c **** 0x50, 0xFB, 0x7F, 0x98, 0x2E, 0x23, 0xB2, 0x13, 0x24, 0x4F, 0x00,
 215:BMI088/Src/bmi08a.c **** 0xD0, 0x42, 0xC1, 0x42, 0xFA, 0x82, 0xD1, 0x7F, 0xE3, 0x7F, 0x98,
 216:BMI088/Src/bmi08a.c **** 0x2E, 0x8D, 0xB1, 0xD1, 0x6F, 0x00, 0x2E, 0x41, 0x40, 0x40, 0xB2,
 217:BMI088/Src/bmi08a.c **** 0x6D, 0x2F, 0xE1, 0x6F, 0x44, 0x84, 0x03, 0x2E, 0x4F, 0x00, 0x83,
 218:BMI088/Src/bmi08a.c **** 0x40, 0xB7, 0x84, 0x4B, 0x04, 0x81, 0x42, 0x00, 0x2E, 0x83, 0x40,
 219:BMI088/Src/bmi08a.c **** 0xC0, 0xAC, 0x01, 0x2F, 0x23, 0x2E, 0x4B, 0x00, 0x12, 0x25, 0x93,
 220:BMI088/Src/bmi08a.c **** 0x40, 0x82, 0x40, 0x1A, 0x0F, 0x01, 0x2F, 0xC0, 0xAC, 0x02, 0x2F,
 221:BMI088/Src/bmi08a.c **** 0x03, 0x30, 0x27, 0x2E, 0x4B, 0x00, 0x42, 0x86, 0xC9, 0x84, 0xC0,
 222:BMI088/Src/bmi08a.c **** 0x40, 0x43, 0x40, 0x18, 0x0E, 0x82, 0x40, 0x25, 0x2F, 0x12, 0x25,
 223:BMI088/Src/bmi08a.c **** 0x12, 0x24, 0x51, 0x00, 0x8F, 0x80, 0x82, 0x40, 0xE0, 0x7F, 0x98,
 224:BMI088/Src/bmi08a.c **** 0x2E, 0x69, 0xB1, 0xE1, 0x6F, 0x00, 0x2E, 0x40, 0x42, 0x77, 0x82,
 225:BMI088/Src/bmi08a.c **** 0x7B, 0x84, 0xB9, 0x86, 0xD6, 0x80, 0x41, 0x40, 0x82, 0x40, 0xC3,
 226:BMI088/Src/bmi08a.c **** 0x40, 0xE0, 0x7F, 0x98, 0x2E, 0x69, 0xB1, 0xE1, 0x6F, 0x00, 0x2E,
 227:BMI088/Src/bmi08a.c **** 0x40, 0x42, 0x77, 0x82, 0x7B, 0x84, 0xB8, 0x86, 0xD7, 0x80, 0x41,
 228:BMI088/Src/bmi08a.c **** 0x40, 0x82, 0x40, 0xC3, 0x40, 0xE0, 0x7F, 0x98, 0x2E, 0x69, 0xB1,
 229:BMI088/Src/bmi08a.c **** 0xE1, 0x6F, 0x00, 0x2E, 0x40, 0x42, 0x24, 0x2D, 0x11, 0x24, 0x5B,
 230:BMI088/Src/bmi08a.c **** 0x00, 0x45, 0x80, 0x41, 0x40, 0xE0, 0x7F, 0x98, 0x2E, 0x7B, 0xB1,
 231:BMI088/Src/bmi08a.c **** 0xE1, 0x6F, 0x00, 0x2E, 0x40, 0x42, 0x7C, 0x82, 0x7B, 0x84, 0xB4,
 232:BMI088/Src/bmi08a.c **** 0x86, 0xD6, 0x80, 0x41, 0x40, 0x82, 0x40, 0xC3, 0x40, 0xE0, 0x7F,
 233:BMI088/Src/bmi08a.c **** 0x98, 0x2E, 0x7B, 0xB1, 0xE1, 0x6F, 0x00, 0x2E, 0x40, 0x42, 0x7C,
 234:BMI088/Src/bmi08a.c **** 0x82, 0x7B, 0x84, 0xB3, 0x86, 0xD7, 0x80, 0x41, 0x40, 0x82, 0x40,
 235:BMI088/Src/bmi08a.c **** 0xC3, 0x40, 0xE0, 0x7F, 0x98, 0x2E, 0x7B, 0xB1, 0xE1, 0x6F, 0x00,
 236:BMI088/Src/bmi08a.c **** 0x2E, 0x40, 0x42, 0x98, 0x2E, 0xC5, 0xB1, 0x11, 0x30, 0x23, 0x2E,
 237:BMI088/Src/bmi08a.c **** 0x5E, 0xF0, 0xFB, 0x6F, 0xD0, 0x5F, 0xB8, 0x2E, 0x30, 0x50, 0xF3,
 238:BMI088/Src/bmi08a.c **** 0x7F, 0xE2, 0x7F, 0xD1, 0x7F, 0x13, 0x24, 0x4E, 0x00, 0xD1, 0x6F,
 239:BMI088/Src/bmi08a.c **** 0xE4, 0x6F, 0xE2, 0x40, 0xF0, 0x6F, 0x21, 0x05, 0xC3, 0x40, 0xA2,
 240:BMI088/Src/bmi08a.c **** 0x10, 0x03, 0x04, 0x10, 0x18, 0xD0, 0x5F, 0x0E, 0x00, 0xB8, 0x2E,
 241:BMI088/Src/bmi08a.c **** 0x30, 0x50, 0xF3, 0x7F, 0xE2, 0x7F, 0xD1, 0x7F, 0x13, 0x24, 0x4E,
 242:BMI088/Src/bmi08a.c **** 0x00, 0xE1, 0x6F, 0xD4, 0x6F, 0xE2, 0x40, 0xF0, 0x6F, 0x21, 0x05,
 243:BMI088/Src/bmi08a.c **** 0xC3, 0x40, 0xA2, 0x10, 0x18, 0x04, 0x10, 0x18, 0xD0, 0x5F, 0x0E,
 244:BMI088/Src/bmi08a.c **** 0x00, 0xB8, 0x2E, 0x01, 0x2E, 0x02, 0x01, 0x8E, 0xBC, 0x01, 0x2E,
 245:BMI088/Src/bmi08a.c **** 0x4A, 0x00, 0x9E, 0xB8, 0x01, 0x1A, 0x2E, 0x2F, 0x01, 0x2E, 0x02,
 246:BMI088/Src/bmi08a.c **** 0x01, 0x0E, 0xBC, 0x0E, 0xB8, 0x21, 0x2E, 0x4A, 0x00, 0x03, 0x2E,
 247:BMI088/Src/bmi08a.c **** 0x4A, 0x00, 0x43, 0xB2, 0x10, 0x24, 0x4D, 0x00, 0x1B, 0x2F, 0x42,
 248:BMI088/Src/bmi08a.c **** 0xB2, 0x11, 0x2F, 0x41, 0xB2, 0x06, 0x2F, 0x01, 0x30, 0x11, 0x42,
 249:BMI088/Src/bmi08a.c **** 0x01, 0x42, 0x3E, 0x80, 0x00, 0x2E, 0x01, 0x42, 0xB8, 0x2E, 0x41,
 250:BMI088/Src/bmi08a.c **** 0x33, 0x11, 0x42, 0x61, 0x30, 0x01, 0x42, 0x3E, 0x80, 0x11, 0x24,
 251:BMI088/Src/bmi08a.c **** 0x80, 0x00, 0x01, 0x42, 0xB8, 0x2E, 0x01, 0x30, 0x11, 0x42, 0x51,
 252:BMI088/Src/bmi08a.c **** 0x30, 0x01, 0x42, 0x3E, 0x80, 0x41, 0x33, 0x01, 0x42, 0xB8, 0x2E,
 253:BMI088/Src/bmi08a.c **** 0x71, 0x30, 0x11, 0x42, 0x41, 0x30, 0x01, 0x42, 0x3E, 0x80, 0x81,
 254:BMI088/Src/bmi08a.c **** 0x31, 0x01, 0x42, 0xB8, 0x2E, 0x10, 0x24, 0x60, 0x00, 0x11, 0x24,
 255:BMI088/Src/bmi08a.c **** 0x52, 0xF0, 0x12, 0x40, 0x52, 0x42, 0x28, 0xB5, 0x52, 0x42, 0x00,
 256:BMI088/Src/bmi08a.c **** 0x2E, 0x12, 0x40, 0x42, 0x42, 0x42, 0x82, 0x00, 0x40, 0x50, 0x42,
 257:BMI088/Src/bmi08a.c **** 0x08, 0xB4, 0x40, 0x42, 0x7E, 0x80, 0xA8, 0xB4, 0x01, 0x42, 0xB8,
 258:BMI088/Src/bmi08a.c **** 0x2E, 0x12, 0x24, 0x59, 0x00, 0x90, 0x40, 0x84, 0x82, 0x20, 0x50,
 259:BMI088/Src/bmi08a.c **** 0x50, 0x42, 0x77, 0x80, 0x82, 0x40, 0x42, 0x42, 0xFB, 0x7F, 0x05,
 260:BMI088/Src/bmi08a.c **** 0x82, 0x00, 0x40, 0x40, 0x42, 0x7C, 0x80, 0x05, 0x82, 0x00, 0x40,
ARM GAS  C:\Users\Lenovo\AppData\Local\Temp\ccWML6Ej.s 			page 6


 261:BMI088/Src/bmi08a.c **** 0x40, 0x42, 0x7C, 0x80, 0x05, 0x82, 0x00, 0x40, 0x40, 0x42, 0x77,
 262:BMI088/Src/bmi08a.c **** 0x84, 0x00, 0x2E, 0x90, 0x40, 0x84, 0x82, 0x82, 0x40, 0x50, 0x42,
 263:BMI088/Src/bmi08a.c **** 0x77, 0x80, 0x42, 0x42, 0x05, 0x82, 0x00, 0x40, 0x40, 0x42, 0x7C,
 264:BMI088/Src/bmi08a.c **** 0x80, 0x05, 0x82, 0x00, 0x40, 0x40, 0x42, 0x7C, 0x80, 0x05, 0x82,
 265:BMI088/Src/bmi08a.c **** 0x00, 0x40, 0x40, 0x42, 0x7C, 0x82, 0xE1, 0x7F, 0x98, 0x2E, 0x23,
 266:BMI088/Src/bmi08a.c **** 0xB2, 0xE2, 0x6F, 0x00, 0x2E, 0x90, 0x42, 0x81, 0x42, 0xBC, 0x82,
 267:BMI088/Src/bmi08a.c **** 0x10, 0x24, 0x33, 0xF0, 0x23, 0x40, 0x02, 0x40, 0xB8, 0xBD, 0x9A,
 268:BMI088/Src/bmi08a.c **** 0x0A, 0x03, 0x80, 0x52, 0x42, 0x00, 0x2E, 0x23, 0x40, 0x02, 0x40,
 269:BMI088/Src/bmi08a.c **** 0xB8, 0xBD, 0x9A, 0x0A, 0x03, 0x80, 0x52, 0x42, 0x00, 0x2E, 0x22,
 270:BMI088/Src/bmi08a.c **** 0x40, 0x00, 0x40, 0x28, 0xBD, 0x10, 0x0A, 0x40, 0x42, 0x00, 0x2E,
 271:BMI088/Src/bmi08a.c **** 0xFB, 0x6F, 0xE0, 0x5F, 0xB8, 0x2E, 0x11, 0x24, 0x28, 0xF0, 0x50,
 272:BMI088/Src/bmi08a.c **** 0x50, 0x60, 0x40, 0xF0, 0x7F, 0x51, 0x25, 0x60, 0x40, 0xE0, 0x7F,
 273:BMI088/Src/bmi08a.c **** 0x00, 0x2E, 0x41, 0x40, 0xD1, 0x7F, 0x00, 0x2E, 0xE2, 0x6F, 0xD0,
 274:BMI088/Src/bmi08a.c **** 0x6F, 0x00, 0xB2, 0xF3, 0x6F, 0xA8, 0xB8, 0x28, 0xBE, 0x59, 0x0A,
 275:BMI088/Src/bmi08a.c **** 0x20, 0x0A, 0x01, 0x2F, 0xB0, 0x5F, 0xB8, 0x2E, 0x45, 0x41, 0xC5,
 276:BMI088/Src/bmi08a.c **** 0x7F, 0x00, 0x2E, 0xC5, 0x6F, 0x40, 0x91, 0x09, 0x2F, 0x05, 0x2E,
 277:BMI088/Src/bmi08a.c **** 0x28, 0xF0, 0xB2, 0x7F, 0x00, 0x2E, 0xB2, 0x6F, 0x1A, 0x1A, 0x07,
 278:BMI088/Src/bmi08a.c **** 0x2F, 0xF0, 0x3F, 0x13, 0x25, 0x05, 0x2D, 0x15, 0x1A, 0x02, 0x2F,
 279:BMI088/Src/bmi08a.c **** 0x10, 0x24, 0xFF, 0x00, 0x20, 0x0A, 0xB0, 0x5F, 0xB8, 0x2E, 0x01,
 280:BMI088/Src/bmi08a.c **** 0x2E, 0x03, 0x01, 0x8F, 0xBC, 0x01, 0x2E, 0x23, 0x00, 0x9F, 0xB8,
 281:BMI088/Src/bmi08a.c **** 0x01, 0x1A, 0x12, 0x2F, 0x01, 0x2E, 0x03, 0x01, 0x0F, 0xBC, 0x0F,
 282:BMI088/Src/bmi08a.c **** 0xB8, 0x21, 0x2E, 0x23, 0x00, 0x11, 0x30, 0x05, 0x2E, 0x23, 0x00,
 283:BMI088/Src/bmi08a.c **** 0x51, 0x08, 0xD2, 0x3F, 0x01, 0x2E, 0x07, 0xF0, 0x02, 0x08, 0x91,
 284:BMI088/Src/bmi08a.c **** 0xBC, 0x01, 0x0A, 0x21, 0x2E, 0x07, 0xF0, 0xB8, 0x2E, 0xB8, 0x2E,
 285:BMI088/Src/bmi08a.c **** 0x10, 0x50, 0x12, 0x24, 0x6D, 0x00, 0x00, 0x30, 0x1B, 0x2D, 0xF1,
 286:BMI088/Src/bmi08a.c **** 0x6F, 0xD1, 0x00, 0x00, 0x2E, 0xC0, 0x42, 0xBD, 0x84, 0xD1, 0x00,
 287:BMI088/Src/bmi08a.c **** 0x00, 0x2E, 0xC0, 0x42, 0x89, 0x84, 0xD1, 0x00, 0x00, 0x2E, 0xC0,
 288:BMI088/Src/bmi08a.c **** 0x42, 0xBD, 0x84, 0xD1, 0x00, 0x00, 0x2E, 0xC0, 0x42, 0x89, 0x84,
 289:BMI088/Src/bmi08a.c **** 0xD1, 0x00, 0x00, 0x2E, 0xC0, 0x42, 0xBD, 0x84, 0xD1, 0x00, 0x00,
 290:BMI088/Src/bmi08a.c **** 0x2E, 0xC0, 0x42, 0x41, 0x82, 0xF1, 0x7F, 0xB7, 0x84, 0xF1, 0x6F,
 291:BMI088/Src/bmi08a.c **** 0x42, 0xA2, 0xE1, 0x2F, 0xF0, 0x5F, 0xB8, 0x2E, 0xC0, 0x50, 0x92,
 292:BMI088/Src/bmi08a.c **** 0x7F, 0xFB, 0x7F, 0x81, 0x7F, 0x00, 0x30, 0x60, 0x7F, 0x70, 0x7F,
 293:BMI088/Src/bmi08a.c **** 0x50, 0x7F, 0x00, 0x2E, 0x03, 0x2E, 0x04, 0x01, 0x9D, 0xBC, 0x9E,
 294:BMI088/Src/bmi08a.c **** 0xB8, 0x41, 0x7F, 0x00, 0x2E, 0x42, 0x6F, 0x52, 0x7F, 0xE2, 0x7F,
 295:BMI088/Src/bmi08a.c **** 0x00, 0x2E, 0x83, 0x6F, 0xC3, 0x82, 0xD3, 0x7F, 0x0C, 0x2D, 0x55,
 296:BMI088/Src/bmi08a.c **** 0x6F, 0x7F, 0x89, 0xDC, 0x01, 0x9D, 0x01, 0xCB, 0x41, 0x8B, 0x43,
 297:BMI088/Src/bmi08a.c **** 0xCC, 0x01, 0x4D, 0x01, 0xC7, 0x41, 0x47, 0x43, 0x54, 0x7F, 0x00,
 298:BMI088/Src/bmi08a.c **** 0x2E, 0x54, 0x6F, 0x00, 0xAB, 0xF0, 0x2F, 0x9B, 0x6F, 0x8A, 0x00,
 299:BMI088/Src/bmi08a.c **** 0x4B, 0x42, 0xC2, 0x7F, 0xB1, 0x7F, 0x50, 0x7F, 0x7D, 0x80, 0xA0,
 300:BMI088/Src/bmi08a.c **** 0x7F, 0x13, 0x24, 0x08, 0x01, 0x3F, 0x2D, 0x50, 0x6F, 0x18, 0x01,
 301:BMI088/Src/bmi08a.c **** 0xC6, 0x84, 0xC8, 0x00, 0x50, 0x00, 0x05, 0x41, 0xC7, 0x40, 0x44,
 302:BMI088/Src/bmi08a.c **** 0x40, 0x61, 0x6F, 0x73, 0x6F, 0x2F, 0x18, 0x00, 0xB3, 0x0B, 0x2F,
 303:BMI088/Src/bmi08a.c **** 0x10, 0xA1, 0x03, 0x2F, 0x30, 0x89, 0xBC, 0x11, 0xCE, 0x17, 0x06,
 304:BMI088/Src/bmi08a.c **** 0x2D, 0x74, 0x13, 0x06, 0x31, 0xB4, 0x05, 0xBE, 0x15, 0xFC, 0x11,
 305:BMI088/Src/bmi08a.c **** 0xAE, 0x0B, 0x4E, 0x00, 0xDF, 0x02, 0x61, 0x7F, 0x73, 0x7F, 0xB7,
 306:BMI088/Src/bmi08a.c **** 0x84, 0x01, 0x82, 0xD1, 0x00, 0x86, 0x80, 0xA2, 0x6F, 0x11, 0x01,
 307:BMI088/Src/bmi08a.c **** 0x81, 0x00, 0xC3, 0x40, 0x05, 0x41, 0x84, 0x40, 0x1D, 0x18, 0x72,
 308:BMI088/Src/bmi08a.c **** 0x6F, 0x00, 0xB3, 0x63, 0x6F, 0x0B, 0x2F, 0x10, 0xA1, 0x03, 0x2F,
 309:BMI088/Src/bmi08a.c **** 0x30, 0x89, 0xBC, 0x11, 0xCE, 0x17, 0x06, 0x2D, 0x74, 0x13, 0x06,
 310:BMI088/Src/bmi08a.c **** 0x31, 0xB4, 0x05, 0xBE, 0x15, 0xFC, 0x11, 0xAE, 0x0B, 0xDE, 0x04,
 311:BMI088/Src/bmi08a.c **** 0x97, 0x06, 0x63, 0x7F, 0x72, 0x7F, 0x51, 0x7F, 0x3D, 0x86, 0xB1,
 312:BMI088/Src/bmi08a.c **** 0x6F, 0xE2, 0x6F, 0x50, 0x6F, 0x42, 0x0E, 0xBC, 0x2F, 0xE0, 0x6F,
 313:BMI088/Src/bmi08a.c **** 0xC6, 0x82, 0x98, 0x00, 0x48, 0x00, 0xC0, 0x6F, 0x83, 0x40, 0x04,
 314:BMI088/Src/bmi08a.c **** 0x40, 0x42, 0x40, 0x61, 0x6F, 0x70, 0x6F, 0x80, 0xB2, 0x1C, 0x18,
 315:BMI088/Src/bmi08a.c **** 0x0B, 0x2F, 0x90, 0xA0, 0x03, 0x2F, 0xB0, 0x84, 0xBA, 0x11, 0xCE,
 316:BMI088/Src/bmi08a.c **** 0x17, 0x06, 0x2D, 0x03, 0x31, 0xDA, 0x04, 0xFB, 0x14, 0x32, 0x13,
 317:BMI088/Src/bmi08a.c **** 0xFA, 0x11, 0xA3, 0x0B, 0x4E, 0x00, 0x07, 0x02, 0x61, 0x7F, 0x70,
ARM GAS  C:\Users\Lenovo\AppData\Local\Temp\ccWML6Ej.s 			page 7


 318:BMI088/Src/bmi08a.c **** 0x7F, 0x00, 0x2E, 0x72, 0x6F, 0x80, 0xA8, 0x60, 0x6F, 0xD1, 0x6F,
 319:BMI088/Src/bmi08a.c **** 0x13, 0x2F, 0x80, 0x90, 0x03, 0x2F, 0x13, 0x24, 0xFF, 0x7F, 0x43,
 320:BMI088/Src/bmi08a.c **** 0x0F, 0x0D, 0x2F, 0xBF, 0xA0, 0x07, 0x2F, 0xBF, 0x90, 0x03, 0x2F,
 321:BMI088/Src/bmi08a.c **** 0x12, 0x24, 0x00, 0x80, 0x42, 0x0E, 0x01, 0x2F, 0x40, 0x42, 0x07,
 322:BMI088/Src/bmi08a.c **** 0x2D, 0x10, 0x24, 0x00, 0x80, 0x40, 0x42, 0x03, 0x2D, 0x10, 0x24,
 323:BMI088/Src/bmi08a.c **** 0xFF, 0x7F, 0x40, 0x42, 0x00, 0x2E, 0xFB, 0x6F, 0x40, 0x5F, 0x40,
 324:BMI088/Src/bmi08a.c **** 0x40, 0xB8, 0x2E, 0x11, 0x24, 0x63, 0x00, 0x30, 0x50, 0x10, 0x30,
 325:BMI088/Src/bmi08a.c **** 0x50, 0x42, 0xFB, 0x7F, 0x10, 0x24, 0x33, 0xF0, 0x23, 0x40, 0x02,
 326:BMI088/Src/bmi08a.c **** 0x40, 0xB8, 0xBD, 0x9A, 0x0A, 0x03, 0x80, 0x52, 0x42, 0x00, 0x2E,
 327:BMI088/Src/bmi08a.c **** 0x23, 0x40, 0x02, 0x40, 0xB8, 0xBD, 0x9A, 0x0A, 0x03, 0x80, 0x52,
 328:BMI088/Src/bmi08a.c **** 0x42, 0x00, 0x2E, 0x23, 0x40, 0x02, 0x40, 0xB8, 0xBD, 0x9A, 0x0A,
 329:BMI088/Src/bmi08a.c **** 0x3C, 0x80, 0x42, 0x42, 0x7E, 0x84, 0xE0, 0x7F, 0x86, 0x82, 0xD1,
 330:BMI088/Src/bmi08a.c **** 0x7F, 0x00, 0x2E, 0x82, 0x40, 0x98, 0x2E, 0x92, 0xB2, 0xD1, 0x6F,
 331:BMI088/Src/bmi08a.c **** 0x7D, 0x82, 0x00, 0x2E, 0x40, 0x42, 0x7E, 0x80, 0x0B, 0x82, 0x02,
 332:BMI088/Src/bmi08a.c **** 0x40, 0xD1, 0x7F, 0x98, 0x2E, 0x92, 0xB2, 0xD1, 0x6F, 0x78, 0x82,
 333:BMI088/Src/bmi08a.c **** 0x00, 0x2E, 0x40, 0x42, 0x7E, 0x80, 0x10, 0x82, 0x02, 0x40, 0xD1,
 334:BMI088/Src/bmi08a.c **** 0x7F, 0x98, 0x2E, 0x92, 0xB2, 0xD1, 0x6F, 0x73, 0x82, 0x00, 0x2E,
 335:BMI088/Src/bmi08a.c **** 0x40, 0x42, 0x7E, 0x80, 0xE1, 0x6F, 0x12, 0x40, 0x52, 0x42, 0x28,
 336:BMI088/Src/bmi08a.c **** 0xB5, 0x52, 0x42, 0x00, 0x2E, 0x12, 0x40, 0x52, 0x42, 0x28, 0xB5,
 337:BMI088/Src/bmi08a.c **** 0x52, 0x42, 0x00, 0x2E, 0x00, 0x40, 0x50, 0x42, 0x08, 0xB4, 0x40,
 338:BMI088/Src/bmi08a.c **** 0x42, 0x00, 0x2E, 0xFB, 0x6F, 0xD0, 0x5F, 0xB8, 0x2E, 0x80, 0x2E,
 339:BMI088/Src/bmi08a.c **** 0x18, 0x00, 0x80, 0x2E, 0x18, 0x00, 0x80, 0x2E, 0x18, 0x00, 0x80,
 340:BMI088/Src/bmi08a.c **** 0x2E, 0x18, 0x00, 0x80, 0x2E, 0x18, 0x00, 0x80, 0x2E, 0x18, 0x00,
 341:BMI088/Src/bmi08a.c **** 0x80, 0x2E, 0x18, 0x00, 0x80, 0x2E, 0x18, 0x00, 0x80, 0x2E, 0x18,
 342:BMI088/Src/bmi08a.c **** 0x00, 0x80, 0x2E, 0x18, 0x00, 0x80, 0x2E, 0x18, 0x00, 0x80, 0x2E,
 343:BMI088/Src/bmi08a.c **** 0x18, 0x00, 0x80, 0x2E, 0x18, 0x00, 0x80, 0x2E, 0x18, 0x00, 0x80,
 344:BMI088/Src/bmi08a.c **** 0x2E, 0x18, 0x00, 0x80, 0x2E, 0x18, 0x00, 0x80, 0x2E, 0x18, 0x00,
 345:BMI088/Src/bmi08a.c **** 0x80, 0x2E, 0x18, 0x00, 0x80, 0x2E, 0x18, 0x00, 0x80, 0x2E, 0x18,
 346:BMI088/Src/bmi08a.c **** 0x00, 0x80, 0x2E, 0x18, 0x00, 0x80, 0x2E, 0x18, 0x00, 0x80, 0x2E,
 347:BMI088/Src/bmi08a.c **** 0x18, 0x00, 0x80, 0x2E, 0x18, 0x00, 0x80, 0x2E, 0x18, 0x00, 0x80,
 348:BMI088/Src/bmi08a.c **** 0x2E, 0x18, 0x00, 0x80, 0x2E, 0x18, 0x00, 0x80, 0x2E, 0x18, 0x00,
 349:BMI088/Src/bmi08a.c **** 0x80, 0x2E, 0x18, 0x00, 0x80, 0x2E, 0x18, 0x00, 0x80, 0x2E, 0x18,
 350:BMI088/Src/bmi08a.c **** 0x00, 0x80, 0x2E, 0x18, 0x00, 0x80, 0x2E, 0x18, 0x00, 0x80, 0x2E,
 351:BMI088/Src/bmi08a.c **** 0x18, 0x00, 0x80, 0x2E, 0x18, 0x00, 0x80, 0x2E, 0x18, 0x00, 0x80,
 352:BMI088/Src/bmi08a.c **** 0x2E, 0x18, 0x00, 0x80, 0x2E, 0x18, 0x00, 0x80, 0x2E, 0x18, 0x00,
 353:BMI088/Src/bmi08a.c **** 0x80, 0x2E, 0x18, 0x00, 0x80, 0x2E, 0x18, 0x00, 0x80, 0x2E, 0x18,
 354:BMI088/Src/bmi08a.c **** 0x00, 0x80, 0x2E, 0x18, 0x00, 0x80, 0x2E, 0x18, 0x00, 0x80, 0x2E,
 355:BMI088/Src/bmi08a.c **** 0x18, 0x00, 0x80, 0x2E, 0x18, 0x00, 0x80, 0x2E, 0x18, 0x00, 0x80,
 356:BMI088/Src/bmi08a.c **** 0x2E, 0x18, 0x00, 0x80, 0x2E, 0x18, 0x00, 0x80, 0x2E, 0x18, 0x00,
 357:BMI088/Src/bmi08a.c **** 0x80, 0x2E, 0x18, 0x00, 0x80, 0x2E, 0x18, 0x00, 0x80, 0x2E, 0x18,
 358:BMI088/Src/bmi08a.c **** 0x00, 0x80, 0x2E, 0x18, 0x00, 0x80, 0x2E, 0x18, 0x00, 0x80, 0x2E,
 359:BMI088/Src/bmi08a.c **** 0x18, 0x00, 0x80, 0x2E, 0x18, 0x00, 0x80, 0x2E, 0x18, 0x00, 0x80,
 360:BMI088/Src/bmi08a.c **** 0x2E, 0x18, 0x00, 0x80, 0x2E, 0x18, 0x00, 0x80, 0x2E, 0x18, 0x00,
 361:BMI088/Src/bmi08a.c **** 0x80, 0x2E, 0x18, 0x00, 0x80, 0x2E, 0x18, 0x00, 0x80, 0x2E, 0x18,
 362:BMI088/Src/bmi08a.c **** 0x00, 0x80, 0x2E, 0x18, 0x00, 0x80, 0x2E, 0x18, 0x00, 0x80, 0x2E,
 363:BMI088/Src/bmi08a.c **** 0x18, 0x00, 0x80, 0x2E, 0x18, 0x00, 0x80, 0x2E, 0x18, 0x00, 0x80,
 364:BMI088/Src/bmi08a.c **** 0x2E, 0x18, 0x00, 0x80, 0x2E, 0x18, 0x00, 0x80, 0x2E, 0x18, 0x00,
 365:BMI088/Src/bmi08a.c **** 0x80, 0x2E, 0x18, 0x00, 0x80, 0x2E, 0x18, 0x00, 0x80, 0x2E, 0x18,
 366:BMI088/Src/bmi08a.c **** 0x00, 0x80, 0x2E, 0x18, 0x00, 0x80, 0x2E, 0x18, 0x00, 0x80, 0x2E,
 367:BMI088/Src/bmi08a.c **** 0x18, 0x00, 0x80, 0x2E, 0x18, 0x00, 0x80, 0x2E, 0x18, 0x00, 0x80,
 368:BMI088/Src/bmi08a.c **** 0x2E, 0x18, 0x00, 0x80, 0x2E, 0x18, 0x00, 0x80, 0x2E, 0x18, 0x00,
 369:BMI088/Src/bmi08a.c **** 0x80, 0x2E, 0x18, 0x00, 0x80, 0x2E, 0x18, 0x00, 0x80, 0x2E, 0x18,
 370:BMI088/Src/bmi08a.c **** 0x00, 0x80, 0x2E, 0x18, 0x00, 0x80, 0x2E, 0x18, 0x00, 0x80, 0x2E,
 371:BMI088/Src/bmi08a.c **** 0x18, 0x00, 0x80, 0x2E, 0x18, 0x00, 0x80, 0x2E, 0x18, 0x00, 0x80,
 372:BMI088/Src/bmi08a.c **** 0x2E, 0x18, 0x00, 0x80, 0x2E, 0x18, 0x00, 0x80, 0x2E, 0x18, 0x00,
 373:BMI088/Src/bmi08a.c **** 0x80, 0x2E, 0x18, 0x00, 0x80, 0x2E, 0x18, 0x00, 0x80, 0x2E, 0x18,
 374:BMI088/Src/bmi08a.c **** 0x00, 0x80, 0x2E, 0x18, 0x00, 0x80, 0x2E, 0x18, 0x00, 0x80, 0x2E,
ARM GAS  C:\Users\Lenovo\AppData\Local\Temp\ccWML6Ej.s 			page 8


 375:BMI088/Src/bmi08a.c **** 0x18, 0x00, 0x80, 0x2E, 0x18, 0x00, 0x80, 0x2E, 0x18, 0x00, 0x80,
 376:BMI088/Src/bmi08a.c **** 0x2E, 0x18, 0x00, 0x80, 0x2E, 0x18, 0x00, 0x80, 0x2E, 0x18, 0x00,
 377:BMI088/Src/bmi08a.c **** 0x80, 0x2E, 0x18, 0x00, 0x80, 0x2E, 0x18, 0x00, 0x80, 0x2E, 0x18,
 378:BMI088/Src/bmi08a.c **** 0x00, 0x80, 0x2E, 0x18, 0x00, 0x80, 0x2E, 0x18, 0x00, 0x80, 0x2E,
 379:BMI088/Src/bmi08a.c **** 0x18, 0x00, 0x80, 0x2E, 0x18, 0x00, 0x80, 0x2E, 0x18, 0x00, 0x80,
 380:BMI088/Src/bmi08a.c **** 0x2E, 0x18, 0x00, 0x80, 0x2E, 0x18, 0x00, 0x80, 0x2E, 0x18, 0x00,
 381:BMI088/Src/bmi08a.c **** 0x80, 0x2E, 0x18, 0x00, 0x80, 0x2E, 0x18, 0x00, 0x80, 0x2E, 0x18,
 382:BMI088/Src/bmi08a.c **** 0x00, 0x80, 0x2E, 0x18, 0x00, 0x80, 0x2E, 0x18, 0x00, 0x80, 0x2E,
 383:BMI088/Src/bmi08a.c **** 0x18, 0x00, 0x80, 0x2E, 0x18, 0x00, 0x80, 0x2E, 0x18, 0x00, 0x80,
 384:BMI088/Src/bmi08a.c **** 0x2E, 0x18, 0x00, 0x80, 0x2E, 0x18, 0x00, 0x80, 0x2E, 0x18, 0x00,
 385:BMI088/Src/bmi08a.c **** 0x80, 0x2E, 0x18, 0x00, 0x80, 0x2E, 0x18, 0x00, 0x80, 0x2E, 0x18,
 386:BMI088/Src/bmi08a.c **** 0x00, 0x80, 0x2E, 0x18, 0x00, 0x80, 0x2E, 0x18, 0x00, 0x80, 0x2E,
 387:BMI088/Src/bmi08a.c **** 0x18, 0x00, 0x80, 0x2E, 0x18, 0x00, 0x80, 0x2E, 0x18, 0x00, 0x80,
 388:BMI088/Src/bmi08a.c **** 0x2E, 0x18, 0x00, 0x80, 0x2E, 0x18, 0x00, 0x80, 0x2E, 0x18, 0x00,
 389:BMI088/Src/bmi08a.c **** 0x80, 0x2E, 0x18, 0x00, 0x80, 0x2E, 0x18, 0x00, 0x80, 0x2E, 0x18,
 390:BMI088/Src/bmi08a.c **** 0x00, 0x80, 0x2E, 0x18, 0x00, 0x80, 0x2E, 0x18, 0x00, 0x80, 0x2E,
 391:BMI088/Src/bmi08a.c **** 0x18, 0x00, 0x80, 0x2E, 0x18, 0x00, 0x80, 0x2E, 0x18, 0x00, 0x80,
 392:BMI088/Src/bmi08a.c **** 0x2E, 0x18, 0x00, 0x80, 0x2E, 0x18, 0x00, 0x80, 0x2E, 0x18, 0x00,
 393:BMI088/Src/bmi08a.c **** 0x80, 0x2E, 0x18, 0x00, 0x80, 0x2E, 0x18, 0x00, 0x80, 0x2E, 0x18,
 394:BMI088/Src/bmi08a.c **** 0x00, 0x80, 0x2E, 0x18, 0x00, 0x80, 0x2E, 0x18, 0x00, 0x80, 0x2E,
 395:BMI088/Src/bmi08a.c **** 0x18, 0x00, 0x80, 0x2E, 0x18, 0x00, 0x80, 0x2E, 0x18, 0x00, 0x80,
 396:BMI088/Src/bmi08a.c **** 0x2E, 0x18, 0x00, 0x80, 0x2E, 0x18, 0x00, 0x80, 0x2E, 0x18, 0x00,
 397:BMI088/Src/bmi08a.c **** 0x80, 0x2E, 0x18, 0x00, 0x80, 0x2E, 0x18, 0x00, 0x80, 0x2E, 0x18,
 398:BMI088/Src/bmi08a.c **** 0x00, 0x80, 0x2E, 0x18, 0x00, 0x80, 0x2E, 0x18, 0x00, 0x80, 0x2E,
 399:BMI088/Src/bmi08a.c **** 0x18, 0x00, 0x80, 0x2E, 0x18, 0x00, 0x80, 0x2E, 0x18, 0x00, 0x80,
 400:BMI088/Src/bmi08a.c **** 0x2E, 0x18, 0x00, 0x80, 0x2E, 0x18, 0x00, 0x80, 0x2E, 0x18, 0x00,
 401:BMI088/Src/bmi08a.c **** 0x80, 0x2E, 0x18, 0x00, 0x80, 0x2E, 0x18, 0x00, 0x80, 0x2E, 0x18,
 402:BMI088/Src/bmi08a.c **** 0x00, 0x80, 0x2E, 0x18, 0x00, 0x80, 0x2E, 0x18, 0x00, 0x80, 0x2E,
 403:BMI088/Src/bmi08a.c **** 0x18, 0x00, 0x80, 0x2E, 0x18, 0x00, 0x80, 0x2E, 0x18, 0x00, 0x80,
 404:BMI088/Src/bmi08a.c **** 0x2E, 0x18, 0x00, 0x80, 0x2E, 0x18, 0x00, 0x80, 0x2E, 0x18, 0x00,
 405:BMI088/Src/bmi08a.c **** 0x80, 0x2E, 0x18, 0x00, 0x80, 0x2E, 0x18, 0x00, 0x80, 0x2E, 0x18,
 406:BMI088/Src/bmi08a.c **** 0x00, 0x80, 0x2E, 0x18, 0x00, 0x80, 0x2E, 0x18, 0x00, 0x80, 0x2E,
 407:BMI088/Src/bmi08a.c **** 0x18, 0x00, 0x80, 0x2E, 0x18, 0x00, 0x80, 0x2E, 0x18, 0x00, 0x80,
 408:BMI088/Src/bmi08a.c **** 0x2E, 0x18, 0x00, 0x80, 0x2E, 0x18, 0x00, 0x80, 0x2E, 0x18, 0x00,
 409:BMI088/Src/bmi08a.c **** 0x80, 0x2E, 0x18, 0x00, 0x80, 0x2E, 0x18, 0x00, 0x80, 0x2E, 0x18,
 410:BMI088/Src/bmi08a.c **** 0x00, 0x80, 0x2E, 0x18, 0x00, 0x80, 0x2E, 0x18, 0x00, 0x80, 0x2E,
 411:BMI088/Src/bmi08a.c **** 0x18, 0x00, 0x80, 0x2E, 0x18, 0x00, 0x80, 0x2E, 0x18, 0x00, 0x80,
 412:BMI088/Src/bmi08a.c **** 0x2E, 0x18, 0x00, 0x80, 0x2E, 0x18, 0x00, 0x80, 0x2E, 0x18, 0x00,
 413:BMI088/Src/bmi08a.c **** 0x80, 0x2E, 0x18, 0x00, 0x80, 0x2E, 0x18, 0x00, 0x80, 0x2E, 0x18,
 414:BMI088/Src/bmi08a.c **** 0x00, 0x80, 0x2E, 0x18, 0x00, 0x80, 0x2E, 0x18, 0x00, 0x80, 0x2E,
 415:BMI088/Src/bmi08a.c **** 0x18, 0x00, 0x80, 0x2E, 0x18, 0x00, 0x80, 0x2E, 0x18, 0x00, 0x80,
 416:BMI088/Src/bmi08a.c **** 0x2E, 0x18, 0x00, 0x80, 0x2E, 0x18, 0x00, 0x80, 0x2E, 0x18, 0x00,
 417:BMI088/Src/bmi08a.c **** 0x80, 0x2E, 0x18, 0x00, 0x80, 0x2E, 0x18, 0x00, 0x80, 0x2E, 0x18,
 418:BMI088/Src/bmi08a.c **** 0x00, 0x80, 0x2E, 0x18, 0x00, 0x80, 0x2E, 0x18, 0x00, 0x80, 0x2E,
 419:BMI088/Src/bmi08a.c **** 0x18, 0x00, 0x80, 0x2E, 0x18, 0x00, 0x80, 0x2E, 0x18, 0x00, 0x80,
 420:BMI088/Src/bmi08a.c **** 0x2E, 0x18, 0x00, 0x80, 0x2E, 0x18, 0x00, 0x80, 0x2E, 0x18, 0x00,
 421:BMI088/Src/bmi08a.c **** 0x80, 0x2E, 0x18, 0x00, 0x80, 0x2E, 0x18, 0x00, 0x80, 0x2E, 0x18,
 422:BMI088/Src/bmi08a.c **** 0x00, 0x80, 0x2E, 0x18, 0x00, 0x80, 0x2E, 0x18, 0x00, 0x80, 0x2E,
 423:BMI088/Src/bmi08a.c **** 0x18, 0x00, 0x80, 0x2E, 0x18, 0x00, 0x80, 0x2E, 0x18, 0x00, 0x80,
 424:BMI088/Src/bmi08a.c **** 0x2E, 0x18, 0x00, 0x80, 0x2E, 0x18, 0x00, 0x80, 0x2E, 0x18, 0x00,
 425:BMI088/Src/bmi08a.c **** 0x80, 0x2E, 0x18, 0x00, 0x80, 0x2E, 0x18, 0x00, 0x80, 0x2E, 0x18,
 426:BMI088/Src/bmi08a.c **** 0x00, 0x80, 0x2E, 0x18, 0x00, 0x80, 0x2E, 0x18, 0x00, 0x80, 0x2E,
 427:BMI088/Src/bmi08a.c **** 0x18, 0x00, 0x80, 0x2E, 0x18, 0x00, 0x80, 0x2E, 0x18, 0x00, 0x80,
 428:BMI088/Src/bmi08a.c **** 0x2E, 0x18, 0x00, 0x80, 0x2E, 0x18, 0x00, 0x80, 0x2E, 0x18, 0x00,
 429:BMI088/Src/bmi08a.c **** 0x80, 0x2E, 0x18, 0x00, 0x80, 0x2E, 0x18, 0x00, 0x80, 0x2E, 0x18,
 430:BMI088/Src/bmi08a.c **** 0x00, 0x80, 0x2E, 0x18, 0x00, 0x80, 0x2E, 0x18, 0x00, 0x80, 0x2E,
 431:BMI088/Src/bmi08a.c **** 0x18, 0x00, 0x80, 0x2E, 0x18, 0x00, 0x80, 0x2E, 0x18, 0x00, 0x80,
ARM GAS  C:\Users\Lenovo\AppData\Local\Temp\ccWML6Ej.s 			page 9


 432:BMI088/Src/bmi08a.c **** 0x2E, 0x18, 0x00, 0x80, 0x2E, 0x18, 0x00, 0x80, 0x2E, 0x18, 0x00,
 433:BMI088/Src/bmi08a.c **** 0x80, 0x2E, 0x18, 0x00, 0x80, 0x2E, 0x18, 0x00, 0x80, 0x2E, 0x18,
 434:BMI088/Src/bmi08a.c **** 0x00, 0x80, 0x2E, 0x18, 0x00, 0x80, 0x2E, 0x18, 0x00, 0x80, 0x2E,
 435:BMI088/Src/bmi08a.c **** 0x18, 0x00, 0x80, 0x2E, 0x18, 0x00, 0x80, 0x2E, 0x18, 0x00, 0x80,
 436:BMI088/Src/bmi08a.c **** 0x2E, 0x18, 0x00, 0x80, 0x2E, 0x18, 0x00, 0x80, 0x2E, 0x18, 0x00,
 437:BMI088/Src/bmi08a.c **** 0x80, 0x2E, 0x18, 0x00, 0x80, 0x2E, 0x18, 0x00, 0x80, 0x2E, 0x18,
 438:BMI088/Src/bmi08a.c **** 0x00, 0x80, 0x2E, 0x18, 0x00, 0x80, 0x2E, 0x18, 0x00, 0x80, 0x2E,
 439:BMI088/Src/bmi08a.c **** 0x18, 0x00, 0x80, 0x2E, 0x18, 0x00, 0x80, 0x2E, 0x18, 0x00, 0x80,
 440:BMI088/Src/bmi08a.c **** 0x2E, 0x18, 0x00, 0x80, 0x2E, 0x18, 0x00, 0x80, 0x2E, 0x18, 0x00,
 441:BMI088/Src/bmi08a.c **** 0x80, 0x2E, 0x18, 0x00, 0x80, 0x2E, 0x18, 0x00, 0x80, 0x2E, 0x18,
 442:BMI088/Src/bmi08a.c **** 0x00, 0x80, 0x2E, 0x18, 0x00, 0x80, 0x2E, 0x18, 0x00, 0x80, 0x2E,
 443:BMI088/Src/bmi08a.c **** 0x18, 0x00, 0x80, 0x2E, 0x18, 0x00, 0x80, 0x2E, 0x18, 0x00, 0x80,
 444:BMI088/Src/bmi08a.c **** 0x2E, 0x18, 0x00, 0x80, 0x2E, 0x18, 0x00, 0x80, 0x2E, 0x18, 0x00,
 445:BMI088/Src/bmi08a.c **** 0x80, 0x2E, 0x18, 0x00, 0x80, 0x2E, 0x18, 0x00, 0x80, 0x2E, 0x18,
 446:BMI088/Src/bmi08a.c **** 0x00, 0x80, 0x2E, 0x18, 0x00, 0x80, 0x2E, 0x18, 0x00, 0x80, 0x2E,
 447:BMI088/Src/bmi08a.c **** 0x18, 0x00, 0x80, 0x2E, 0x18, 0x00, 0x80, 0x2E, 0x18, 0x00, 0x80,
 448:BMI088/Src/bmi08a.c **** 0x2E, 0x18, 0x00, 0x80, 0x2E, 0x18, 0x00, 0x80, 0x2E, 0x18, 0x00,
 449:BMI088/Src/bmi08a.c **** 0x80, 0x2E, 0x18, 0x00, 0x80, 0x2E, 0x18, 0x00, 0x80, 0x2E, 0x18,
 450:BMI088/Src/bmi08a.c **** 0x00, 0x80, 0x2E, 0x18, 0x00, 0x80, 0x2E, 0x18, 0x00, 0x80, 0x2E,
 451:BMI088/Src/bmi08a.c **** 0x18, 0x00, 0x80, 0x2E, 0x18, 0x00, 0x80, 0x2E, 0x18, 0x00, 0x80,
 452:BMI088/Src/bmi08a.c **** 0x2E, 0x18, 0x00, 0x80, 0x2E, 0x18, 0x00, 0x80, 0x2E, 0x18, 0x00,
 453:BMI088/Src/bmi08a.c **** 0x80, 0x2E, 0x18, 0x00, 0x80, 0x2E, 0x18, 0x00, 0x80, 0x2E, 0x18,
 454:BMI088/Src/bmi08a.c **** 0x00, 0x80, 0x2E, 0x18, 0x00, 0x80, 0x2E, 0x18, 0x00, 0x80, 0x2E,
 455:BMI088/Src/bmi08a.c **** 0x18, 0x00, 0x80, 0x2E, 0x18, 0x00, 0x80, 0x2E, 0x18, 0x00, 0x80,
 456:BMI088/Src/bmi08a.c **** 0x2E, 0x18, 0x00, 0x80, 0x2E, 0x18, 0x00, 0x80, 0x2E, 0x18, 0x00,
 457:BMI088/Src/bmi08a.c **** 0x80, 0x2E, 0x18, 0x00, 0x80, 0x2E, 0x18, 0x00, 0x80, 0x2E, 0x18,
 458:BMI088/Src/bmi08a.c **** 0x00, 0x80, 0x2E, 0x18, 0x00, 0x80, 0x2E, 0x18, 0x00, 0x80, 0x2E,
 459:BMI088/Src/bmi08a.c **** 0x18, 0x00, 0x80, 0x2E, 0x18, 0x00, 0x80, 0x2E, 0x18, 0x00, 0x80,
 460:BMI088/Src/bmi08a.c **** 0x2E, 0x18, 0x00, 0x80, 0x2E, 0x18, 0x00, 0x80, 0x2E, 0x18, 0x00,
 461:BMI088/Src/bmi08a.c **** 0x80, 0x2E, 0x18, 0x00, 0x80, 0x2E, 0x18, 0x00, 0x80, 0x2E, 0x18,
 462:BMI088/Src/bmi08a.c **** 0x00, 0x80, 0x2E, 0x18, 0x00, 0x80, 0x2E, 0x18, 0x00, 0x80, 0x2E,
 463:BMI088/Src/bmi08a.c **** 0x18, 0x00, 0x80, 0x2E, 0x18, 0x00, 0x80, 0x2E, 0x18, 0x00, 0x80,
 464:BMI088/Src/bmi08a.c **** 0x2E, 0x18, 0x00, 0x80, 0x2E, 0x18, 0x00, 0x80, 0x2E, 0x18, 0x00,
 465:BMI088/Src/bmi08a.c **** 0x80, 0x2E, 0x18, 0x00, 0x80, 0x2E, 0x18, 0x00, 0x80, 0x2E, 0x18,
 466:BMI088/Src/bmi08a.c **** 0x00, 0x80, 0x2E, 0x18, 0x00, 0x80, 0x2E, 0x18, 0x00, 0x80, 0x2E,
 467:BMI088/Src/bmi08a.c **** 0x18, 0x00, 0x80, 0x2E, 0x18, 0x00, 0x80, 0x2E, 0x18, 0x00, 0x80,
 468:BMI088/Src/bmi08a.c **** 0x2E, 0x18, 0x00, 0x80, 0x2E, 0x18, 0x00, 0x80, 0x2E, 0x18, 0x00,
 469:BMI088/Src/bmi08a.c **** 0x80, 0x2E, 0x18, 0x00, 0x80, 0x2E, 0x18, 0x00, 0x80, 0x2E, 0x18,
 470:BMI088/Src/bmi08a.c **** 0x00, 0x80, 0x2E, 0x18, 0x00, 0x80, 0x2E, 0x18, 0x00, 0x80, 0x2E,
 471:BMI088/Src/bmi08a.c **** 0x18, 0x00, 0x80, 0x2E, 0x18, 0x00, 0x80, 0x2E, 0x18, 0x00, 0x80,
 472:BMI088/Src/bmi08a.c **** 0x2E, 0x18, 0x00, 0x80, 0x2E, 0x18, 0x00, 0x80, 0x2E, 0x18, 0x00,
 473:BMI088/Src/bmi08a.c **** 0x80, 0x2E, 0x18, 0x00, 0x80, 0x2E, 0x18, 0x00, 0x80, 0x2E, 0x18,
 474:BMI088/Src/bmi08a.c **** 0x00, 0x80, 0x2E, 0x18, 0x00, 0x80, 0x2E, 0x18, 0x00, 0x80, 0x2E,
 475:BMI088/Src/bmi08a.c **** 0x18, 0x00, 0x80, 0x2E, 0x18, 0x00, 0x80, 0x2E, 0x18, 0x00, 0x80,
 476:BMI088/Src/bmi08a.c **** 0x2E, 0x18, 0x00, 0x80, 0x2E, 0x18, 0x00, 0x80, 0x2E, 0x18, 0x00,
 477:BMI088/Src/bmi08a.c **** 0x80, 0x2E, 0x18, 0x00, 0x80, 0x2E, 0x18, 0x00, 0x80, 0x2E, 0x18,
 478:BMI088/Src/bmi08a.c **** 0x00, 0x80, 0x2E, 0x18, 0x00, 0x80, 0x2E, 0x18, 0x00, 0x80, 0x2E,
 479:BMI088/Src/bmi08a.c **** 0x18, 0x00, 0x80, 0x2E, 0x18, 0x00, 0x80, 0x2E, 0x18, 0x00, 0x80,
 480:BMI088/Src/bmi08a.c **** 0x2E, 0x18, 0x00, 0x80, 0x2E, 0x18, 0x00, 0x80, 0x2E, 0x18, 0x00,
 481:BMI088/Src/bmi08a.c **** 0x80, 0x2E, 0x18, 0x00, 0x80, 0x2E, 0x18, 0x00, 0x80, 0x2E, 0x18,
 482:BMI088/Src/bmi08a.c **** 0x00, 0x80, 0x2E, 0x18, 0x00, 0x80, 0x2E, 0x18, 0x00, 0x80, 0x2E,
 483:BMI088/Src/bmi08a.c **** 0x18, 0x00, 0x80, 0x2E, 0x18, 0x00, 0x80, 0x2E, 0x18, 0x00, 0x80,
 484:BMI088/Src/bmi08a.c **** 0x2E, 0x18, 0x00, 0x80, 0x2E, 0x18, 0x00, 0x80, 0x2E, 0x18, 0x00,
 485:BMI088/Src/bmi08a.c **** 0x80, 0x2E, 0x18, 0x00, 0x80, 0x2E, 0x18, 0x00, 0x80, 0x2E, 0x18,
 486:BMI088/Src/bmi08a.c **** 0x00, 0x80, 0x2E, 0x18, 0x00, 0x80, 0x2E, 0x18, 0x00, 0x80, 0x2E,
 487:BMI088/Src/bmi08a.c **** 0x18, 0x00, 0x80, 0x2E, 0x18, 0x00, 0x80, 0x2E, 0x18, 0x00, 0x80,
 488:BMI088/Src/bmi08a.c **** 0x2E, 0x18, 0x00, 0x80, 0x2E, 0x18, 0x00, 0x80, 0x2E, 0x18, 0x00,
ARM GAS  C:\Users\Lenovo\AppData\Local\Temp\ccWML6Ej.s 			page 10


 489:BMI088/Src/bmi08a.c **** 0x80, 0x2E, 0x18, 0x00, 0x80, 0x2E, 0x18, 0x00, 0x80, 0x2E, 0x18,
 490:BMI088/Src/bmi08a.c **** 0x00, 0x80, 0x2E, 0x18, 0x00, 0x80, 0x2E, 0x18, 0x00, 0x80, 0x2E,
 491:BMI088/Src/bmi08a.c **** 0x18, 0x00, 0x80, 0x2E, 0x18, 0x00, 0x80, 0x2E, 0x18, 0x00, 0x80,
 492:BMI088/Src/bmi08a.c **** 0x2E, 0x18, 0x00, 0x80, 0x2E, 0x18, 0x00, 0x80, 0x2E, 0x18, 0x00,
 493:BMI088/Src/bmi08a.c **** 0x80, 0x2E, 0x18, 0x00, 0x80, 0x2E, 0x18, 0x00, 0x80, 0x2E, 0x18,
 494:BMI088/Src/bmi08a.c **** 0x00, 0x80, 0x2E, 0x18, 0x00, 0x80, 0x2E, 0x18, 0x00, 0x80, 0x2E,
 495:BMI088/Src/bmi08a.c **** 0x18, 0x00, 0x80, 0x2E, 0x18, 0x00, 0x80, 0x2E, 0x18, 0x00, 0x80,
 496:BMI088/Src/bmi08a.c **** 0x2E, 0x18, 0x00, 0x80, 0x2E, 0x18, 0x00, 0x80, 0x2E, 0x18, 0x00,
 497:BMI088/Src/bmi08a.c **** 0x80, 0x2E, 0x18, 0x00, 0x80, 0x2E, 0x18, 0x00, 0x80, 0x2E, 0x18,
 498:BMI088/Src/bmi08a.c **** 0x00, 0x80, 0x2E, 0x18, 0x00, 0x80, 0x2E, 0x18, 0x00, 0x80, 0x2E,
 499:BMI088/Src/bmi08a.c **** 0x18, 0x00, 0x80, 0x2E, 0x18, 0x00, 0x80, 0x2E, 0x18, 0x00, 0x80,
 500:BMI088/Src/bmi08a.c **** 0x2E, 0x18, 0x00, 0x80, 0x2E, 0x18, 0x00, 0x80, 0x2E, 0x18, 0x00,
 501:BMI088/Src/bmi08a.c **** 0x80, 0x2E, 0x18, 0x00, 0x80, 0x2E, 0x18, 0x00, 0x80, 0x2E, 0x18,
 502:BMI088/Src/bmi08a.c **** 0x00, 0x80, 0x2E, 0x18, 0x00, 0x80, 0x2E, 0x18, 0x00, 0x80, 0x2E,
 503:BMI088/Src/bmi08a.c **** 0x18, 0x00, 0x80, 0x2E, 0x18, 0x00, 0x80, 0x2E, 0x18, 0x00, 0x80,
 504:BMI088/Src/bmi08a.c **** 0x2E, 0x18, 0x00, 0x80, 0x2E, 0x18, 0x00, 0x80, 0x2E, 0x18, 0x00,
 505:BMI088/Src/bmi08a.c **** 0x80, 0x2E, 0x18, 0x00, 0x80, 0x2E, 0x18, 0x00, 0x80, 0x2E, 0x18,
 506:BMI088/Src/bmi08a.c **** 0x00, 0x80, 0x2E, 0x18, 0x00, 0x80, 0x2E, 0x18, 0x00, 0x80, 0x2E,
 507:BMI088/Src/bmi08a.c **** 0x18, 0x00, 0x80, 0x2E, 0x18, 0x00, 0x80, 0x2E, 0x18, 0x00, 0x80,
 508:BMI088/Src/bmi08a.c **** 0x2E, 0x18, 0x00, 0x80, 0x2E, 0x18, 0x00, 0x80, 0x2E, 0x18, 0x00,
 509:BMI088/Src/bmi08a.c **** 0x80, 0x2E, 0x18, 0x00, 0x80, 0x2E, 0x18, 0x00, 0x80, 0x2E, 0x18,
 510:BMI088/Src/bmi08a.c **** 0x00, 0x80, 0x2E, 0x18, 0x00, 0x80, 0x2E, 0x18, 0x00, 0x80, 0x2E,
 511:BMI088/Src/bmi08a.c **** 0x18, 0x00, 0x80, 0x2E, 0x18, 0x00, 0x80, 0x2E, 0x18, 0x00, 0x80,
 512:BMI088/Src/bmi08a.c **** 0x2E, 0x18, 0x00, 0x80, 0x2E, 0x18, 0x00, 0x80, 0x2E, 0x18, 0x00,
 513:BMI088/Src/bmi08a.c **** 0x80, 0x2E, 0x18, 0x00, 0x80, 0x2E, 0x18, 0x00, 0x80, 0x2E, 0x18,
 514:BMI088/Src/bmi08a.c **** 0x00, 0x80, 0x2E, 0x18, 0x00, 0x80, 0x2E, 0x18, 0x00, 0x80, 0x2E,
 515:BMI088/Src/bmi08a.c **** 0x18, 0x00, 0x80, 0x2E, 0x18, 0x00, 0x80, 0x2E, 0x18, 0x00, 0x80,
 516:BMI088/Src/bmi08a.c **** 0x2E, 0x18, 0x00, 0x80, 0x2E, 0x18, 0x00, 0x80, 0x2E, 0x18, 0x00,
 517:BMI088/Src/bmi08a.c **** 0x80, 0x2E, 0x18, 0x00, 0x80, 0x2E, 0x18, 0x00, 0x80, 0x2E, 0x18,
 518:BMI088/Src/bmi08a.c **** 0x00, 0x80, 0x2E, 0x18, 0x00, 0x80, 0x2E, 0x18, 0x00, 0x80, 0x2E,
 519:BMI088/Src/bmi08a.c **** 0x18, 0x00, 0x80, 0x2E, 0x18, 0x00, 0x80, 0x2E, 0x18, 0x00, 0x80,
 520:BMI088/Src/bmi08a.c **** 0x2E, 0x18, 0x00, 0x80, 0x2E, 0x18, 0x00, 0x80, 0x2E, 0x18, 0x00,
 521:BMI088/Src/bmi08a.c **** 0x80, 0x2E, 0x18, 0x00, 0x80, 0x2E, 0x18, 0x00, 0x80, 0x2E, 0x18,
 522:BMI088/Src/bmi08a.c **** 0x00, 0x80, 0x2E, 0x18, 0x00, 0x80, 0x2E, 0x18, 0x00, 0x80, 0x2E,
 523:BMI088/Src/bmi08a.c **** 0x18, 0x00, 0x80, 0x2E, 0x18, 0x00, 0x80, 0x2E, 0x18, 0x00, 0x80,
 524:BMI088/Src/bmi08a.c **** 0x2E, 0x18, 0x00, 0x80, 0x2E, 0x18, 0x00, 0x80, 0x2E, 0x18, 0x00,
 525:BMI088/Src/bmi08a.c **** 0x80, 0x2E, 0x18, 0x00, 0x80, 0x2E, 0x18, 0x00, 0x80, 0x2E, 0x18,
 526:BMI088/Src/bmi08a.c **** 0x00, 0x80, 0x2E, 0x18, 0x00, 0x80, 0x2E, 0x18, 0x00, 0x80, 0x2E,
 527:BMI088/Src/bmi08a.c **** 0x18, 0x00, 0x80, 0x2E, 0x18, 0x00, 0x80, 0x2E, 0x18, 0x00, 0x80,
 528:BMI088/Src/bmi08a.c **** 0x2E, 0x18, 0x00, 0x80, 0x2E, 0x18, 0x00, 0x80, 0x2E, 0x18, 0x00,
 529:BMI088/Src/bmi08a.c **** 0x80, 0x2E, 0x18, 0x00, 0x80, 0x2E, 0x18, 0x00, 0x80, 0x2E, 0x18,
 530:BMI088/Src/bmi08a.c **** 0x00, 0x80, 0x2E, 0x18, 0x00, 0x80, 0x2E, 0x18, 0x00, 0x80, 0x2E,
 531:BMI088/Src/bmi08a.c **** 0x18, 0x00, 0x80, 0x2E, 0x18, 0x00, 0x80, 0x2E, 0x18, 0x00, 0x80,
 532:BMI088/Src/bmi08a.c **** 0x2E, 0x18, 0x00, 0x80, 0x2E, 0x18, 0x00, 0x80, 0x2E, 0x18, 0x00,
 533:BMI088/Src/bmi08a.c **** 0x80, 0x2E, 0x18, 0x00, 0x80, 0x2E, 0x18, 0x00, 0x80, 0x2E, 0x18,
 534:BMI088/Src/bmi08a.c **** 0x00, 0x80, 0x2E, 0x18, 0x00, 0x80, 0x2E, 0x18, 0x00, 0x80, 0x2E,
 535:BMI088/Src/bmi08a.c **** 0x18, 0x00, 0x80, 0x2E, 0x18, 0x00, 0x80, 0x2E, 0x18, 0x00, 0x80,
 536:BMI088/Src/bmi08a.c **** 0x2E, 0x18, 0x00, 0x80, 0x2E, 0x18, 0x00, 0x80, 0x2E, 0x18, 0x00,
 537:BMI088/Src/bmi08a.c **** 0x80, 0x2E, 0x18, 0x00, 0x80, 0x2E, 0x18, 0x00, 0x80, 0x2E, 0x18,
 538:BMI088/Src/bmi08a.c **** 0x00, 0x80, 0x2E, 0x18, 0x00, 0x80, 0x2E, 0x18, 0x00, 0x80, 0x2E,
 539:BMI088/Src/bmi08a.c **** 0x18, 0x00, 0x80, 0x2E, 0x18, 0x00, 0x80, 0x2E, 0x18, 0x00, 0x80,
 540:BMI088/Src/bmi08a.c **** 0x2E, 0x18, 0x00, 0x80, 0x2E, 0x18, 0x00, 0x80, 0x2E, 0x18, 0x00,
 541:BMI088/Src/bmi08a.c **** 0x80, 0x2E, 0x18, 0x00, 0x80, 0x2E, 0x18, 0x00, 0x80, 0x2E, 0x18,
 542:BMI088/Src/bmi08a.c **** 0x00, 0x80, 0x2E, 0x18, 0x00, 0x80, 0x2E, 0x18, 0x00, 0x80, 0x2E,
 543:BMI088/Src/bmi08a.c **** 0x18, 0x00, 0x80, 0x2E, 0x18, 0x00, 0x80, 0x2E, 0x18, 0x00, 0x80,
 544:BMI088/Src/bmi08a.c **** 0x2E, 0x18, 0x00, 0x80, 0x2E, 0x18, 0x00, 0x80, 0x2E, 0x18, 0x00,
 545:BMI088/Src/bmi08a.c **** 0x80, 0x2E, 0x18, 0x00, 0x80, 0x2E, 0x18, 0x00, 0x80, 0x2E, 0x18,
ARM GAS  C:\Users\Lenovo\AppData\Local\Temp\ccWML6Ej.s 			page 11


 546:BMI088/Src/bmi08a.c **** 0x00, 0x80, 0x2E, 0x18, 0x00, 0x80, 0x2E, 0x18, 0x00, 0x80, 0x2E,
 547:BMI088/Src/bmi08a.c **** 0x18, 0x00, 0x80, 0x2E, 0x18, 0x00, 0x80, 0x2E, 0x18, 0x00, 0x80,
 548:BMI088/Src/bmi08a.c **** 0x2E, 0x18, 0x00, 0x80, 0x2E, 0x18, 0x00, 0x80, 0x2E, 0x18, 0x00,
 549:BMI088/Src/bmi08a.c **** 0x80, 0x2E, 0x18, 0x00, 0x80, 0x2E, 0x18, 0x00, 0x80, 0x2E, 0x18,
 550:BMI088/Src/bmi08a.c **** 0x00, 0x80, 0x2E, 0x18, 0x00, 0x80, 0x2E, 0x18, 0x00, 0x80, 0x2E,
 551:BMI088/Src/bmi08a.c **** 0x18, 0x00, 0x80, 0x2E, 0x18, 0x00, 0x80, 0x2E, 0x18, 0x00, 0x80,
 552:BMI088/Src/bmi08a.c **** 0x2E, 0x18, 0x00, 0x80, 0x2E, 0x18, 0x00, 0x80, 0x2E, 0x18, 0x00,
 553:BMI088/Src/bmi08a.c **** 0x80, 0x2E, 0x18, 0x00, 0x80, 0x2E, 0x18, 0x00, 0x80, 0x2E, 0x18,
 554:BMI088/Src/bmi08a.c **** 0x00, 0x80, 0x2E, 0x18, 0x00, 0x80, 0x2E, 0x18, 0x00, 0x80, 0x2E,
 555:BMI088/Src/bmi08a.c **** 0x18, 0x00, 0x80, 0x2E, 0x18, 0x00, 0x80, 0x2E, 0x18, 0x00, 0x80,
 556:BMI088/Src/bmi08a.c **** 0x2E, 0x18, 0x00, 0x80, 0x2E, 0x18, 0x00, 0x80, 0x2E, 0x18, 0x00,
 557:BMI088/Src/bmi08a.c **** 0x80, 0x2E, 0x18, 0x00, 0x80, 0x2E, 0x18, 0x00, 0x80, 0x2E, 0x18,
 558:BMI088/Src/bmi08a.c **** 0x00, 0x80, 0x2E, 0x18, 0x00, 0x80, 0x2E, 0x18, 0x00, 0x80, 0x2E,
 559:BMI088/Src/bmi08a.c **** 0x18, 0x00, 0x80, 0x2E, 0x18, 0x00, 0x80, 0x2E, 0x18, 0x00, 0x80,
 560:BMI088/Src/bmi08a.c **** 0x2E, 0x18, 0x00, 0x80, 0x2E, 0x18, 0x00, 0x80, 0x2E, 0x18, 0x00,
 561:BMI088/Src/bmi08a.c **** 0x80, 0x2E, 0x18, 0x00, 0x80, 0x2E, 0x18, 0x00, 0x80, 0x2E, 0x18,
 562:BMI088/Src/bmi08a.c **** 0x00, 0x80, 0x2E, 0x18, 0x00, 0x80, 0x2E, 0x18, 0x00, 0x80, 0x2E,
 563:BMI088/Src/bmi08a.c **** 0x18, 0x00, 0x80, 0x2E, 0x18, 0x00, 0x80, 0x2E, 0x18, 0x00, 0x80,
 564:BMI088/Src/bmi08a.c **** 0x2E, 0x18, 0x00, 0x80, 0x2E, 0x18, 0x00, 0x80, 0x2E, 0x18, 0x00,
 565:BMI088/Src/bmi08a.c **** 0x80, 0x2E, 0x18, 0x00, 0x80, 0x2E, 0x18, 0x00, 0x80, 0x2E, 0x18,
 566:BMI088/Src/bmi08a.c **** 0x00, 0x80, 0x2E, 0x18, 0x00, 0x80, 0x2E, 0x18, 0x00, 0x80, 0x2E,
 567:BMI088/Src/bmi08a.c **** 0x18, 0x00, 0x80, 0x2E, 0x18, 0x00, 0x80, 0x2E, 0x18, 0x00, 0x80,
 568:BMI088/Src/bmi08a.c **** 0x2E, 0x18, 0x00, 0x80, 0x2E, 0x18, 0x00, 0x80, 0x2E, 0x18, 0x00,
 569:BMI088/Src/bmi08a.c **** 0x80, 0x2E, 0x18, 0x00, 0x80, 0x2E, 0x18, 0x00, 0x80, 0x2E, 0x18,
 570:BMI088/Src/bmi08a.c **** 0x00, 0x80, 0x2E, 0x18, 0x00, 0x80, 0x2E, 0x18, 0x00, 0x80, 0x2E,
 571:BMI088/Src/bmi08a.c **** 0x18, 0x00, 0x80, 0x2E, 0x18, 0x00, 0x80, 0x2E, 0x18, 0x00, 0x80,
 572:BMI088/Src/bmi08a.c **** 0x2E, 0x18, 0x00, 0x80, 0x2E, 0x18, 0x00, 0x80, 0x2E, 0x18, 0x00,
 573:BMI088/Src/bmi08a.c **** 0x80, 0x2E, 0x18, 0x00, 0x80, 0x2E, 0x18, 0x00, 0x80, 0x2E, 0x18,
 574:BMI088/Src/bmi08a.c **** 0x00, 0x80, 0x2E, 0x18, 0x00, 0x80, 0x2E, 0x18, 0x00, 0x80, 0x2E,
 575:BMI088/Src/bmi08a.c **** 0x18, 0x00, 0x80, 0x2E, 0x18, 0x00, 0x80, 0x2E, 0x18, 0x00, 0x80,
 576:BMI088/Src/bmi08a.c **** 0x2E, 0x18, 0x00, 0x80, 0x2E, 0x18, 0x00, 0x80, 0x2E, 0x18, 0x00,
 577:BMI088/Src/bmi08a.c **** 0x80, 0x2E, 0x18, 0x00, 0x80, 0x2E, 0x18, 0x00, 0x80, 0x2E, 0x18,
 578:BMI088/Src/bmi08a.c **** 0x00, 0x80, 0x2E, 0x18, 0x00, 0x80, 0x2E, 0x18, 0x00, 0x80, 0x2E,
 579:BMI088/Src/bmi08a.c **** 0x18, 0x00, 0x80, 0x2E, 0x18, 0x00, 0x80, 0x2E, 0x18, 0x00, 0x80,
 580:BMI088/Src/bmi08a.c **** 0x2E, 0x18, 0x00, 0x80, 0x2E, 0x18, 0x00, 0x80, 0x2E, 0x18, 0x00,
 581:BMI088/Src/bmi08a.c **** 0x80, 0x2E, 0x18, 0x00, 0x80, 0x2E, 0x18, 0x00, 0x80, 0x2E, 0x18,
 582:BMI088/Src/bmi08a.c **** 0x00, 0x80, 0x2E, 0x18, 0x00, 0x80, 0x2E, 0x18, 0x00, 0x80, 0x2E,
 583:BMI088/Src/bmi08a.c **** 0x18, 0x00, 0x80, 0x2E, 0x18, 0x00, 0x80, 0x2E, 0x18, 0x00, 0x80,
 584:BMI088/Src/bmi08a.c **** 0x2E, 0x18, 0x00, 0x80, 0x2E, 0x18, 0x00, 0x80, 0x2E, 0x18, 0x00,
 585:BMI088/Src/bmi08a.c **** 0x80, 0x2E, 0x18, 0x00, 0x80, 0x2E, 0x18, 0x00, 0x80, 0x2E, 0x18,
 586:BMI088/Src/bmi08a.c **** 0x00, 0x80, 0x2E, 0x18, 0x00, 0x80, 0x2E, 0x18, 0x00, 0x80, 0x2E,
 587:BMI088/Src/bmi08a.c **** 0x18, 0x00, 0x80, 0x2E, 0x18, 0x00, 0x80, 0x2E, 0x18, 0x00, 0x80,
 588:BMI088/Src/bmi08a.c **** 0x2E, 0x18, 0x00, 0x80, 0x2E, 0x18, 0x00, 0x80, 0x2E, 0x18, 0x00,
 589:BMI088/Src/bmi08a.c **** 0x80, 0x2E, 0x18, 0x00, 0x80, 0x2E, 0x18, 0x00, 0x80, 0x2E, 0x18,
 590:BMI088/Src/bmi08a.c **** 0x00, 0x80, 0x2E, 0x18, 0x00, 0x80, 0x2E, 0x18, 0x00, 0x80, 0x2E,
 591:BMI088/Src/bmi08a.c **** 0x18, 0x00, 0x80, 0x2E, 0x18, 0x00, 0x80, 0x2E, 0x18, 0x00, 0x80,
 592:BMI088/Src/bmi08a.c **** 0x2E, 0x18, 0x00, 0x80, 0x2E, 0x18, 0x00, 0x80, 0x2E, 0x18, 0x00,
 593:BMI088/Src/bmi08a.c **** 0x80, 0x2E, 0x18, 0x00, 0x80, 0x2E, 0x18, 0x00, 0x80, 0x2E, 0x18,
 594:BMI088/Src/bmi08a.c **** 0x00, 0x80, 0x2E, 0x18, 0x00, 0x80, 0x2E, 0x18, 0x00, 0x80, 0x2E,
 595:BMI088/Src/bmi08a.c **** 0x18, 0x00, 0x80, 0x2E, 0x18, 0x00, 0x80, 0x2E, 0x18, 0x00, 0x80,
 596:BMI088/Src/bmi08a.c **** 0x2E, 0x18, 0x00, 0x80, 0x2E, 0x18, 0x00, 0x80, 0x2E, 0x18, 0x00,
 597:BMI088/Src/bmi08a.c **** 0x80, 0x2E, 0x18, 0x00, 0x80, 0x2E, 0x18, 0x00, 0x80, 0x2E, 0x18,
 598:BMI088/Src/bmi08a.c **** 0x00, 0x80, 0x2E, 0x18, 0x00, 0x80, 0x2E, 0x18, 0x00, 0x80, 0x2E,
 599:BMI088/Src/bmi08a.c **** 0x18, 0x00, 0x80, 0x2E, 0x18, 0x00, 0x80, 0x2E, 0x18, 0x00, 0x80,
 600:BMI088/Src/bmi08a.c **** 0x2E, 0x18, 0x00, 0x80, 0x2E, 0x18, 0x00, 0x80, 0x2E, 0x18, 0x00,
 601:BMI088/Src/bmi08a.c **** 0x80, 0x2E, 0x18, 0x00, 0x80, 0x2E, 0x18, 0x00, 0x80, 0x2E, 0x18,
 602:BMI088/Src/bmi08a.c **** 0x00, 0x80, 0x2E, 0x18, 0x00, 0x80, 0x2E, 0x18, 0x00, 0x80, 0x2E,
ARM GAS  C:\Users\Lenovo\AppData\Local\Temp\ccWML6Ej.s 			page 12


 603:BMI088/Src/bmi08a.c **** 0x18, 0x00, 0x80, 0x2E, 0x18, 0x00, 0x80, 0x2E, 0x18, 0x00, 0x80,
 604:BMI088/Src/bmi08a.c **** 0x2E, 0x18, 0x00, 0x80, 0x2E, 0x18, 0x00, 0x80, 0x2E, 0x18, 0x00,
 605:BMI088/Src/bmi08a.c **** 0x80, 0x2E, 0x18, 0x00, 0x80, 0x2E, 0x18, 0x00, 0x80, 0x2E, 0x18,
 606:BMI088/Src/bmi08a.c **** 0x00, 0x80, 0x2E, 0x18, 0x00, 0x80, 0x2E, 0x18, 0x00, 0x80, 0x2E,
 607:BMI088/Src/bmi08a.c **** 0x18, 0x00, 0x80, 0x2E, 0x18, 0x00, 0x80, 0x2E, 0x18, 0x00, 0x80,
 608:BMI088/Src/bmi08a.c **** 0x2E, 0x18, 0x00, 0x80, 0x2E, 0x18, 0x00, 0x80, 0x2E, 0x18, 0x00,
 609:BMI088/Src/bmi08a.c **** 0x80, 0x2E, 0x18, 0x00, 0x80, 0x2E, 0x18, 0x00, 0x80, 0x2E, 0x18,
 610:BMI088/Src/bmi08a.c **** 0x00, 0x80, 0x2E, 0x18, 0x00, 0x80, 0x2E, 0x18, 0x00, 0x80, 0x2E,
 611:BMI088/Src/bmi08a.c **** 0x18, 0x00, 0x80, 0x2E, 0x18, 0x00, 0x80, 0x2E, 0x18, 0x00, 0x80,
 612:BMI088/Src/bmi08a.c **** 0x2E, 0x18, 0x00, 0x80, 0x2E, 0x18, 0x00, 0x80, 0x2E, 0x18, 0x00,
 613:BMI088/Src/bmi08a.c **** 0x80, 0x2E, 0x18, 0x00, 0x80, 0x2E, 0x18, 0x00, 0x80, 0x2E, 0x18,
 614:BMI088/Src/bmi08a.c **** 0x00, 0x80, 0x2E, 0x18, 0x00, 0x80, 0x2E, 0x18, 0x00, 0x80, 0x2E,
 615:BMI088/Src/bmi08a.c **** 0x18, 0x00, 0x80, 0x2E, 0x18, 0x00, 0x80, 0x2E, 0x18, 0x00, 0x80,
 616:BMI088/Src/bmi08a.c **** 0x2E, 0x18, 0x00, 0x80, 0x2E, 0x18, 0x00, 0x80, 0x2E, 0x18, 0x00,
 617:BMI088/Src/bmi08a.c **** 0x80, 0x2E, 0x18, 0x00, 0x80, 0x2E, 0x18, 0x00, 0x80, 0x2E, 0x18,
 618:BMI088/Src/bmi08a.c **** 0x00, 0x80, 0x2E, 0x18, 0x00, 0x80, 0x2E, 0x18, 0x00, 0x80, 0x2E,
 619:BMI088/Src/bmi08a.c **** 0x18, 0x00, 0x80, 0x2E, 0x18, 0x00, 0x80, 0x2E, 0x18, 0x00, 0x80,
 620:BMI088/Src/bmi08a.c **** 0x2E, 0x18, 0x00, 0x80, 0x2E, 0x18, 0x00, 0x80, 0x2E, 0x18, 0x00,
 621:BMI088/Src/bmi08a.c **** 0x80, 0x2E, 0x18, 0x00, 0x80, 0x2E, 0x18, 0x00, 0x80, 0x2E, 0x18,
 622:BMI088/Src/bmi08a.c **** 0x00, 0x80, 0x2E, 0x18, 0x00, 0x80, 0x2E, 0x18, 0x00, 0x80, 0x2E,
 623:BMI088/Src/bmi08a.c **** 0x18, 0x00, 0x80, 0x2E, 0x18, 0x00, 0x80, 0x2E, 0x18, 0x00, 0x80,
 624:BMI088/Src/bmi08a.c **** 0x2E, 0x18, 0x00, 0x80, 0x2E, 0x18, 0x00, 0x80, 0x2E, 0x18, 0x00,
 625:BMI088/Src/bmi08a.c **** 0x80, 0x2E, 0x18, 0x00, 0x80, 0x2E, 0x18, 0x00, 0x80, 0x2E, 0x18,
 626:BMI088/Src/bmi08a.c **** 0x00, 0x80, 0x2E, 0x18, 0x00, 0x80, 0x2E, 0x18, 0x00, 0x80, 0x2E,
 627:BMI088/Src/bmi08a.c **** 0x18, 0x00, 0x80, 0x2E, 0x18, 0x00, 0x80, 0x2E, 0x18, 0x00, 0x80,
 628:BMI088/Src/bmi08a.c **** 0x2E, 0x18, 0x00, 0x80, 0x2E, 0x18, 0x00, 0x80, 0x2E, 0x18, 0x00,
 629:BMI088/Src/bmi08a.c **** 0x80, 0x2E, 0x18, 0x00, 0x80, 0x2E, 0x18, 0x00, 0x80, 0x2E, 0x18,
 630:BMI088/Src/bmi08a.c **** 0x00, 0x80, 0x2E, 0x18, 0x00, 0x80, 0x2E, 0x18, 0x00, 0x80, 0x2E,
 631:BMI088/Src/bmi08a.c **** 0x18, 0x00, 0x80, 0x2E, 0x18, 0x00, 0x80, 0x2E, 0x18, 0x00, 0x80,
 632:BMI088/Src/bmi08a.c **** 0x2E, 0x18, 0x00, 0x80, 0x2E, 0x18, 0x00, 0x80, 0x2E, 0x18, 0x00,
 633:BMI088/Src/bmi08a.c **** 0x80, 0x2E, 0x18, 0x00, 0x80, 0x2E, 0x18, 0x00, 0x80, 0x2E, 0x18,
 634:BMI088/Src/bmi08a.c **** 0x00, 0x80, 0x2E, 0x18, 0x00, 0x80, 0x2E, 0x18, 0x00, 0x80, 0x2E,
 635:BMI088/Src/bmi08a.c **** 0x18, 0x00, 0x80, 0x2E, 0x18, 0x00, 0x80, 0x2E, 0x18, 0x00, 0x80,
 636:BMI088/Src/bmi08a.c **** 0x2E, 0x18, 0x00, 0x80, 0x2E, 0x18, 0x00, 0x80, 0x2E, 0x18, 0x00,
 637:BMI088/Src/bmi08a.c **** 0x80, 0x2E, 0x18, 0x00, 0xFD, 0x2D
 638:BMI088/Src/bmi08a.c **** };
 639:BMI088/Src/bmi08a.c **** /****************************************************************************/
 640:BMI088/Src/bmi08a.c **** /*! Static Function Declarations
 641:BMI088/Src/bmi08a.c ****  ****************************************************************************/
 642:BMI088/Src/bmi08a.c **** 
 643:BMI088/Src/bmi08a.c **** /*!
 644:BMI088/Src/bmi08a.c ****  * @brief This API is used to validate the device structure pointer for
 645:BMI088/Src/bmi08a.c ****  * null conditions.
 646:BMI088/Src/bmi08a.c ****  *
 647:BMI088/Src/bmi08a.c ****  * @param[in] dev : Structure instance of bmi08x_dev.
 648:BMI088/Src/bmi08a.c ****  *
 649:BMI088/Src/bmi08a.c ****  * @return Result of API execution status
 650:BMI088/Src/bmi08a.c ****  * @retval zero -> Success / -ve value -> Error
 651:BMI088/Src/bmi08a.c ****  */
 652:BMI088/Src/bmi08a.c **** static int8_t null_ptr_check(const struct bmi08x_dev *dev);
 653:BMI088/Src/bmi08a.c **** 
 654:BMI088/Src/bmi08a.c **** /*!
 655:BMI088/Src/bmi08a.c ****  *  @brief This API reads the data from the given register address of accel sensor.
 656:BMI088/Src/bmi08a.c ****  *
 657:BMI088/Src/bmi08a.c ****  *  @param[in] reg_addr  : Register address from where the data to be read
 658:BMI088/Src/bmi08a.c ****  *  @param[out] reg_data : Pointer to data buffer to store the read data.
 659:BMI088/Src/bmi08a.c ****  *  @param[in] len       : No. of bytes of data to be read.
ARM GAS  C:\Users\Lenovo\AppData\Local\Temp\ccWML6Ej.s 			page 13


 660:BMI088/Src/bmi08a.c ****  *  @param[in] dev       : Structure instance of bmi08x_dev.
 661:BMI088/Src/bmi08a.c ****  *
 662:BMI088/Src/bmi08a.c ****  *  @return Result of API execution status
 663:BMI088/Src/bmi08a.c ****  *  @retval zero -> Success / -ve value -> Error
 664:BMI088/Src/bmi08a.c ****  */
 665:BMI088/Src/bmi08a.c **** static int8_t get_regs(uint8_t reg_addr, uint8_t *reg_data, uint16_t len, const struct bmi08x_dev *
 666:BMI088/Src/bmi08a.c **** 
 667:BMI088/Src/bmi08a.c **** /*!
 668:BMI088/Src/bmi08a.c ****  *  @brief This API writes the given data to the register address
 669:BMI088/Src/bmi08a.c ****  *  of accel sensor.
 670:BMI088/Src/bmi08a.c ****  *
 671:BMI088/Src/bmi08a.c ****  *  @param[in] reg_addr  : Register address to where the data to be written.
 672:BMI088/Src/bmi08a.c ****  *  @param[in] reg_data  : Pointer to data buffer which is to be written
 673:BMI088/Src/bmi08a.c ****  *  in the sensor.
 674:BMI088/Src/bmi08a.c ****  *  @param[in] len       : No. of bytes of data to write.
 675:BMI088/Src/bmi08a.c ****  *  @param[in] dev       : Structure instance of bmi08x_dev.
 676:BMI088/Src/bmi08a.c ****  *
 677:BMI088/Src/bmi08a.c ****  *  @return Result of API execution status
 678:BMI088/Src/bmi08a.c ****  *  @retval zero -> Success / -ve value -> Error
 679:BMI088/Src/bmi08a.c ****  */
 680:BMI088/Src/bmi08a.c **** static int8_t set_regs(uint8_t reg_addr, uint8_t *reg_data, uint16_t len, const struct bmi08x_dev *
 681:BMI088/Src/bmi08a.c **** 
 682:BMI088/Src/bmi08a.c **** /*!
 683:BMI088/Src/bmi08a.c ****  * @brief This API configures the pins which fire the
 684:BMI088/Src/bmi08a.c ****  * interrupt signal when any interrupt occurs.
 685:BMI088/Src/bmi08a.c ****  *
 686:BMI088/Src/bmi08a.c ****  * @param[in] int_config  : Structure instance of bmi08x_int_cfg.
 687:BMI088/Src/bmi08a.c ****  * @param[in] dev         : Structure instance of bmi08x_dev.
 688:BMI088/Src/bmi08a.c ****  *
 689:BMI088/Src/bmi08a.c ****  * @return Result of API execution status
 690:BMI088/Src/bmi08a.c ****  * @retval zero -> Success / -ve value -> Error
 691:BMI088/Src/bmi08a.c ****  */
 692:BMI088/Src/bmi08a.c **** static int8_t set_int_pin_config(const struct bmi08x_accel_int_channel_cfg *int_config, const struc
 693:BMI088/Src/bmi08a.c **** 
 694:BMI088/Src/bmi08a.c **** /*!
 695:BMI088/Src/bmi08a.c ****  * @brief This API sets the data ready interrupt for accel sensor
 696:BMI088/Src/bmi08a.c ****  *
 697:BMI088/Src/bmi08a.c ****  * @param[in] int_config  : Structure instance of bmi08x_accel_int_channel_cfg.
 698:BMI088/Src/bmi08a.c ****  * @param[in] dev         : Structure instance of bmi08x_dev.
 699:BMI088/Src/bmi08a.c ****  *
 700:BMI088/Src/bmi08a.c ****  * @return Result of API execution status
 701:BMI088/Src/bmi08a.c ****  * @retval zero -> Success / -ve value -> Error
 702:BMI088/Src/bmi08a.c ****  */
 703:BMI088/Src/bmi08a.c **** static int8_t set_accel_data_ready_int(const struct bmi08x_accel_int_channel_cfg *int_config,
 704:BMI088/Src/bmi08a.c **** 	const struct bmi08x_dev *dev);
 705:BMI088/Src/bmi08a.c **** 
 706:BMI088/Src/bmi08a.c **** /*!
 707:BMI088/Src/bmi08a.c ****  * @brief This API sets the synchronized data ready interrupt for accel sensor
 708:BMI088/Src/bmi08a.c ****  *
 709:BMI088/Src/bmi08a.c ****  * @param[in] int_config  : Structure instance of bmi08x_accel_int_channel_cfg.
 710:BMI088/Src/bmi08a.c ****  * @param[in] dev         : Structure instance of bmi08x_dev.
 711:BMI088/Src/bmi08a.c ****  *
 712:BMI088/Src/bmi08a.c ****  * @return Result of API execution status
 713:BMI088/Src/bmi08a.c ****  * @retval zero -> Success / -ve value -> Error
 714:BMI088/Src/bmi08a.c ****  */
 715:BMI088/Src/bmi08a.c **** static int8_t set_accel_sync_data_ready_int(const struct bmi08x_accel_int_channel_cfg *int_config,
 716:BMI088/Src/bmi08a.c **** 	const struct bmi08x_dev *dev);
ARM GAS  C:\Users\Lenovo\AppData\Local\Temp\ccWML6Ej.s 			page 14


 717:BMI088/Src/bmi08a.c **** 
 718:BMI088/Src/bmi08a.c **** /*!
 719:BMI088/Src/bmi08a.c ****  * @brief This API configures the given interrupt channel as input for accel sensor
 720:BMI088/Src/bmi08a.c ****  *
 721:BMI088/Src/bmi08a.c ****  * @param[in] int_config  : Structure instance of bmi08x_accel_int_channel_cfg.
 722:BMI088/Src/bmi08a.c ****  * @param[in] dev         : Structure instance of bmi08x_dev.
 723:BMI088/Src/bmi08a.c ****  *
 724:BMI088/Src/bmi08a.c ****  * @return Result of API execution status
 725:BMI088/Src/bmi08a.c ****  * @retval zero -> Success / -ve value -> Error
 726:BMI088/Src/bmi08a.c ****  */
 727:BMI088/Src/bmi08a.c **** static int8_t set_accel_sync_input(const struct bmi08x_accel_int_channel_cfg *int_config, const str
 728:BMI088/Src/bmi08a.c **** 
 729:BMI088/Src/bmi08a.c **** /*!
 730:BMI088/Src/bmi08a.c ****  * @brief This API sets the anymotion interrupt for accel sensor
 731:BMI088/Src/bmi08a.c ****  *
 732:BMI088/Src/bmi08a.c ****  * @param[in] int_config  : Structure instance of bmi08x_accel_int_channel_cfg.
 733:BMI088/Src/bmi08a.c ****  * @param[in] dev         : Structure instance of bmi08x_dev.
 734:BMI088/Src/bmi08a.c ****  *
 735:BMI088/Src/bmi08a.c ****  * @return Result of API execution status
 736:BMI088/Src/bmi08a.c ****  * @retval zero -> Success / -ve value -> Error
 737:BMI088/Src/bmi08a.c ****  */
 738:BMI088/Src/bmi08a.c **** static int8_t set_accel_anymotion_int(const struct bmi08x_accel_int_channel_cfg *int_config,
 739:BMI088/Src/bmi08a.c **** 	const struct bmi08x_dev *dev);
 740:BMI088/Src/bmi08a.c **** 
 741:BMI088/Src/bmi08a.c **** /*!
 742:BMI088/Src/bmi08a.c ****  * @brief This API writes the config stream data in memory using burst mode
 743:BMI088/Src/bmi08a.c ****  *
 744:BMI088/Src/bmi08a.c ****  * @param[in] stream_data : Pointer to store data of 32 bytes
 745:BMI088/Src/bmi08a.c ****  * @param[in] index       : Represents value in multiple of 32 bytes
 746:BMI088/Src/bmi08a.c ****  * @param[in] dev         : Structure instance of bmi08x_dev.
 747:BMI088/Src/bmi08a.c ****  *
 748:BMI088/Src/bmi08a.c ****  * @return Result of API execution status
 749:BMI088/Src/bmi08a.c ****  * @retval zero -> Success / -ve value -> Error
 750:BMI088/Src/bmi08a.c ****  */
 751:BMI088/Src/bmi08a.c **** static int8_t stream_transfer_write(const uint8_t *stream_data, uint16_t index, const struct bmi08x
 752:BMI088/Src/bmi08a.c **** 
 753:BMI088/Src/bmi08a.c **** /*!
 754:BMI088/Src/bmi08a.c ****  * @brief This API performs the pre-requisites needed to perform the self test
 755:BMI088/Src/bmi08a.c ****  *
 756:BMI088/Src/bmi08a.c ****  * @param[in] dev : structure instance of bmi08x_dev
 757:BMI088/Src/bmi08a.c ****  *
 758:BMI088/Src/bmi08a.c ****  * @return Result of API execution status
 759:BMI088/Src/bmi08a.c ****  * @retval zero -> Success  / -ve value -> Error
 760:BMI088/Src/bmi08a.c ****  */
 761:BMI088/Src/bmi08a.c **** static int8_t enable_self_test(struct bmi08x_dev *dev);
 762:BMI088/Src/bmi08a.c **** 
 763:BMI088/Src/bmi08a.c **** /*!
 764:BMI088/Src/bmi08a.c ****  * @brief This API reads the accel data with the positive excitation
 765:BMI088/Src/bmi08a.c ****  *
 766:BMI088/Src/bmi08a.c ****  * @param[out] accel_pos : Structure pointer to store accel data
 767:BMI088/Src/bmi08a.c ****  *                        for positive excitation
 768:BMI088/Src/bmi08a.c ****  * @param[in] dev   : structure instance of bmi08x_dev
 769:BMI088/Src/bmi08a.c ****  *
 770:BMI088/Src/bmi08a.c ****  * @return Result of API execution status
 771:BMI088/Src/bmi08a.c ****  * @retval zero -> Success  / -ve value -> Error
 772:BMI088/Src/bmi08a.c ****  */
 773:BMI088/Src/bmi08a.c **** static int8_t positive_excited_accel(struct bmi08x_sensor_data *accel_pos, const struct bmi08x_dev 
ARM GAS  C:\Users\Lenovo\AppData\Local\Temp\ccWML6Ej.s 			page 15


 774:BMI088/Src/bmi08a.c **** 
 775:BMI088/Src/bmi08a.c **** /*!
 776:BMI088/Src/bmi08a.c ****  * @brief This API reads the accel data with the negative excitation
 777:BMI088/Src/bmi08a.c ****  *
 778:BMI088/Src/bmi08a.c ****  * @param[out] accel_neg : Structure pointer to store accel data
 779:BMI088/Src/bmi08a.c ****  *                        for negative excitation
 780:BMI088/Src/bmi08a.c ****  * @param[in] dev   : structure instance of bmi08x_dev
 781:BMI088/Src/bmi08a.c ****  *
 782:BMI088/Src/bmi08a.c ****  * @return Result of API execution status
 783:BMI088/Src/bmi08a.c ****  * @retval zero -> Success  / -ve value -> Error
 784:BMI088/Src/bmi08a.c ****  */
 785:BMI088/Src/bmi08a.c **** static int8_t negative_excited_accel(struct bmi08x_sensor_data *accel_neg, const struct bmi08x_dev 
 786:BMI088/Src/bmi08a.c **** 
 787:BMI088/Src/bmi08a.c **** /*!
 788:BMI088/Src/bmi08a.c ****  * @brief This API validates the self test results
 789:BMI088/Src/bmi08a.c ****  *
 790:BMI088/Src/bmi08a.c ****  * @param[in] accel_pos : Structure pointer to store accel data
 791:BMI088/Src/bmi08a.c ****  *                        for positive excitation
 792:BMI088/Src/bmi08a.c ****  * @param[in] accel_neg : Structure pointer to store accel data
 793:BMI088/Src/bmi08a.c ****  *                        for negative excitation
 794:BMI088/Src/bmi08a.c ****  *
 795:BMI088/Src/bmi08a.c ****  * @return Result of API execution status
 796:BMI088/Src/bmi08a.c ****  * @retval zero -> Success / +ve value -> Self test fail
 797:BMI088/Src/bmi08a.c ****  */
 798:BMI088/Src/bmi08a.c **** static int8_t validate_accel_self_test(const struct bmi08x_sensor_data *accel_pos,
 799:BMI088/Src/bmi08a.c **** 		const struct bmi08x_sensor_data *accel_neg);
 800:BMI088/Src/bmi08a.c **** 
 801:BMI088/Src/bmi08a.c **** /*!
 802:BMI088/Src/bmi08a.c ****  * @brief This API converts lsb value of axes to mg for self-test
 803:BMI088/Src/bmi08a.c ****  *
 804:BMI088/Src/bmi08a.c ****  * @param[in] accel_data_diff     : Pointer variable used to pass accel difference
 805:BMI088/Src/bmi08a.c ****  * values in g
 806:BMI088/Src/bmi08a.c ****  *
 807:BMI088/Src/bmi08a.c ****  * @param[out] accel_data_diff_mg : Pointer variable used to store accel
 808:BMI088/Src/bmi08a.c ****  * difference values in mg
 809:BMI088/Src/bmi08a.c ****  *
 810:BMI088/Src/bmi08a.c ****  * @return None
 811:BMI088/Src/bmi08a.c ****  */
 812:BMI088/Src/bmi08a.c **** static void convert_lsb_g(const struct selftest_delta_limit *accel_data_diff,
 813:BMI088/Src/bmi08a.c **** 		struct selftest_delta_limit *accel_data_diff_mg);
 814:BMI088/Src/bmi08a.c **** 
 815:BMI088/Src/bmi08a.c **** /****************************************************************************/
 816:BMI088/Src/bmi08a.c **** /**\name        Extern Declarations
 817:BMI088/Src/bmi08a.c ****  ****************************************************************************/
 818:BMI088/Src/bmi08a.c **** 
 819:BMI088/Src/bmi08a.c **** /****************************************************************************/
 820:BMI088/Src/bmi08a.c **** /**\name        Globals
 821:BMI088/Src/bmi08a.c ****  ****************************************************************************/
 822:BMI088/Src/bmi08a.c **** 
 823:BMI088/Src/bmi08a.c **** /****************************************************************************/
 824:BMI088/Src/bmi08a.c **** /**\name        Function definitions
 825:BMI088/Src/bmi08a.c ****  ****************************************************************************/
 826:BMI088/Src/bmi08a.c **** /*!
 827:BMI088/Src/bmi08a.c ****  *  @brief This API is the entry point for accel sensor.
 828:BMI088/Src/bmi08a.c ****  *  It performs the selection of I2C/SPI read mechanism according to the
 829:BMI088/Src/bmi08a.c ****  *  selected interface and reads the chip-id of accel sensor.
 830:BMI088/Src/bmi08a.c ****  */
ARM GAS  C:\Users\Lenovo\AppData\Local\Temp\ccWML6Ej.s 			page 16


 831:BMI088/Src/bmi08a.c **** int8_t bmi08a_init(struct bmi08x_dev *dev)
 832:BMI088/Src/bmi08a.c **** {
 833:BMI088/Src/bmi08a.c **** 	int8_t rslt;
 834:BMI088/Src/bmi08a.c **** 	uint8_t chip_id = 0;
 835:BMI088/Src/bmi08a.c **** 	/* Check for null pointer in the device structure */
 836:BMI088/Src/bmi08a.c **** 	rslt = null_ptr_check(dev);
 837:BMI088/Src/bmi08a.c **** 	/* Proceed if null check is fine */
 838:BMI088/Src/bmi08a.c **** 	if (rslt == BMI08X_OK) {
 839:BMI088/Src/bmi08a.c **** 		if (dev->intf == BMI08X_SPI_INTF) {
 840:BMI088/Src/bmi08a.c **** 			/* Set dummy byte in case of SPI interface */
 841:BMI088/Src/bmi08a.c **** 			dev->dummy_byte = BMI08X_ENABLE;
 842:BMI088/Src/bmi08a.c **** 			/* Dummy read of Chip-ID in SPI mode */
 843:BMI088/Src/bmi08a.c **** 			rslt = get_regs(BMI08X_ACCEL_CHIP_ID_REG, &chip_id, 1, dev);
 844:BMI088/Src/bmi08a.c **** 		} else {
 845:BMI088/Src/bmi08a.c **** 			/* Make dummy byte 0 in case of I2C interface */
 846:BMI088/Src/bmi08a.c **** 			dev->dummy_byte = BMI08X_DISABLE;
 847:BMI088/Src/bmi08a.c **** 		}
 848:BMI088/Src/bmi08a.c **** 		if (rslt == BMI08X_OK) {
 849:BMI088/Src/bmi08a.c **** 			rslt = get_regs(BMI08X_ACCEL_CHIP_ID_REG, &chip_id, 1, dev);
 850:BMI088/Src/bmi08a.c **** 
 851:BMI088/Src/bmi08a.c **** 			if (rslt == BMI08X_OK) {
 852:BMI088/Src/bmi08a.c **** 				/* Check for chip id validity */
 853:BMI088/Src/bmi08a.c **** 				if (chip_id == BMI08X_ACCEL_CHIP_ID) {
 854:BMI088/Src/bmi08a.c **** 					/* Store the chip ID in dev structure */
 855:BMI088/Src/bmi08a.c **** 					dev->accel_chip_id = chip_id;
 856:BMI088/Src/bmi08a.c **** 				} else {
 857:BMI088/Src/bmi08a.c **** 					rslt = BMI08X_E_DEV_NOT_FOUND;
 858:BMI088/Src/bmi08a.c **** 				}
 859:BMI088/Src/bmi08a.c **** 			}
 860:BMI088/Src/bmi08a.c **** 		}
 861:BMI088/Src/bmi08a.c **** 	}
 862:BMI088/Src/bmi08a.c **** 
 863:BMI088/Src/bmi08a.c **** 	return rslt;
 864:BMI088/Src/bmi08a.c **** }
 865:BMI088/Src/bmi08a.c **** 
 866:BMI088/Src/bmi08a.c **** /*!
 867:BMI088/Src/bmi08a.c ****  *  @brief This API is used to write the binary configuration in the sensor.
 868:BMI088/Src/bmi08a.c ****  */
 869:BMI088/Src/bmi08a.c **** int8_t bmi08a_write_config_file(const struct bmi08x_dev *dev)
 870:BMI088/Src/bmi08a.c **** {
 871:BMI088/Src/bmi08a.c **** 	int8_t rslt;
 872:BMI088/Src/bmi08a.c **** 	/* Config loading disable*/
 873:BMI088/Src/bmi08a.c **** 	uint8_t config_load = BMI08X_DISABLE;
 874:BMI088/Src/bmi08a.c **** 	uint8_t current_acc_pwr_ctrl = 0;
 875:BMI088/Src/bmi08a.c **** 	uint16_t index = 0;
 876:BMI088/Src/bmi08a.c **** 	uint8_t reg_data = 0;
 877:BMI088/Src/bmi08a.c **** 
 878:BMI088/Src/bmi08a.c **** 	/* Check for null pointer in the device structure */
 879:BMI088/Src/bmi08a.c **** 	rslt = null_ptr_check(dev);
 880:BMI088/Src/bmi08a.c **** 	/* Check if config file pointer is not null */
 881:BMI088/Src/bmi08a.c **** 	if ((rslt == BMI08X_OK) && (dev->config_file_ptr != NULL)) {
 882:BMI088/Src/bmi08a.c **** 
 883:BMI088/Src/bmi08a.c **** 		/* Check whether the read/write length is valid */
 884:BMI088/Src/bmi08a.c **** 		if (dev->read_write_len > 0) {
 885:BMI088/Src/bmi08a.c **** 			/* deactivate accel, otherwise post processing can not be enabled safely */
 886:BMI088/Src/bmi08a.c **** 			rslt = get_regs(BMI08X_ACCEL_PWR_CTRL_REG, &current_acc_pwr_ctrl, 1, dev);
 887:BMI088/Src/bmi08a.c **** 			if (rslt != BMI08X_OK)
ARM GAS  C:\Users\Lenovo\AppData\Local\Temp\ccWML6Ej.s 			page 17


 888:BMI088/Src/bmi08a.c **** 				return rslt;
 889:BMI088/Src/bmi08a.c **** 
 890:BMI088/Src/bmi08a.c **** 			rslt = set_regs(BMI08X_ACCEL_PWR_CTRL_REG, &config_load, 1, dev);
 891:BMI088/Src/bmi08a.c **** 			if (rslt == BMI08X_OK) {
 892:BMI088/Src/bmi08a.c **** 				/*delay required to switch power modes*/
 893:BMI088/Src/bmi08a.c **** 				dev->delay_ms(BMI08X_POWER_CONFIG_DELAY);
 894:BMI088/Src/bmi08a.c **** 			} else {
 895:BMI088/Src/bmi08a.c **** 				return rslt;
 896:BMI088/Src/bmi08a.c **** 			}
 897:BMI088/Src/bmi08a.c **** 
 898:BMI088/Src/bmi08a.c **** 			/* Disable config loading*/
 899:BMI088/Src/bmi08a.c **** 			rslt = set_regs(BMI08X_ACCEL_INIT_CTRL_REG, &config_load, 1, dev);
 900:BMI088/Src/bmi08a.c **** 
 901:BMI088/Src/bmi08a.c **** 			if (rslt == BMI08X_OK) {
 902:BMI088/Src/bmi08a.c **** 				for (index = 0; index < BMI08X_CONFIG_STREAM_SIZE;
 903:BMI088/Src/bmi08a.c **** 						index += dev->read_write_len) {
 904:BMI088/Src/bmi08a.c **** 					/* Write the config stream */
 905:BMI088/Src/bmi08a.c **** 					rslt = stream_transfer_write((dev->config_file_ptr + index),
 906:BMI088/Src/bmi08a.c **** 												index, dev);
 907:BMI088/Src/bmi08a.c **** 				}
 908:BMI088/Src/bmi08a.c **** 				if (rslt == BMI08X_OK) {
 909:BMI088/Src/bmi08a.c **** 					/* Enable config loading and FIFO mode */
 910:BMI088/Src/bmi08a.c **** 					config_load = BMI08X_ENABLE;
 911:BMI088/Src/bmi08a.c **** 
 912:BMI088/Src/bmi08a.c **** 					rslt = set_regs(BMI08X_ACCEL_INIT_CTRL_REG, &config_load, 1, dev);
 913:BMI088/Src/bmi08a.c **** 
 914:BMI088/Src/bmi08a.c **** 					if (rslt == BMI08X_OK) {
 915:BMI088/Src/bmi08a.c **** 						/* Wait till ASIC is initialized. Refer the data-sheet
 916:BMI088/Src/bmi08a.c **** 						 * for more information */
 917:BMI088/Src/bmi08a.c **** 						dev->delay_ms(BMI08X_ASIC_INIT_TIME_MS);
 918:BMI088/Src/bmi08a.c **** 
 919:BMI088/Src/bmi08a.c **** 						/* Check for config initialization status (1 = OK)*/
 920:BMI088/Src/bmi08a.c **** 						rslt = get_regs(BMI08X_ACCEL_INTERNAL_STAT_REG, &reg_data, 1, dev);
 921:BMI088/Src/bmi08a.c **** 					}
 922:BMI088/Src/bmi08a.c **** 					if (rslt == BMI08X_OK && reg_data != 1) {
 923:BMI088/Src/bmi08a.c **** 						rslt = BMI08X_E_CONFIG_STREAM_ERROR;
 924:BMI088/Src/bmi08a.c **** 					} else {
 925:BMI088/Src/bmi08a.c **** 						/* reactivate accel */
 926:BMI088/Src/bmi08a.c **** 						rslt = set_regs(BMI08X_ACCEL_PWR_CTRL_REG,
 927:BMI088/Src/bmi08a.c **** 							&current_acc_pwr_ctrl, 1, dev);
 928:BMI088/Src/bmi08a.c **** 					if (rslt == BMI08X_OK) {
 929:BMI088/Src/bmi08a.c **** 						/*delay required to switch power modes*/
 930:BMI088/Src/bmi08a.c **** 						dev->delay_ms(BMI08X_POWER_CONFIG_DELAY);
 931:BMI088/Src/bmi08a.c **** 						}
 932:BMI088/Src/bmi08a.c **** 					}
 933:BMI088/Src/bmi08a.c **** 				}
 934:BMI088/Src/bmi08a.c **** 			}
 935:BMI088/Src/bmi08a.c **** 		} else {
 936:BMI088/Src/bmi08a.c **** 			rslt = BMI08X_E_RD_WR_LENGTH_INVALID;
 937:BMI088/Src/bmi08a.c **** 		}
 938:BMI088/Src/bmi08a.c **** 	} else {
 939:BMI088/Src/bmi08a.c **** 		rslt = BMI08X_E_NULL_PTR;
 940:BMI088/Src/bmi08a.c **** 	}
 941:BMI088/Src/bmi08a.c **** 
 942:BMI088/Src/bmi08a.c **** 	return rslt;
 943:BMI088/Src/bmi08a.c **** }
 944:BMI088/Src/bmi08a.c **** 
ARM GAS  C:\Users\Lenovo\AppData\Local\Temp\ccWML6Ej.s 			page 18


 945:BMI088/Src/bmi08a.c **** /*!
 946:BMI088/Src/bmi08a.c ****  *  @brief This API writes the feature configuration to the accel sensor.
 947:BMI088/Src/bmi08a.c ****  */
 948:BMI088/Src/bmi08a.c **** int8_t bmi08a_write_feature_config(uint8_t reg_addr, const uint16_t *reg_data, uint8_t len,
 949:BMI088/Src/bmi08a.c **** 	const struct bmi08x_dev *dev)
 950:BMI088/Src/bmi08a.c **** {
 951:BMI088/Src/bmi08a.c **** 	int8_t rslt;
 952:BMI088/Src/bmi08a.c **** 	/* Check for null pointer in the device structure*/
 953:BMI088/Src/bmi08a.c **** 	rslt = null_ptr_check(dev);
 954:BMI088/Src/bmi08a.c **** 
 955:BMI088/Src/bmi08a.c **** 	uint16_t read_length = (reg_addr*2) + (len*2);
 956:BMI088/Src/bmi08a.c **** 	uint8_t feature_data[read_length];
 957:BMI088/Src/bmi08a.c **** 
 958:BMI088/Src/bmi08a.c **** 	/* Proceed if null check is fine */
 959:BMI088/Src/bmi08a.c **** 	if (rslt == BMI08X_OK) {
 960:BMI088/Src/bmi08a.c **** 		/* Read feature space up to the given feature position */
 961:BMI088/Src/bmi08a.c **** 		rslt = bmi08a_get_regs(BMI08X_ACCEL_FEATURE_CFG_REG, &feature_data[0], read_length, dev);
 962:BMI088/Src/bmi08a.c **** 
 963:BMI088/Src/bmi08a.c **** 		if (rslt == BMI08X_OK) {
 964:BMI088/Src/bmi08a.c **** 			/* Apply the given feature config. */
 965:BMI088/Src/bmi08a.c **** 			for (int i = 0; i < len; ++i) {
 966:BMI088/Src/bmi08a.c **** 				/* Be careful: the feature config space is 16bit aligned! */
 967:BMI088/Src/bmi08a.c **** 				feature_data[(reg_addr*2) + (i*2)] = reg_data[i]&0xFF;
 968:BMI088/Src/bmi08a.c **** 				feature_data[(reg_addr*2) + (i*2) + 1] = reg_data[i]>>8;
 969:BMI088/Src/bmi08a.c **** 			}
 970:BMI088/Src/bmi08a.c **** 
 971:BMI088/Src/bmi08a.c **** 			/* Write back updated feature space */
 972:BMI088/Src/bmi08a.c **** 			rslt = bmi08a_set_regs(BMI08X_ACCEL_FEATURE_CFG_REG, &feature_data[0], read_length, dev);
 973:BMI088/Src/bmi08a.c **** 		}
 974:BMI088/Src/bmi08a.c **** 	}
 975:BMI088/Src/bmi08a.c **** 
 976:BMI088/Src/bmi08a.c **** 	return rslt;
 977:BMI088/Src/bmi08a.c **** }
 978:BMI088/Src/bmi08a.c **** 
 979:BMI088/Src/bmi08a.c **** /*!
 980:BMI088/Src/bmi08a.c ****  *  @brief This API reads the data from the given register address of accel sensor.
 981:BMI088/Src/bmi08a.c ****  */
 982:BMI088/Src/bmi08a.c **** int8_t bmi08a_get_regs(uint8_t reg_addr, uint8_t *reg_data, uint16_t len, const struct bmi08x_dev *
 983:BMI088/Src/bmi08a.c **** {
 984:BMI088/Src/bmi08a.c **** 	int8_t rslt;
 985:BMI088/Src/bmi08a.c **** 	/* Check for null pointer in the device structure*/
 986:BMI088/Src/bmi08a.c **** 	rslt = null_ptr_check(dev);
 987:BMI088/Src/bmi08a.c **** 
 988:BMI088/Src/bmi08a.c **** 	/* Proceed if null check is fine */
 989:BMI088/Src/bmi08a.c **** 	if ((rslt == BMI08X_OK) && (reg_data != NULL)) {
 990:BMI088/Src/bmi08a.c **** 		if (len > 0) {
 991:BMI088/Src/bmi08a.c **** 			/* Reading from the register */
 992:BMI088/Src/bmi08a.c **** 			rslt = get_regs(reg_addr, reg_data, len, dev);
 993:BMI088/Src/bmi08a.c **** 		} else {
 994:BMI088/Src/bmi08a.c **** 			rslt = BMI08X_E_RD_WR_LENGTH_INVALID;
 995:BMI088/Src/bmi08a.c **** 		}
 996:BMI088/Src/bmi08a.c **** 	} else {
 997:BMI088/Src/bmi08a.c **** 		rslt = BMI08X_E_NULL_PTR;
 998:BMI088/Src/bmi08a.c **** 	}
 999:BMI088/Src/bmi08a.c **** 
1000:BMI088/Src/bmi08a.c **** 	return rslt;
1001:BMI088/Src/bmi08a.c **** }
ARM GAS  C:\Users\Lenovo\AppData\Local\Temp\ccWML6Ej.s 			page 19


1002:BMI088/Src/bmi08a.c **** 
1003:BMI088/Src/bmi08a.c **** /*!
1004:BMI088/Src/bmi08a.c ****  *  @brief This API writes the given data to the register address
1005:BMI088/Src/bmi08a.c ****  *  of accel sensor.
1006:BMI088/Src/bmi08a.c ****  */
1007:BMI088/Src/bmi08a.c **** int8_t bmi08a_set_regs(uint8_t reg_addr, uint8_t *reg_data, uint16_t len, const struct bmi08x_dev *
1008:BMI088/Src/bmi08a.c **** {
1009:BMI088/Src/bmi08a.c **** 	int8_t rslt;
1010:BMI088/Src/bmi08a.c **** 
1011:BMI088/Src/bmi08a.c **** 	/* Check for null pointer in the device structure*/
1012:BMI088/Src/bmi08a.c **** 	rslt = null_ptr_check(dev);
1013:BMI088/Src/bmi08a.c **** 
1014:BMI088/Src/bmi08a.c **** 	/* Proceed if null check is fine */
1015:BMI088/Src/bmi08a.c **** 	if ((rslt == BMI08X_OK) && (reg_data != NULL)) {
1016:BMI088/Src/bmi08a.c **** 		if (len > 0) {
1017:BMI088/Src/bmi08a.c **** 			/* Writing to the register */
1018:BMI088/Src/bmi08a.c **** 			rslt = set_regs(reg_addr, reg_data, len, dev);
1019:BMI088/Src/bmi08a.c **** 		} else {
1020:BMI088/Src/bmi08a.c **** 			rslt = BMI08X_E_RD_WR_LENGTH_INVALID;
1021:BMI088/Src/bmi08a.c **** 		}
1022:BMI088/Src/bmi08a.c **** 	} else {
1023:BMI088/Src/bmi08a.c **** 		rslt = BMI08X_E_NULL_PTR;
1024:BMI088/Src/bmi08a.c **** 	}
1025:BMI088/Src/bmi08a.c **** 
1026:BMI088/Src/bmi08a.c **** 	return rslt;
1027:BMI088/Src/bmi08a.c **** }
1028:BMI088/Src/bmi08a.c **** 
1029:BMI088/Src/bmi08a.c **** /*!
1030:BMI088/Src/bmi08a.c ****  *  @brief This API reads the error status from the accel sensor.
1031:BMI088/Src/bmi08a.c ****  */
1032:BMI088/Src/bmi08a.c **** int8_t bmi08a_get_error_status(struct bmi08x_err_reg *err_reg, const struct bmi08x_dev *dev)
1033:BMI088/Src/bmi08a.c **** {
1034:BMI088/Src/bmi08a.c **** 	int8_t rslt;
1035:BMI088/Src/bmi08a.c **** 	uint8_t data = 0;
1036:BMI088/Src/bmi08a.c **** 
1037:BMI088/Src/bmi08a.c **** 	/* Check for null pointer in the device structure*/
1038:BMI088/Src/bmi08a.c **** 	rslt = null_ptr_check(dev);
1039:BMI088/Src/bmi08a.c **** 	/* Proceed if null check is fine */
1040:BMI088/Src/bmi08a.c **** 	if (rslt == BMI08X_OK) {
1041:BMI088/Src/bmi08a.c **** 		if (err_reg != NULL) {
1042:BMI088/Src/bmi08a.c **** 			/* Read the error codes */
1043:BMI088/Src/bmi08a.c **** 			rslt = get_regs(BMI08X_ACCEL_ERR_REG, &data, 1, dev);
1044:BMI088/Src/bmi08a.c **** 
1045:BMI088/Src/bmi08a.c **** 			if (rslt == BMI08X_OK) {
1046:BMI088/Src/bmi08a.c **** 				/* Fatal error */
1047:BMI088/Src/bmi08a.c **** 				err_reg->fatal_err = BMI08X_GET_BITS_POS_0(data, BMI08X_FATAL_ERR);
1048:BMI088/Src/bmi08a.c **** 				/* User error */
1049:BMI088/Src/bmi08a.c **** 				err_reg->err_code = BMI08X_GET_BITS(data, BMI08X_ERR_CODE);
1050:BMI088/Src/bmi08a.c **** 			}
1051:BMI088/Src/bmi08a.c **** 		} else {
1052:BMI088/Src/bmi08a.c **** 			rslt = BMI08X_E_NULL_PTR;
1053:BMI088/Src/bmi08a.c **** 		}
1054:BMI088/Src/bmi08a.c **** 	}
1055:BMI088/Src/bmi08a.c **** 
1056:BMI088/Src/bmi08a.c **** 	return rslt;
1057:BMI088/Src/bmi08a.c **** }
1058:BMI088/Src/bmi08a.c **** 
ARM GAS  C:\Users\Lenovo\AppData\Local\Temp\ccWML6Ej.s 			page 20


1059:BMI088/Src/bmi08a.c **** /*!
1060:BMI088/Src/bmi08a.c ****  *  @brief This API reads the status of the accel sensor.
1061:BMI088/Src/bmi08a.c ****  */
1062:BMI088/Src/bmi08a.c **** int8_t bmi08a_get_status(uint8_t *status, const struct bmi08x_dev *dev)
1063:BMI088/Src/bmi08a.c **** {
1064:BMI088/Src/bmi08a.c **** 	int8_t rslt;
1065:BMI088/Src/bmi08a.c **** 	uint8_t data = 0;
1066:BMI088/Src/bmi08a.c **** 
1067:BMI088/Src/bmi08a.c **** 	/* Check for null pointer in the device structure*/
1068:BMI088/Src/bmi08a.c **** 	rslt = null_ptr_check(dev);
1069:BMI088/Src/bmi08a.c **** 
1070:BMI088/Src/bmi08a.c **** 	/* Proceed if null check is fine */
1071:BMI088/Src/bmi08a.c **** 	if ((rslt == BMI08X_OK) && (status != NULL)) {
1072:BMI088/Src/bmi08a.c **** 		/* Read the status */
1073:BMI088/Src/bmi08a.c **** 		rslt = get_regs(BMI08X_ACCEL_STATUS_REG, &data, 1, dev);
1074:BMI088/Src/bmi08a.c **** 
1075:BMI088/Src/bmi08a.c **** 		if (rslt == BMI08X_OK) {
1076:BMI088/Src/bmi08a.c **** 			/* Updating the status */
1077:BMI088/Src/bmi08a.c **** 			*status = BMI08X_GET_BITS(data, BMI08X_ACCEL_STATUS);
1078:BMI088/Src/bmi08a.c **** 		}
1079:BMI088/Src/bmi08a.c **** 	} else {
1080:BMI088/Src/bmi08a.c **** 		rslt = BMI08X_E_NULL_PTR;
1081:BMI088/Src/bmi08a.c **** 	}
1082:BMI088/Src/bmi08a.c **** 
1083:BMI088/Src/bmi08a.c **** 	return rslt;
1084:BMI088/Src/bmi08a.c **** }
1085:BMI088/Src/bmi08a.c **** 
1086:BMI088/Src/bmi08a.c **** /*!
1087:BMI088/Src/bmi08a.c ****  *  @brief This API resets the accel sensor.
1088:BMI088/Src/bmi08a.c ****  */
1089:BMI088/Src/bmi08a.c **** int8_t bmi08a_soft_reset(const struct bmi08x_dev *dev)
1090:BMI088/Src/bmi08a.c **** {
1091:BMI088/Src/bmi08a.c **** 	int8_t rslt;
1092:BMI088/Src/bmi08a.c **** 	uint8_t data;
1093:BMI088/Src/bmi08a.c **** 
1094:BMI088/Src/bmi08a.c **** 	/* Check for null pointer in the device structure*/
1095:BMI088/Src/bmi08a.c **** 	rslt = null_ptr_check(dev);
1096:BMI088/Src/bmi08a.c **** 	/* Proceed if null check is fine */
1097:BMI088/Src/bmi08a.c **** 	if (rslt == BMI08X_OK) {
1098:BMI088/Src/bmi08a.c **** 		data = BMI08X_SOFT_RESET_CMD;
1099:BMI088/Src/bmi08a.c **** 		/* Reset accel device */
1100:BMI088/Src/bmi08a.c **** 		rslt = set_regs(BMI08X_ACCEL_SOFTRESET_REG, &data, 1, dev);
1101:BMI088/Src/bmi08a.c **** 
1102:BMI088/Src/bmi08a.c **** 		if (rslt == BMI08X_OK) {
1103:BMI088/Src/bmi08a.c **** 			/* Delay 1 ms after reset value is written to its register */
1104:BMI088/Src/bmi08a.c **** 			dev->delay_ms(BMI08X_ACCEL_SOFTRESET_DELAY_MS);
1105:BMI088/Src/bmi08a.c **** 			/* After soft reset SPI mode in the initialization phase, need to  perform a dummy SPI read
1106:BMI088/Src/bmi08a.c **** 			 * operation, The soft-reset performs a fundamental reset to the device, which is largely
1107:BMI088/Src/bmi08a.c **** 			 * equivalent to a power cycle. */
1108:BMI088/Src/bmi08a.c **** 			if (dev->intf == BMI08X_SPI_INTF) {
1109:BMI088/Src/bmi08a.c **** 				/* Dummy SPI read operation of Chip-ID */
1110:BMI088/Src/bmi08a.c **** 				rslt = get_regs(BMI08X_ACCEL_CHIP_ID_REG, &data, 1, dev);
1111:BMI088/Src/bmi08a.c **** 			}
1112:BMI088/Src/bmi08a.c **** 		}
1113:BMI088/Src/bmi08a.c **** 	}
1114:BMI088/Src/bmi08a.c **** 
1115:BMI088/Src/bmi08a.c **** 	return rslt;
ARM GAS  C:\Users\Lenovo\AppData\Local\Temp\ccWML6Ej.s 			page 21


1116:BMI088/Src/bmi08a.c **** }
1117:BMI088/Src/bmi08a.c **** 
1118:BMI088/Src/bmi08a.c **** /*!
1119:BMI088/Src/bmi08a.c ****  * @brief This API reads the accel config value i.e. odr, band width and range from the sensor,
1120:BMI088/Src/bmi08a.c ****  * store it in the bmi08x_dev structure instance passed by the user.
1121:BMI088/Src/bmi08a.c ****  *
1122:BMI088/Src/bmi08a.c ****  */
1123:BMI088/Src/bmi08a.c **** int8_t bmi08a_get_meas_conf(struct bmi08x_dev *dev)
1124:BMI088/Src/bmi08a.c **** {
1125:BMI088/Src/bmi08a.c **** 	int8_t rslt;
1126:BMI088/Src/bmi08a.c **** 	uint8_t data[2];
1127:BMI088/Src/bmi08a.c **** 
1128:BMI088/Src/bmi08a.c **** 	/* Check for null pointer in the device structure*/
1129:BMI088/Src/bmi08a.c **** 	rslt = null_ptr_check(dev);
1130:BMI088/Src/bmi08a.c **** 
1131:BMI088/Src/bmi08a.c **** 	/* Proceed if null check is fine */
1132:BMI088/Src/bmi08a.c **** 	if (rslt == BMI08X_OK) {
1133:BMI088/Src/bmi08a.c **** 		rslt = get_regs(BMI08X_ACCEL_CONF_REG, data, 2, dev);
1134:BMI088/Src/bmi08a.c **** 
1135:BMI088/Src/bmi08a.c **** 		if (rslt == BMI08X_OK) {
1136:BMI088/Src/bmi08a.c **** 			dev->accel_cfg.odr = data[0] & BMI08X_ACCEL_ODR_MASK;
1137:BMI088/Src/bmi08a.c **** 			dev->accel_cfg.bw = (data[0] & BMI08X_ACCEL_BW_MASK) >> 4;
1138:BMI088/Src/bmi08a.c **** 			dev->accel_cfg.range = data[1] & BMI08X_ACCEL_RANGE_MASK;
1139:BMI088/Src/bmi08a.c **** 		}
1140:BMI088/Src/bmi08a.c **** 	}
1141:BMI088/Src/bmi08a.c **** 
1142:BMI088/Src/bmi08a.c **** 	return rslt;
1143:BMI088/Src/bmi08a.c **** }
1144:BMI088/Src/bmi08a.c **** 
1145:BMI088/Src/bmi08a.c **** /*!
1146:BMI088/Src/bmi08a.c ****  * @brief This API sets the output data rate, range and bandwidth
1147:BMI088/Src/bmi08a.c ****  * of accel sensor.
1148:BMI088/Src/bmi08a.c ****  */
1149:BMI088/Src/bmi08a.c **** int8_t bmi08a_set_meas_conf(const struct bmi08x_dev *dev)
1150:BMI088/Src/bmi08a.c **** {
1151:BMI088/Src/bmi08a.c **** 	int8_t rslt;
1152:BMI088/Src/bmi08a.c **** 	uint8_t data[2] = { 0 };
1153:BMI088/Src/bmi08a.c **** 	uint8_t bw, range, odr;
1154:BMI088/Src/bmi08a.c **** 	uint8_t is_odr_invalid = FALSE, is_bw_invalid = FALSE, is_range_invalid = FALSE;
1155:BMI088/Src/bmi08a.c **** 
1156:BMI088/Src/bmi08a.c **** 	/* Check for null pointer in the device structure*/
1157:BMI088/Src/bmi08a.c **** 	rslt = null_ptr_check(dev);
1158:BMI088/Src/bmi08a.c **** 
1159:BMI088/Src/bmi08a.c **** 	/* Proceed if null check is fine */
1160:BMI088/Src/bmi08a.c **** 	if (rslt == BMI08X_OK) {
1161:BMI088/Src/bmi08a.c **** 		odr = dev->accel_cfg.odr;
1162:BMI088/Src/bmi08a.c **** 		bw = dev->accel_cfg.bw;
1163:BMI088/Src/bmi08a.c **** 		range = dev->accel_cfg.range;
1164:BMI088/Src/bmi08a.c **** 
1165:BMI088/Src/bmi08a.c **** 		/* Check for valid ODR */
1166:BMI088/Src/bmi08a.c **** 		if ((odr < BMI08X_ACCEL_ODR_12_5_HZ) || (odr > BMI08X_ACCEL_ODR_1600_HZ)) {
1167:BMI088/Src/bmi08a.c **** 			/* Updating the status */
1168:BMI088/Src/bmi08a.c **** 			is_odr_invalid = TRUE;
1169:BMI088/Src/bmi08a.c **** 		}
1170:BMI088/Src/bmi08a.c **** 		/* Check for valid bandwidth */
1171:BMI088/Src/bmi08a.c **** 		if (bw > BMI08X_ACCEL_BW_NORMAL) {
1172:BMI088/Src/bmi08a.c **** 			/* Updating the status */
ARM GAS  C:\Users\Lenovo\AppData\Local\Temp\ccWML6Ej.s 			page 22


1173:BMI088/Src/bmi08a.c **** 			is_bw_invalid = TRUE;
1174:BMI088/Src/bmi08a.c **** 		}
1175:BMI088/Src/bmi08a.c **** #if BMI08X_FEATURE_BMI085 == 1
1176:BMI088/Src/bmi08a.c **** 		/* Check for valid Range */
1177:BMI088/Src/bmi08a.c **** 		if (range > BMI085_ACCEL_RANGE_16G) {
1178:BMI088/Src/bmi08a.c **** 			/* Updating the status */
1179:BMI088/Src/bmi08a.c **** 			is_range_invalid = TRUE;
1180:BMI088/Src/bmi08a.c **** 		}
1181:BMI088/Src/bmi08a.c **** #elif BMI08X_FEATURE_BMI088 == 1
1182:BMI088/Src/bmi08a.c **** 		/* Check for valid Range */
1183:BMI088/Src/bmi08a.c **** 		if (range > BMI088_ACCEL_RANGE_24G) {
1184:BMI088/Src/bmi08a.c **** 			/* Updating the status */
1185:BMI088/Src/bmi08a.c **** 			is_range_invalid = TRUE;
1186:BMI088/Src/bmi08a.c **** 		}
1187:BMI088/Src/bmi08a.c **** #endif
1188:BMI088/Src/bmi08a.c **** 		/* If ODR, BW and Range are valid, write it to accel config. registers */
1189:BMI088/Src/bmi08a.c **** 		if ((!is_odr_invalid) && (!is_bw_invalid) && (!is_range_invalid)) {
1190:BMI088/Src/bmi08a.c **** 			/* Read accel config. register */
1191:BMI088/Src/bmi08a.c **** 			rslt = get_regs(BMI08X_ACCEL_CONF_REG, data, 2, dev);
1192:BMI088/Src/bmi08a.c **** 			if (rslt == BMI08X_OK) {
1193:BMI088/Src/bmi08a.c **** 				/* Update data with new odr and bw values */
1194:BMI088/Src/bmi08a.c **** 				data[0] = BMI08X_SET_BITS_POS_0(data[0], BMI08X_ACCEL_ODR, odr);
1195:BMI088/Src/bmi08a.c **** 				data[0] = BMI08X_SET_BITS(data[0], BMI08X_ACCEL_BW, bw);
1196:BMI088/Src/bmi08a.c **** 				/* Update data with current range values */
1197:BMI088/Src/bmi08a.c **** 				data[1] = BMI08X_SET_BITS_POS_0(data[1], BMI08X_ACCEL_RANGE, range);
1198:BMI088/Src/bmi08a.c **** 				/* write to range register */
1199:BMI088/Src/bmi08a.c **** 				rslt = set_regs(BMI08X_ACCEL_CONF_REG, data, 2, dev);
1200:BMI088/Src/bmi08a.c **** 			}
1201:BMI088/Src/bmi08a.c **** 		} else {
1202:BMI088/Src/bmi08a.c **** 			/* Invalid configuration present in ODR, BW, Range */
1203:BMI088/Src/bmi08a.c **** 			rslt = BMI08X_E_INVALID_CONFIG;
1204:BMI088/Src/bmi08a.c **** 		}
1205:BMI088/Src/bmi08a.c **** 	}
1206:BMI088/Src/bmi08a.c **** 
1207:BMI088/Src/bmi08a.c **** 	return rslt;
1208:BMI088/Src/bmi08a.c **** }
1209:BMI088/Src/bmi08a.c **** 
1210:BMI088/Src/bmi08a.c **** /*!
1211:BMI088/Src/bmi08a.c ****  * @brief This API reads the accel power mode from the sensor, store it in the bmi08x_dev structure
1212:BMI088/Src/bmi08a.c ****  * instance passed by the user.
1213:BMI088/Src/bmi08a.c ****  */
1214:BMI088/Src/bmi08a.c **** int8_t bmi08a_get_power_mode(struct bmi08x_dev *dev)
1215:BMI088/Src/bmi08a.c **** {
1216:BMI088/Src/bmi08a.c **** 	int8_t rslt;
1217:BMI088/Src/bmi08a.c **** 	uint8_t data;
1218:BMI088/Src/bmi08a.c **** 
1219:BMI088/Src/bmi08a.c **** 	/* Check for null pointer in the device structure*/
1220:BMI088/Src/bmi08a.c **** 	rslt = null_ptr_check(dev);
1221:BMI088/Src/bmi08a.c **** 
1222:BMI088/Src/bmi08a.c **** 	/* Proceed if null check is fine */
1223:BMI088/Src/bmi08a.c **** 	if (rslt == BMI08X_OK) {
1224:BMI088/Src/bmi08a.c **** 		rslt = get_regs(BMI08X_ACCEL_PWR_CONF_REG, &data, 1, dev);
1225:BMI088/Src/bmi08a.c **** 
1226:BMI088/Src/bmi08a.c **** 		if (rslt == BMI08X_OK) {
1227:BMI088/Src/bmi08a.c **** 			/* Updating the current power mode */
1228:BMI088/Src/bmi08a.c **** 			dev->accel_cfg.power = data;
1229:BMI088/Src/bmi08a.c **** 		}
ARM GAS  C:\Users\Lenovo\AppData\Local\Temp\ccWML6Ej.s 			page 23


1230:BMI088/Src/bmi08a.c **** 	}
1231:BMI088/Src/bmi08a.c **** 
1232:BMI088/Src/bmi08a.c **** 	return rslt;
1233:BMI088/Src/bmi08a.c **** }
1234:BMI088/Src/bmi08a.c **** 
1235:BMI088/Src/bmi08a.c **** /*!
1236:BMI088/Src/bmi08a.c ****  * @brief This API sets the power mode of the accel sensor.
1237:BMI088/Src/bmi08a.c ****  */
1238:BMI088/Src/bmi08a.c **** int8_t bmi08a_set_power_mode(const struct bmi08x_dev *dev)
1239:BMI088/Src/bmi08a.c **** {
1240:BMI088/Src/bmi08a.c **** 	int8_t rslt;
1241:BMI088/Src/bmi08a.c **** 	uint8_t power_mode;
1242:BMI088/Src/bmi08a.c **** 	uint8_t data[2];
1243:BMI088/Src/bmi08a.c **** 
1244:BMI088/Src/bmi08a.c **** 	/* Check for null pointer in the device structure*/
1245:BMI088/Src/bmi08a.c **** 	rslt = null_ptr_check(dev);
1246:BMI088/Src/bmi08a.c **** 
1247:BMI088/Src/bmi08a.c **** 	/* Proceed if null check is fine */
1248:BMI088/Src/bmi08a.c **** 	if (rslt == BMI08X_OK) {
1249:BMI088/Src/bmi08a.c **** 		power_mode = dev->accel_cfg.power;
1250:BMI088/Src/bmi08a.c **** 
1251:BMI088/Src/bmi08a.c **** 		/* Configure data array to write to accel power configuration register */
1252:BMI088/Src/bmi08a.c **** 		if (power_mode == BMI08X_ACCEL_PM_ACTIVE) {
1253:BMI088/Src/bmi08a.c **** 			data[0] = BMI08X_ACCEL_PM_ACTIVE;
1254:BMI088/Src/bmi08a.c **** 			data[1] = BMI08X_ACCEL_POWER_ENABLE;
1255:BMI088/Src/bmi08a.c **** 		} else if (power_mode == BMI08X_ACCEL_PM_SUSPEND) {
1256:BMI088/Src/bmi08a.c **** 			data[0] = BMI08X_ACCEL_PM_SUSPEND;
1257:BMI088/Src/bmi08a.c **** 			data[1] = BMI08X_ACCEL_POWER_DISABLE;
1258:BMI088/Src/bmi08a.c **** 		} else {
1259:BMI088/Src/bmi08a.c **** 			/* Invalid power input */
1260:BMI088/Src/bmi08a.c **** 			rslt = BMI08X_E_INVALID_INPUT;
1261:BMI088/Src/bmi08a.c **** 		}
1262:BMI088/Src/bmi08a.c **** 
1263:BMI088/Src/bmi08a.c **** 		if (rslt == BMI08X_OK) {
1264:BMI088/Src/bmi08a.c **** 			/*enable accel sensor*/
1265:BMI088/Src/bmi08a.c **** 			rslt = set_regs(BMI08X_ACCEL_PWR_CONF_REG, &data[0], 1, dev);
1266:BMI088/Src/bmi08a.c **** 
1267:BMI088/Src/bmi08a.c **** 			if (rslt == BMI08X_OK) {
1268:BMI088/Src/bmi08a.c **** 				/*delay between power ctrl and power config*/
1269:BMI088/Src/bmi08a.c **** 				dev->delay_ms(BMI08X_POWER_CONFIG_DELAY);
1270:BMI088/Src/bmi08a.c **** 				/* write to accel power configuration register */
1271:BMI088/Src/bmi08a.c **** 				rslt = set_regs(BMI08X_ACCEL_PWR_CTRL_REG, &data[1], 1, dev);
1272:BMI088/Src/bmi08a.c **** 
1273:BMI088/Src/bmi08a.c **** 				if (rslt == BMI08X_OK) {
1274:BMI088/Src/bmi08a.c **** 					/*delay required to switch power modes*/
1275:BMI088/Src/bmi08a.c **** 					dev->delay_ms(BMI08X_POWER_CONFIG_DELAY);
1276:BMI088/Src/bmi08a.c **** 				}
1277:BMI088/Src/bmi08a.c **** 			}
1278:BMI088/Src/bmi08a.c **** 
1279:BMI088/Src/bmi08a.c **** 		}
1280:BMI088/Src/bmi08a.c **** 	}
1281:BMI088/Src/bmi08a.c **** 
1282:BMI088/Src/bmi08a.c **** 	return rslt;
1283:BMI088/Src/bmi08a.c **** }
1284:BMI088/Src/bmi08a.c **** 
1285:BMI088/Src/bmi08a.c **** /*!
1286:BMI088/Src/bmi08a.c ****  * @brief This API reads the accel data from the sensor,
ARM GAS  C:\Users\Lenovo\AppData\Local\Temp\ccWML6Ej.s 			page 24


1287:BMI088/Src/bmi08a.c ****  * store it in the bmi08x_sensor_data structure instance
1288:BMI088/Src/bmi08a.c ****  * passed by the user.
1289:BMI088/Src/bmi08a.c ****  */
1290:BMI088/Src/bmi08a.c **** int8_t bmi08a_get_data(struct bmi08x_sensor_data *accel, const struct bmi08x_dev *dev)
1291:BMI088/Src/bmi08a.c **** {
1292:BMI088/Src/bmi08a.c **** 	int8_t rslt;
1293:BMI088/Src/bmi08a.c **** 	uint8_t data[6];
1294:BMI088/Src/bmi08a.c **** 	uint8_t lsb, msb;
1295:BMI088/Src/bmi08a.c **** 	uint16_t msblsb;
1296:BMI088/Src/bmi08a.c **** 	/* Check for null pointer in the device structure*/
1297:BMI088/Src/bmi08a.c **** 	rslt = null_ptr_check(dev);
1298:BMI088/Src/bmi08a.c **** 	/* Proceed if null check is fine */
1299:BMI088/Src/bmi08a.c **** 	if ((rslt == BMI08X_OK) && (accel != NULL)) {
1300:BMI088/Src/bmi08a.c **** 		/* Read accel sensor data */
1301:BMI088/Src/bmi08a.c **** 		rslt = get_regs(BMI08X_ACCEL_X_LSB_REG, data, 6, dev);
1302:BMI088/Src/bmi08a.c **** 
1303:BMI088/Src/bmi08a.c **** 		if (rslt == BMI08X_OK) {
1304:BMI088/Src/bmi08a.c **** 			lsb = data[0];
1305:BMI088/Src/bmi08a.c **** 			msb = data[1];
1306:BMI088/Src/bmi08a.c **** 			msblsb = (msb << 8) | lsb;
1307:BMI088/Src/bmi08a.c **** 			accel->x = ((int16_t) msblsb); /* Data in X axis */
1308:BMI088/Src/bmi08a.c **** 
1309:BMI088/Src/bmi08a.c **** 			lsb = data[2];
1310:BMI088/Src/bmi08a.c **** 			msb = data[3];
1311:BMI088/Src/bmi08a.c **** 			msblsb = (msb << 8) | lsb;
1312:BMI088/Src/bmi08a.c **** 			accel->y = ((int16_t) msblsb); /* Data in Y axis */
1313:BMI088/Src/bmi08a.c **** 
1314:BMI088/Src/bmi08a.c **** 			lsb = data[4];
1315:BMI088/Src/bmi08a.c **** 			msb = data[5];
1316:BMI088/Src/bmi08a.c **** 			msblsb = (msb << 8) | lsb;
1317:BMI088/Src/bmi08a.c **** 			accel->z = ((int16_t) msblsb); /* Data in Z axis */
1318:BMI088/Src/bmi08a.c **** 		}
1319:BMI088/Src/bmi08a.c **** 
1320:BMI088/Src/bmi08a.c **** 	} else {
1321:BMI088/Src/bmi08a.c **** 		rslt = BMI08X_E_NULL_PTR;
1322:BMI088/Src/bmi08a.c **** 	}
1323:BMI088/Src/bmi08a.c **** 
1324:BMI088/Src/bmi08a.c **** 	return rslt;
1325:BMI088/Src/bmi08a.c **** }
1326:BMI088/Src/bmi08a.c **** 
1327:BMI088/Src/bmi08a.c **** /*!
1328:BMI088/Src/bmi08a.c ****  * @brief This API configures the necessary accel interrupt
1329:BMI088/Src/bmi08a.c ****  * based on the user settings in the bmi08x_int_cfg
1330:BMI088/Src/bmi08a.c ****  * structure instance.
1331:BMI088/Src/bmi08a.c ****  */
1332:BMI088/Src/bmi08a.c **** int8_t bmi08a_set_int_config(const struct bmi08x_accel_int_channel_cfg *int_config, const struct bm
1333:BMI088/Src/bmi08a.c **** {
1334:BMI088/Src/bmi08a.c **** 	int8_t rslt;
1335:BMI088/Src/bmi08a.c **** 
1336:BMI088/Src/bmi08a.c **** 	/* Check for null pointer in the device structure*/
1337:BMI088/Src/bmi08a.c **** 	rslt = null_ptr_check(dev);
1338:BMI088/Src/bmi08a.c **** 	/* Proceed if null check is fine */
1339:BMI088/Src/bmi08a.c **** 	if ((rslt == BMI08X_OK) && (int_config != NULL)) {
1340:BMI088/Src/bmi08a.c **** 		switch (int_config->int_type) {
1341:BMI088/Src/bmi08a.c **** 		case BMI08X_ACCEL_DATA_RDY_INT:
1342:BMI088/Src/bmi08a.c **** 			/* Data ready interrupt */
1343:BMI088/Src/bmi08a.c **** 			rslt = set_accel_data_ready_int(int_config, dev);
ARM GAS  C:\Users\Lenovo\AppData\Local\Temp\ccWML6Ej.s 			page 25


1344:BMI088/Src/bmi08a.c **** 			break;
1345:BMI088/Src/bmi08a.c **** 		case BMI08X_ACCEL_SYNC_DATA_RDY_INT:
1346:BMI088/Src/bmi08a.c **** 			/* synchronized data ready interrupt */
1347:BMI088/Src/bmi08a.c **** 			rslt = set_accel_sync_data_ready_int(int_config, dev);
1348:BMI088/Src/bmi08a.c **** 			break;
1349:BMI088/Src/bmi08a.c **** 		case BMI08X_ACCEL_SYNC_INPUT:
1350:BMI088/Src/bmi08a.c **** 			/* input for synchronization on accel */
1351:BMI088/Src/bmi08a.c **** 			rslt = set_accel_sync_input(int_config, dev);
1352:BMI088/Src/bmi08a.c **** 			break;
1353:BMI088/Src/bmi08a.c **** 		case BMI08X_ACCEL_ANYMOTION_INT:
1354:BMI088/Src/bmi08a.c **** 			/* Anymotion interrupt */
1355:BMI088/Src/bmi08a.c **** 			rslt = set_accel_anymotion_int(int_config, dev);
1356:BMI088/Src/bmi08a.c **** 			break;
1357:BMI088/Src/bmi08a.c **** 		default:
1358:BMI088/Src/bmi08a.c **** 			rslt = BMI08X_E_INVALID_CONFIG;
1359:BMI088/Src/bmi08a.c **** 			break;
1360:BMI088/Src/bmi08a.c **** 		}
1361:BMI088/Src/bmi08a.c **** 	} else {
1362:BMI088/Src/bmi08a.c **** 		rslt = BMI08X_E_NULL_PTR;
1363:BMI088/Src/bmi08a.c **** 	}
1364:BMI088/Src/bmi08a.c **** 
1365:BMI088/Src/bmi08a.c **** 	return rslt;
1366:BMI088/Src/bmi08a.c **** }
1367:BMI088/Src/bmi08a.c **** 
1368:BMI088/Src/bmi08a.c **** /*!
1369:BMI088/Src/bmi08a.c ****  * @brief This API reads the temperature of the sensor in degree Celcius.
1370:BMI088/Src/bmi08a.c ****  */
1371:BMI088/Src/bmi08a.c **** int8_t bmi08a_get_sensor_temperature(const struct bmi08x_dev *dev, int32_t *sensor_temp)
1372:BMI088/Src/bmi08a.c **** {
1373:BMI088/Src/bmi08a.c **** 	int8_t rslt;
1374:BMI088/Src/bmi08a.c **** 	uint8_t data[2] = { 0 };
1375:BMI088/Src/bmi08a.c **** 	uint16_t msb, lsb;
1376:BMI088/Src/bmi08a.c **** 	uint16_t msblsb;
1377:BMI088/Src/bmi08a.c **** 	int16_t temp;
1378:BMI088/Src/bmi08a.c **** 
1379:BMI088/Src/bmi08a.c **** 	/* Check for null pointer in the device structure*/
1380:BMI088/Src/bmi08a.c **** 	rslt = null_ptr_check(dev);
1381:BMI088/Src/bmi08a.c **** 
1382:BMI088/Src/bmi08a.c **** 	/* Proceed if null check is fine */
1383:BMI088/Src/bmi08a.c **** 	if ((rslt == BMI08X_OK) && (sensor_temp != NULL)) {
1384:BMI088/Src/bmi08a.c **** 		/* Read sensor temperature */
1385:BMI088/Src/bmi08a.c **** 		rslt = get_regs(BMI08X_TEMP_MSB_REG, data, 2, dev);
1386:BMI088/Src/bmi08a.c **** 
1387:BMI088/Src/bmi08a.c **** 		if (rslt == BMI08X_OK) {
1388:BMI088/Src/bmi08a.c **** 			msb = (data[0] << 3); /* MSB data */
1389:BMI088/Src/bmi08a.c **** 			lsb = (data[1] >> 5); /* LSB data */
1390:BMI088/Src/bmi08a.c **** 			msblsb = (uint16_t) (msb + lsb);
1391:BMI088/Src/bmi08a.c **** 
1392:BMI088/Src/bmi08a.c **** 			if (msblsb > 1023) {
1393:BMI088/Src/bmi08a.c **** 				/* Updating the msblsb */
1394:BMI088/Src/bmi08a.c **** 				temp = (int16_t) (msblsb - 2048);
1395:BMI088/Src/bmi08a.c **** 			} else {
1396:BMI088/Src/bmi08a.c **** 				temp = (int16_t) msblsb;
1397:BMI088/Src/bmi08a.c **** 			}
1398:BMI088/Src/bmi08a.c **** 			/* sensor temperature */
1399:BMI088/Src/bmi08a.c **** 			*sensor_temp = (temp * 125) + 23000;
1400:BMI088/Src/bmi08a.c **** 		}
ARM GAS  C:\Users\Lenovo\AppData\Local\Temp\ccWML6Ej.s 			page 26


1401:BMI088/Src/bmi08a.c **** 
1402:BMI088/Src/bmi08a.c **** 	} else {
1403:BMI088/Src/bmi08a.c **** 		rslt = BMI08X_E_NULL_PTR;
1404:BMI088/Src/bmi08a.c **** 	}
1405:BMI088/Src/bmi08a.c **** 
1406:BMI088/Src/bmi08a.c **** 	return rslt;
1407:BMI088/Src/bmi08a.c **** 
1408:BMI088/Src/bmi08a.c **** }
1409:BMI088/Src/bmi08a.c **** 
1410:BMI088/Src/bmi08a.c **** /*!
1411:BMI088/Src/bmi08a.c ****  *  @brief This API reads the sensor time of the accel sensor.
1412:BMI088/Src/bmi08a.c ****  */
1413:BMI088/Src/bmi08a.c **** int8_t bmi08a_get_sensor_time(const struct bmi08x_dev *dev, uint32_t *sensor_time)
1414:BMI088/Src/bmi08a.c **** {
1415:BMI088/Src/bmi08a.c **** 	int8_t rslt;
1416:BMI088/Src/bmi08a.c **** 	uint8_t data[3] = { 0 };
1417:BMI088/Src/bmi08a.c **** 	uint32_t byte2, byte1, byte0;
1418:BMI088/Src/bmi08a.c **** 
1419:BMI088/Src/bmi08a.c **** 	/* Check for null pointer in the device structure*/
1420:BMI088/Src/bmi08a.c **** 	rslt = null_ptr_check(dev);
1421:BMI088/Src/bmi08a.c **** 
1422:BMI088/Src/bmi08a.c **** 	/* Proceed if null check is fine */
1423:BMI088/Src/bmi08a.c **** 	if ((rslt == BMI08X_OK) && (sensor_time != NULL)) {
1424:BMI088/Src/bmi08a.c **** 		/* Read 3-byte sensor time */
1425:BMI088/Src/bmi08a.c **** 		rslt = get_regs(BMI08X_ACCEL_SENSORTIME_0_REG, data, 3, dev);
1426:BMI088/Src/bmi08a.c **** 
1427:BMI088/Src/bmi08a.c **** 		if (rslt == BMI08X_OK) {
1428:BMI088/Src/bmi08a.c **** 			byte0 = data[0]; /* Lower byte */
1429:BMI088/Src/bmi08a.c **** 			byte1 = (data[1] << 8); /* Middle byte */
1430:BMI088/Src/bmi08a.c **** 			byte2 = (data[2] << 16); /* Higher byte */
1431:BMI088/Src/bmi08a.c **** 
1432:BMI088/Src/bmi08a.c **** 			/* Sensor time */
1433:BMI088/Src/bmi08a.c **** 			*sensor_time = (byte2 | byte1 | byte0);
1434:BMI088/Src/bmi08a.c **** 		}
1435:BMI088/Src/bmi08a.c **** 
1436:BMI088/Src/bmi08a.c **** 	} else {
1437:BMI088/Src/bmi08a.c **** 		rslt = BMI08X_E_NULL_PTR;
1438:BMI088/Src/bmi08a.c **** 	}
1439:BMI088/Src/bmi08a.c **** 
1440:BMI088/Src/bmi08a.c **** 	return rslt;
1441:BMI088/Src/bmi08a.c **** }
1442:BMI088/Src/bmi08a.c **** /*!
1443:BMI088/Src/bmi08a.c ****  *  @brief This API checks whether the self test functionality of the sensor
1444:BMI088/Src/bmi08a.c ****  *  is working or not.
1445:BMI088/Src/bmi08a.c ****  */
1446:BMI088/Src/bmi08a.c **** int8_t bmi08a_perform_selftest(struct bmi08x_dev *dev)
1447:BMI088/Src/bmi08a.c **** {
1448:BMI088/Src/bmi08a.c **** 	int8_t rslt;
1449:BMI088/Src/bmi08a.c **** 	int8_t self_test_rslt = 0;
1450:BMI088/Src/bmi08a.c **** 	struct bmi08x_sensor_data accel_pos, accel_neg;
1451:BMI088/Src/bmi08a.c **** 
1452:BMI088/Src/bmi08a.c **** 	/* Check for null pointer in the device structure */
1453:BMI088/Src/bmi08a.c **** 	rslt = null_ptr_check(dev);
1454:BMI088/Src/bmi08a.c **** 
1455:BMI088/Src/bmi08a.c **** 	/* Proceed if null check is fine */
1456:BMI088/Src/bmi08a.c **** 	if (rslt == BMI08X_OK) {
1457:BMI088/Src/bmi08a.c **** 		/* pre-requisites for self test */
ARM GAS  C:\Users\Lenovo\AppData\Local\Temp\ccWML6Ej.s 			page 27


1458:BMI088/Src/bmi08a.c **** 		rslt = enable_self_test(dev);
1459:BMI088/Src/bmi08a.c **** 
1460:BMI088/Src/bmi08a.c **** 		if (rslt == BMI08X_OK) {
1461:BMI088/Src/bmi08a.c **** 			rslt = positive_excited_accel(&accel_pos, dev);
1462:BMI088/Src/bmi08a.c **** 
1463:BMI088/Src/bmi08a.c **** 			if (rslt == BMI08X_OK) {
1464:BMI088/Src/bmi08a.c **** 				rslt = negative_excited_accel(&accel_neg, dev);
1465:BMI088/Src/bmi08a.c **** 
1466:BMI088/Src/bmi08a.c **** 				if (rslt == BMI08X_OK) {
1467:BMI088/Src/bmi08a.c **** 					/* Validate the self test result */
1468:BMI088/Src/bmi08a.c **** 					rslt = validate_accel_self_test(&accel_pos, &accel_neg);
1469:BMI088/Src/bmi08a.c **** 					/* Store the status of self test result */
1470:BMI088/Src/bmi08a.c **** 					self_test_rslt = rslt;
1471:BMI088/Src/bmi08a.c **** 					/* Perform soft reset */
1472:BMI088/Src/bmi08a.c **** 					rslt = bmi08a_soft_reset(dev);
1473:BMI088/Src/bmi08a.c **** 					/* Check to ensure bus operations are success */
1474:BMI088/Src/bmi08a.c **** 					if (rslt == BMI08X_OK) {
1475:BMI088/Src/bmi08a.c **** 						/* Restore self_test_rslt as return value */
1476:BMI088/Src/bmi08a.c **** 						rslt = self_test_rslt;
1477:BMI088/Src/bmi08a.c **** 					}
1478:BMI088/Src/bmi08a.c **** 				}
1479:BMI088/Src/bmi08a.c **** 
1480:BMI088/Src/bmi08a.c **** 			}
1481:BMI088/Src/bmi08a.c **** 
1482:BMI088/Src/bmi08a.c **** 		}
1483:BMI088/Src/bmi08a.c **** 
1484:BMI088/Src/bmi08a.c **** 	}
1485:BMI088/Src/bmi08a.c **** 
1486:BMI088/Src/bmi08a.c **** 	return rslt;
1487:BMI088/Src/bmi08a.c **** }
1488:BMI088/Src/bmi08a.c **** 
1489:BMI088/Src/bmi08a.c **** /*****************************************************************************/
1490:BMI088/Src/bmi08a.c **** /* Static function definition */
1491:BMI088/Src/bmi08a.c **** /*!
1492:BMI088/Src/bmi08a.c ****  * @brief This API is used to validate the device structure pointer for
1493:BMI088/Src/bmi08a.c ****  * null conditions.
1494:BMI088/Src/bmi08a.c ****  */
1495:BMI088/Src/bmi08a.c **** static int8_t null_ptr_check(const struct bmi08x_dev *dev)
1496:BMI088/Src/bmi08a.c **** {
  27              		.loc 1 1496 1 view -0
  28              		.cfi_startproc
  29              		@ args = 0, pretend = 0, frame = 0
  30              		@ frame_needed = 0, uses_anonymous_args = 0
  31              		@ link register save eliminated.
1497:BMI088/Src/bmi08a.c **** 	int8_t rslt;
  32              		.loc 1 1497 2 view .LVU1
1498:BMI088/Src/bmi08a.c **** 
1499:BMI088/Src/bmi08a.c **** 	if ((dev == NULL) || (dev->read == NULL) || (dev->write == NULL) || (dev->delay_ms == NULL)) {
  33              		.loc 1 1499 2 view .LVU2
  34              		.loc 1 1499 5 is_stmt 0 view .LVU3
  35 0000 50B1     		cbz	r0, .L3
  36              		.loc 1 1499 27 discriminator 1 view .LVU4
  37 0002 8269     		ldr	r2, [r0, #24]
  38              		.loc 1 1499 20 discriminator 1 view .LVU5
  39 0004 5AB1     		cbz	r2, .L4
  40              		.loc 1 1499 50 discriminator 2 view .LVU6
  41 0006 C269     		ldr	r2, [r0, #28]
ARM GAS  C:\Users\Lenovo\AppData\Local\Temp\ccWML6Ej.s 			page 28


  42              		.loc 1 1499 43 discriminator 2 view .LVU7
  43 0008 62B1     		cbz	r2, .L5
  44              		.loc 1 1499 74 discriminator 3 view .LVU8
  45 000a 036A     		ldr	r3, [r0, #32]
  46              		.loc 1 1499 67 discriminator 3 view .LVU9
  47 000c 0BB1     		cbz	r3, .L7
1500:BMI088/Src/bmi08a.c **** 		/* Device structure pointer is not valid */
1501:BMI088/Src/bmi08a.c **** 		rslt = BMI08X_E_NULL_PTR;
1502:BMI088/Src/bmi08a.c **** 	} else {
1503:BMI088/Src/bmi08a.c **** 		/* Device structure is fine */
1504:BMI088/Src/bmi08a.c **** 		rslt = BMI08X_OK;
  48              		.loc 1 1504 8 view .LVU10
  49 000e 0020     		movs	r0, #0
  50              	.LVL1:
1505:BMI088/Src/bmi08a.c **** 	}
1506:BMI088/Src/bmi08a.c **** 
1507:BMI088/Src/bmi08a.c **** 	return rslt;
  51              		.loc 1 1507 2 is_stmt 1 view .LVU11
1508:BMI088/Src/bmi08a.c **** }
  52              		.loc 1 1508 1 is_stmt 0 view .LVU12
  53 0010 7047     		bx	lr
  54              	.LVL2:
  55              	.L7:
1501:BMI088/Src/bmi08a.c **** 	} else {
  56              		.loc 1 1501 8 view .LVU13
  57 0012 4FF0FF30 		mov	r0, #-1
  58              	.LVL3:
1501:BMI088/Src/bmi08a.c **** 	} else {
  59              		.loc 1 1501 8 view .LVU14
  60 0016 7047     		bx	lr
  61              	.LVL4:
  62              	.L3:
1501:BMI088/Src/bmi08a.c **** 	} else {
  63              		.loc 1 1501 8 view .LVU15
  64 0018 4FF0FF30 		mov	r0, #-1
  65              	.LVL5:
1501:BMI088/Src/bmi08a.c **** 	} else {
  66              		.loc 1 1501 8 view .LVU16
  67 001c 7047     		bx	lr
  68              	.LVL6:
  69              	.L4:
1501:BMI088/Src/bmi08a.c **** 	} else {
  70              		.loc 1 1501 8 view .LVU17
  71 001e 4FF0FF30 		mov	r0, #-1
  72              	.LVL7:
1501:BMI088/Src/bmi08a.c **** 	} else {
  73              		.loc 1 1501 8 view .LVU18
  74 0022 7047     		bx	lr
  75              	.LVL8:
  76              	.L5:
1501:BMI088/Src/bmi08a.c **** 	} else {
  77              		.loc 1 1501 8 view .LVU19
  78 0024 4FF0FF30 		mov	r0, #-1
  79              	.LVL9:
1501:BMI088/Src/bmi08a.c **** 	} else {
  80              		.loc 1 1501 8 view .LVU20
  81 0028 7047     		bx	lr
ARM GAS  C:\Users\Lenovo\AppData\Local\Temp\ccWML6Ej.s 			page 29


  82              		.cfi_endproc
  83              	.LFE17:
  85              		.section	.text.set_regs,"ax",%progbits
  86              		.align	1
  87              		.syntax unified
  88              		.thumb
  89              		.thumb_func
  91              	set_regs:
  92              	.LVL10:
  93              	.LFB19:
1509:BMI088/Src/bmi08a.c **** 
1510:BMI088/Src/bmi08a.c **** /*!
1511:BMI088/Src/bmi08a.c ****  * @brief This API reads the data from the given register address.
1512:BMI088/Src/bmi08a.c ****  */
1513:BMI088/Src/bmi08a.c **** static int8_t get_regs(uint8_t reg_addr, uint8_t *reg_data, uint16_t len, const struct bmi08x_dev *
1514:BMI088/Src/bmi08a.c **** {
1515:BMI088/Src/bmi08a.c **** 	int8_t rslt;
1516:BMI088/Src/bmi08a.c **** 	uint16_t index;
1517:BMI088/Src/bmi08a.c **** 	uint16_t temp_len = len + dev->dummy_byte;
1518:BMI088/Src/bmi08a.c **** 	uint8_t temp_buff[temp_len];
1519:BMI088/Src/bmi08a.c **** 
1520:BMI088/Src/bmi08a.c **** 	if (dev->intf == BMI08X_SPI_INTF) {
1521:BMI088/Src/bmi08a.c **** 		/* Configuring reg_addr for SPI Interface */
1522:BMI088/Src/bmi08a.c **** 		reg_addr = reg_addr | BMI08X_SPI_RD_MASK;
1523:BMI088/Src/bmi08a.c **** 	}
1524:BMI088/Src/bmi08a.c **** 	/* Read the data from the register */
1525:BMI088/Src/bmi08a.c **** 	rslt = dev->read(dev->accel_id, reg_addr, temp_buff, temp_len);
1526:BMI088/Src/bmi08a.c **** 
1527:BMI088/Src/bmi08a.c **** 	if (rslt == BMI08X_OK) {
1528:BMI088/Src/bmi08a.c **** 		for (index = 0; index < len; index++) {
1529:BMI088/Src/bmi08a.c **** 			/* Updating the data buffer */
1530:BMI088/Src/bmi08a.c **** 			reg_data[index] = temp_buff[index + dev->dummy_byte];
1531:BMI088/Src/bmi08a.c **** 		}
1532:BMI088/Src/bmi08a.c **** 	} else {
1533:BMI088/Src/bmi08a.c **** 		/* Failure case */
1534:BMI088/Src/bmi08a.c **** 		rslt = BMI08X_E_COM_FAIL;
1535:BMI088/Src/bmi08a.c **** 	}
1536:BMI088/Src/bmi08a.c **** 
1537:BMI088/Src/bmi08a.c **** 	return rslt;
1538:BMI088/Src/bmi08a.c **** }
1539:BMI088/Src/bmi08a.c **** 
1540:BMI088/Src/bmi08a.c **** /*!
1541:BMI088/Src/bmi08a.c ****  * @brief This API writes the data to the given register address.
1542:BMI088/Src/bmi08a.c ****  */
1543:BMI088/Src/bmi08a.c **** static int8_t set_regs(uint8_t reg_addr, uint8_t *reg_data, uint16_t len, const struct bmi08x_dev *
1544:BMI088/Src/bmi08a.c **** {
  94              		.loc 1 1544 1 is_stmt 1 view -0
  95              		.cfi_startproc
  96              		@ args = 0, pretend = 0, frame = 0
  97              		@ frame_needed = 0, uses_anonymous_args = 0
  98              		.loc 1 1544 1 is_stmt 0 view .LVU22
  99 0000 10B5     		push	{r4, lr}
 100              	.LCFI0:
 101              		.cfi_def_cfa_offset 8
 102              		.cfi_offset 4, -8
 103              		.cfi_offset 14, -4
 104 0002 9C46     		mov	ip, r3
ARM GAS  C:\Users\Lenovo\AppData\Local\Temp\ccWML6Ej.s 			page 30


1545:BMI088/Src/bmi08a.c **** 	int8_t rslt;
 105              		.loc 1 1545 2 is_stmt 1 view .LVU23
1546:BMI088/Src/bmi08a.c **** 
1547:BMI088/Src/bmi08a.c **** 	if (dev->intf == BMI08X_SPI_INTF) {
 106              		.loc 1 1547 2 view .LVU24
 107              		.loc 1 1547 9 is_stmt 0 view .LVU25
 108 0004 1B79     		ldrb	r3, [r3, #4]	@ zero_extendqisi2
 109              	.LVL11:
 110              		.loc 1 1547 5 view .LVU26
 111 0006 012B     		cmp	r3, #1
 112 0008 09D0     		beq	.L13
 113              	.L9:
1548:BMI088/Src/bmi08a.c **** 		/* Configuring reg_addr for SPI Interface */
1549:BMI088/Src/bmi08a.c **** 		reg_addr = (reg_addr & BMI08X_SPI_WR_MASK);
1550:BMI088/Src/bmi08a.c **** 	}
1551:BMI088/Src/bmi08a.c **** 	/* write to an accel register */
1552:BMI088/Src/bmi08a.c **** 	rslt = dev->write(dev->accel_id, reg_addr, reg_data, len);
 114              		.loc 1 1552 2 is_stmt 1 view .LVU27
 115              		.loc 1 1552 12 is_stmt 0 view .LVU28
 116 000a DCF81C40 		ldr	r4, [ip, #28]
 117              		.loc 1 1552 9 view .LVU29
 118 000e 1346     		mov	r3, r2
 119 0010 0A46     		mov	r2, r1
 120              	.LVL12:
 121              		.loc 1 1552 9 view .LVU30
 122 0012 0146     		mov	r1, r0
 123              	.LVL13:
 124              		.loc 1 1552 9 view .LVU31
 125 0014 9CF80200 		ldrb	r0, [ip, #2]	@ zero_extendqisi2
 126              	.LVL14:
 127              		.loc 1 1552 9 view .LVU32
 128 0018 A047     		blx	r4
 129              	.LVL15:
1553:BMI088/Src/bmi08a.c **** 
1554:BMI088/Src/bmi08a.c **** 	if (rslt != BMI08X_OK) {
 130              		.loc 1 1554 2 is_stmt 1 view .LVU33
 131              		.loc 1 1554 5 is_stmt 0 view .LVU34
 132 001a 18B9     		cbnz	r0, .L14
 133              	.LVL16:
 134              	.L10:
1555:BMI088/Src/bmi08a.c **** 		/* Updating the error status */
1556:BMI088/Src/bmi08a.c **** 		rslt = BMI08X_E_COM_FAIL;
1557:BMI088/Src/bmi08a.c **** 	}
1558:BMI088/Src/bmi08a.c **** 
1559:BMI088/Src/bmi08a.c **** 	return rslt;
 135              		.loc 1 1559 2 is_stmt 1 view .LVU35
1560:BMI088/Src/bmi08a.c **** }
 136              		.loc 1 1560 1 is_stmt 0 view .LVU36
 137 001c 10BD     		pop	{r4, pc}
 138              	.LVL17:
 139              	.L13:
1549:BMI088/Src/bmi08a.c **** 	}
 140              		.loc 1 1549 3 is_stmt 1 view .LVU37
1549:BMI088/Src/bmi08a.c **** 	}
 141              		.loc 1 1549 12 is_stmt 0 view .LVU38
 142 001e 00F07F00 		and	r0, r0, #127
 143              	.LVL18:
ARM GAS  C:\Users\Lenovo\AppData\Local\Temp\ccWML6Ej.s 			page 31


1549:BMI088/Src/bmi08a.c **** 	}
 144              		.loc 1 1549 12 view .LVU39
 145 0022 F2E7     		b	.L9
 146              	.LVL19:
 147              	.L14:
1556:BMI088/Src/bmi08a.c **** 	}
 148              		.loc 1 1556 8 view .LVU40
 149 0024 6FF00100 		mvn	r0, #1
 150              	.LVL20:
1556:BMI088/Src/bmi08a.c **** 	}
 151              		.loc 1 1556 8 view .LVU41
 152 0028 F8E7     		b	.L10
 153              		.cfi_endproc
 154              	.LFE19:
 156              		.section	.text.stream_transfer_write,"ax",%progbits
 157              		.align	1
 158              		.syntax unified
 159              		.thumb
 160              		.thumb_func
 162              	stream_transfer_write:
 163              	.LVL21:
 164              	.LFB25:
1561:BMI088/Src/bmi08a.c **** 
1562:BMI088/Src/bmi08a.c **** /*!
1563:BMI088/Src/bmi08a.c ****  * @brief This API configures the pins which fire the
1564:BMI088/Src/bmi08a.c ****  * interrupt signal when any interrupt occurs.
1565:BMI088/Src/bmi08a.c ****  */
1566:BMI088/Src/bmi08a.c **** static int8_t set_int_pin_config(const struct bmi08x_accel_int_channel_cfg *int_config, const struc
1567:BMI088/Src/bmi08a.c **** {
1568:BMI088/Src/bmi08a.c **** 	int8_t rslt;
1569:BMI088/Src/bmi08a.c **** 	uint8_t reg_addr = 0, data, is_channel_invalid = FALSE;
1570:BMI088/Src/bmi08a.c **** 
1571:BMI088/Src/bmi08a.c **** 	switch (int_config->int_channel) {
1572:BMI088/Src/bmi08a.c **** 	case BMI08X_INT_CHANNEL_1:
1573:BMI088/Src/bmi08a.c **** 		/* update reg_addr based on channel inputs */
1574:BMI088/Src/bmi08a.c **** 		reg_addr = BMI08X_ACCEL_INT1_IO_CONF_REG;
1575:BMI088/Src/bmi08a.c **** 		break;
1576:BMI088/Src/bmi08a.c **** 
1577:BMI088/Src/bmi08a.c **** 	case BMI08X_INT_CHANNEL_2:
1578:BMI088/Src/bmi08a.c **** 		/* update reg_addr based on channel inputs */
1579:BMI088/Src/bmi08a.c **** 		reg_addr = BMI08X_ACCEL_INT2_IO_CONF_REG;
1580:BMI088/Src/bmi08a.c **** 		break;
1581:BMI088/Src/bmi08a.c **** 
1582:BMI088/Src/bmi08a.c **** 	default:
1583:BMI088/Src/bmi08a.c **** 		is_channel_invalid = TRUE;
1584:BMI088/Src/bmi08a.c **** 		break;
1585:BMI088/Src/bmi08a.c **** 	}
1586:BMI088/Src/bmi08a.c **** 
1587:BMI088/Src/bmi08a.c **** 	if (!is_channel_invalid) {
1588:BMI088/Src/bmi08a.c **** 		/* Read interrupt pin configuration register */
1589:BMI088/Src/bmi08a.c **** 		rslt = get_regs(reg_addr, &data, 1, dev);
1590:BMI088/Src/bmi08a.c **** 
1591:BMI088/Src/bmi08a.c **** 		if (rslt == BMI08X_OK) {
1592:BMI088/Src/bmi08a.c **** 			/* Update data with user configured bmi08x_int_cfg structure */
1593:BMI088/Src/bmi08a.c **** 			data = BMI08X_SET_BITS(data, BMI08X_ACCEL_INT_LVL, int_config->int_pin_cfg.lvl);
1594:BMI088/Src/bmi08a.c **** 			data = BMI08X_SET_BITS(data, BMI08X_ACCEL_INT_OD, int_config->int_pin_cfg.output_mode);
1595:BMI088/Src/bmi08a.c **** 
ARM GAS  C:\Users\Lenovo\AppData\Local\Temp\ccWML6Ej.s 			page 32


1596:BMI088/Src/bmi08a.c **** 			if (int_config->int_type == BMI08X_ACCEL_SYNC_INPUT) {
1597:BMI088/Src/bmi08a.c **** 				data = BMI08X_SET_BITS_POS_0(data, BMI08X_ACCEL_INT_EDGE,
1598:BMI088/Src/bmi08a.c **** 				BMI08X_ENABLE);
1599:BMI088/Src/bmi08a.c **** 				data = BMI08X_SET_BITS(data, BMI08X_ACCEL_INT_IN,
1600:BMI088/Src/bmi08a.c **** 				int_config->int_pin_cfg.enable_int_pin);
1601:BMI088/Src/bmi08a.c **** 				data = BMI08X_SET_BIT_VAL_0(data, BMI08X_ACCEL_INT_IO);
1602:BMI088/Src/bmi08a.c **** 			} else {
1603:BMI088/Src/bmi08a.c **** 				data = BMI08X_SET_BITS(data, BMI08X_ACCEL_INT_IO,
1604:BMI088/Src/bmi08a.c **** 				int_config->int_pin_cfg.enable_int_pin);
1605:BMI088/Src/bmi08a.c **** 				data = BMI08X_SET_BIT_VAL_0(data, BMI08X_ACCEL_INT_IN);
1606:BMI088/Src/bmi08a.c **** 			}
1607:BMI088/Src/bmi08a.c **** 
1608:BMI088/Src/bmi08a.c **** 			/* Write to interrupt pin configuration register */
1609:BMI088/Src/bmi08a.c **** 			rslt = set_regs(reg_addr, &data, 1, dev);
1610:BMI088/Src/bmi08a.c **** 		}
1611:BMI088/Src/bmi08a.c **** 	} else {
1612:BMI088/Src/bmi08a.c **** 		rslt = BMI08X_E_INVALID_INPUT;
1613:BMI088/Src/bmi08a.c **** 	}
1614:BMI088/Src/bmi08a.c **** 
1615:BMI088/Src/bmi08a.c **** 	return rslt;
1616:BMI088/Src/bmi08a.c **** }
1617:BMI088/Src/bmi08a.c **** 
1618:BMI088/Src/bmi08a.c **** /*!
1619:BMI088/Src/bmi08a.c ****  * @brief This API sets the data ready interrupt for accel sensor.
1620:BMI088/Src/bmi08a.c ****  */
1621:BMI088/Src/bmi08a.c **** static int8_t set_accel_data_ready_int(const struct bmi08x_accel_int_channel_cfg *int_config,
1622:BMI088/Src/bmi08a.c **** 	const struct bmi08x_dev *dev)
1623:BMI088/Src/bmi08a.c **** {
1624:BMI088/Src/bmi08a.c **** 	int8_t rslt;
1625:BMI088/Src/bmi08a.c **** 	uint8_t data = 0, conf;
1626:BMI088/Src/bmi08a.c **** 
1627:BMI088/Src/bmi08a.c **** 	/* Read interrupt map register */
1628:BMI088/Src/bmi08a.c **** 	rslt = get_regs(BMI08X_ACCEL_INT1_INT2_MAP_DATA_REG, &data, 1, dev);
1629:BMI088/Src/bmi08a.c **** 
1630:BMI088/Src/bmi08a.c **** 	if (rslt == BMI08X_OK) {
1631:BMI088/Src/bmi08a.c **** 		conf = int_config->int_pin_cfg.enable_int_pin;
1632:BMI088/Src/bmi08a.c **** 
1633:BMI088/Src/bmi08a.c **** 		switch (int_config->int_channel) {
1634:BMI088/Src/bmi08a.c **** 		case BMI08X_INT_CHANNEL_1:
1635:BMI088/Src/bmi08a.c **** 			/* Updating the data */
1636:BMI088/Src/bmi08a.c **** 			data = BMI08X_SET_BITS(data, BMI08X_ACCEL_INT1_DRDY, conf);
1637:BMI088/Src/bmi08a.c **** 			break;
1638:BMI088/Src/bmi08a.c **** 
1639:BMI088/Src/bmi08a.c **** 		case BMI08X_INT_CHANNEL_2:
1640:BMI088/Src/bmi08a.c **** 			/* Updating the data */
1641:BMI088/Src/bmi08a.c **** 			data = BMI08X_SET_BITS(data, BMI08X_ACCEL_INT2_DRDY, conf);
1642:BMI088/Src/bmi08a.c **** 			break;
1643:BMI088/Src/bmi08a.c **** 
1644:BMI088/Src/bmi08a.c **** 		default:
1645:BMI088/Src/bmi08a.c **** 			rslt = BMI08X_E_INVALID_INPUT;
1646:BMI088/Src/bmi08a.c **** 			break;
1647:BMI088/Src/bmi08a.c **** 		}
1648:BMI088/Src/bmi08a.c **** 
1649:BMI088/Src/bmi08a.c **** 		if (rslt == BMI08X_OK) {
1650:BMI088/Src/bmi08a.c **** 			/* Configure interrupt pins */
1651:BMI088/Src/bmi08a.c **** 			rslt = set_int_pin_config(int_config, dev);
1652:BMI088/Src/bmi08a.c **** 
ARM GAS  C:\Users\Lenovo\AppData\Local\Temp\ccWML6Ej.s 			page 33


1653:BMI088/Src/bmi08a.c **** 			if (rslt == BMI08X_OK) {
1654:BMI088/Src/bmi08a.c **** 				/* Write to interrupt map register */
1655:BMI088/Src/bmi08a.c **** 				rslt = set_regs(BMI08X_ACCEL_INT1_INT2_MAP_DATA_REG, &data, 1, dev);
1656:BMI088/Src/bmi08a.c **** 			}
1657:BMI088/Src/bmi08a.c **** 		}
1658:BMI088/Src/bmi08a.c **** 	}
1659:BMI088/Src/bmi08a.c **** 
1660:BMI088/Src/bmi08a.c **** 	return rslt;
1661:BMI088/Src/bmi08a.c **** }
1662:BMI088/Src/bmi08a.c **** 
1663:BMI088/Src/bmi08a.c **** /*!
1664:BMI088/Src/bmi08a.c ****  * @brief This API sets the synchronized data ready interrupt for accel sensor
1665:BMI088/Src/bmi08a.c ****  */
1666:BMI088/Src/bmi08a.c **** static int8_t set_accel_sync_data_ready_int(const struct bmi08x_accel_int_channel_cfg *int_config,
1667:BMI088/Src/bmi08a.c **** 	const struct bmi08x_dev *dev)
1668:BMI088/Src/bmi08a.c **** {
1669:BMI088/Src/bmi08a.c **** 	int8_t rslt;
1670:BMI088/Src/bmi08a.c **** 	uint8_t data, reg_addr = 0;
1671:BMI088/Src/bmi08a.c **** 	/* Check for null pointer in the device structure*/
1672:BMI088/Src/bmi08a.c **** 	rslt = null_ptr_check(dev);
1673:BMI088/Src/bmi08a.c **** 
1674:BMI088/Src/bmi08a.c **** 	if (rslt == BMI08X_OK) {
1675:BMI088/Src/bmi08a.c **** 
1676:BMI088/Src/bmi08a.c **** 		data = BMI08X_ACCEL_INTA_DISABLE;
1677:BMI088/Src/bmi08a.c **** 
1678:BMI088/Src/bmi08a.c **** 		switch (int_config->int_channel) {
1679:BMI088/Src/bmi08a.c **** 		case BMI08X_INT_CHANNEL_1:
1680:BMI088/Src/bmi08a.c **** 			reg_addr = BMI08X_ACCEL_INT1_MAP_REG;
1681:BMI088/Src/bmi08a.c **** 			break;
1682:BMI088/Src/bmi08a.c **** 
1683:BMI088/Src/bmi08a.c **** 		case BMI08X_INT_CHANNEL_2:
1684:BMI088/Src/bmi08a.c **** 			reg_addr = BMI08X_ACCEL_INT2_MAP_REG;
1685:BMI088/Src/bmi08a.c **** 			break;
1686:BMI088/Src/bmi08a.c **** 
1687:BMI088/Src/bmi08a.c **** 		default:
1688:BMI088/Src/bmi08a.c **** 			rslt = BMI08X_E_INVALID_INPUT;
1689:BMI088/Src/bmi08a.c **** 			break;
1690:BMI088/Src/bmi08a.c **** 		}
1691:BMI088/Src/bmi08a.c **** 
1692:BMI088/Src/bmi08a.c **** 		if (rslt == BMI08X_OK) {
1693:BMI088/Src/bmi08a.c **** 			if (int_config->int_pin_cfg.enable_int_pin == BMI08X_ENABLE) {
1694:BMI088/Src/bmi08a.c **** 				/*interrupt A mapped to INT1/INT2 */
1695:BMI088/Src/bmi08a.c **** 				data = BMI08X_ACCEL_INTA_ENABLE;
1696:BMI088/Src/bmi08a.c **** 			}
1697:BMI088/Src/bmi08a.c **** 			/* Write to interrupt map register */
1698:BMI088/Src/bmi08a.c **** 			rslt = set_regs(reg_addr, &data, 1, dev);
1699:BMI088/Src/bmi08a.c **** 
1700:BMI088/Src/bmi08a.c **** 			if (rslt == BMI08X_OK) {
1701:BMI088/Src/bmi08a.c **** 				/*set input interrupt configuration*/
1702:BMI088/Src/bmi08a.c **** 				rslt = set_int_pin_config(int_config, dev);
1703:BMI088/Src/bmi08a.c **** 			}
1704:BMI088/Src/bmi08a.c **** 		}
1705:BMI088/Src/bmi08a.c **** 	}
1706:BMI088/Src/bmi08a.c **** 
1707:BMI088/Src/bmi08a.c **** 	return rslt;
1708:BMI088/Src/bmi08a.c **** }
1709:BMI088/Src/bmi08a.c **** 
ARM GAS  C:\Users\Lenovo\AppData\Local\Temp\ccWML6Ej.s 			page 34


1710:BMI088/Src/bmi08a.c **** /*!
1711:BMI088/Src/bmi08a.c ****  * @brief This API configures the given interrupt channel as input for accel sensor
1712:BMI088/Src/bmi08a.c ****  */
1713:BMI088/Src/bmi08a.c **** static int8_t set_accel_sync_input(const struct bmi08x_accel_int_channel_cfg *int_config, const str
1714:BMI088/Src/bmi08a.c **** {
1715:BMI088/Src/bmi08a.c **** 	int8_t rslt;
1716:BMI088/Src/bmi08a.c **** 	/* Check for null pointer in the device structure*/
1717:BMI088/Src/bmi08a.c **** 	rslt = null_ptr_check(dev);
1718:BMI088/Src/bmi08a.c **** 
1719:BMI088/Src/bmi08a.c **** 	if (rslt == BMI08X_OK) {
1720:BMI088/Src/bmi08a.c **** 		/*set input interrupt configuration*/
1721:BMI088/Src/bmi08a.c **** 		rslt = set_int_pin_config(int_config, dev);
1722:BMI088/Src/bmi08a.c **** 	}
1723:BMI088/Src/bmi08a.c **** 
1724:BMI088/Src/bmi08a.c **** 	return rslt;
1725:BMI088/Src/bmi08a.c **** }
1726:BMI088/Src/bmi08a.c **** 
1727:BMI088/Src/bmi08a.c **** /*!
1728:BMI088/Src/bmi08a.c ****  * @brief This API sets the anymotion interrupt for accel sensor
1729:BMI088/Src/bmi08a.c ****  */
1730:BMI088/Src/bmi08a.c **** static int8_t set_accel_anymotion_int(const struct bmi08x_accel_int_channel_cfg *int_config,
1731:BMI088/Src/bmi08a.c **** 	const struct bmi08x_dev *dev)
1732:BMI088/Src/bmi08a.c **** {
1733:BMI088/Src/bmi08a.c **** 	int8_t rslt;
1734:BMI088/Src/bmi08a.c **** 	uint8_t data, reg_addr = 0;
1735:BMI088/Src/bmi08a.c **** 	/* Check for null pointer in the device structure*/
1736:BMI088/Src/bmi08a.c **** 	rslt = null_ptr_check(dev);
1737:BMI088/Src/bmi08a.c **** 
1738:BMI088/Src/bmi08a.c **** 	if (rslt == BMI08X_OK) {
1739:BMI088/Src/bmi08a.c **** 
1740:BMI088/Src/bmi08a.c **** 		data = BMI08X_ACCEL_INTB_DISABLE;
1741:BMI088/Src/bmi08a.c **** 
1742:BMI088/Src/bmi08a.c **** 		switch (int_config->int_channel) {
1743:BMI088/Src/bmi08a.c **** 		case BMI08X_INT_CHANNEL_1:
1744:BMI088/Src/bmi08a.c **** 			reg_addr = BMI08X_ACCEL_INT1_MAP_REG;
1745:BMI088/Src/bmi08a.c **** 			break;
1746:BMI088/Src/bmi08a.c **** 
1747:BMI088/Src/bmi08a.c **** 		case BMI08X_INT_CHANNEL_2:
1748:BMI088/Src/bmi08a.c **** 			reg_addr = BMI08X_ACCEL_INT2_MAP_REG;
1749:BMI088/Src/bmi08a.c **** 			break;
1750:BMI088/Src/bmi08a.c **** 
1751:BMI088/Src/bmi08a.c **** 		default:
1752:BMI088/Src/bmi08a.c **** 			rslt = BMI08X_E_INVALID_INPUT;
1753:BMI088/Src/bmi08a.c **** 			break;
1754:BMI088/Src/bmi08a.c **** 		}
1755:BMI088/Src/bmi08a.c **** 
1756:BMI088/Src/bmi08a.c **** 		if (rslt == BMI08X_OK) {
1757:BMI088/Src/bmi08a.c **** 			if (int_config->int_pin_cfg.enable_int_pin == BMI08X_ENABLE) {
1758:BMI088/Src/bmi08a.c **** 				/*interrupt B mapped to INT1/INT2 */
1759:BMI088/Src/bmi08a.c **** 				data = BMI08X_ACCEL_INTB_ENABLE;
1760:BMI088/Src/bmi08a.c **** 			}
1761:BMI088/Src/bmi08a.c **** 			/* Write to interrupt map register */
1762:BMI088/Src/bmi08a.c **** 			rslt = set_regs(reg_addr, &data, 1, dev);
1763:BMI088/Src/bmi08a.c **** 
1764:BMI088/Src/bmi08a.c **** 			if (rslt == BMI08X_OK) {
1765:BMI088/Src/bmi08a.c **** 				/*set input interrupt configuration*/
1766:BMI088/Src/bmi08a.c **** 				rslt = set_int_pin_config(int_config, dev);
ARM GAS  C:\Users\Lenovo\AppData\Local\Temp\ccWML6Ej.s 			page 35


1767:BMI088/Src/bmi08a.c **** 			}
1768:BMI088/Src/bmi08a.c **** 		}
1769:BMI088/Src/bmi08a.c **** 	}
1770:BMI088/Src/bmi08a.c **** 
1771:BMI088/Src/bmi08a.c **** 	return rslt;
1772:BMI088/Src/bmi08a.c **** }
1773:BMI088/Src/bmi08a.c **** 
1774:BMI088/Src/bmi08a.c **** 
1775:BMI088/Src/bmi08a.c **** /*!
1776:BMI088/Src/bmi08a.c ****  *  @brief This API writes the config stream data in memory using burst mode.
1777:BMI088/Src/bmi08a.c ****  */
1778:BMI088/Src/bmi08a.c **** static int8_t stream_transfer_write(const uint8_t *stream_data, uint16_t index, const struct bmi08x
1779:BMI088/Src/bmi08a.c **** {
 165              		.loc 1 1779 1 is_stmt 1 view -0
 166              		.cfi_startproc
 167              		@ args = 0, pretend = 0, frame = 8
 168              		@ frame_needed = 0, uses_anonymous_args = 0
 169              		.loc 1 1779 1 is_stmt 0 view .LVU43
 170 0000 30B5     		push	{r4, r5, lr}
 171              	.LCFI1:
 172              		.cfi_def_cfa_offset 12
 173              		.cfi_offset 4, -12
 174              		.cfi_offset 5, -8
 175              		.cfi_offset 14, -4
 176 0002 83B0     		sub	sp, sp, #12
 177              	.LCFI2:
 178              		.cfi_def_cfa_offset 24
 179 0004 0546     		mov	r5, r0
 180 0006 1446     		mov	r4, r2
1780:BMI088/Src/bmi08a.c **** 	int8_t rslt;
 181              		.loc 1 1780 2 is_stmt 1 view .LVU44
1781:BMI088/Src/bmi08a.c **** 	uint8_t asic_msb = (uint8_t)((index / 2) >> 4);
 182              		.loc 1 1781 2 view .LVU45
 183              		.loc 1 1781 21 is_stmt 0 view .LVU46
 184 0008 C1F34713 		ubfx	r3, r1, #5, #8
 185              		.loc 1 1781 10 view .LVU47
 186 000c 8DF80730 		strb	r3, [sp, #7]
1782:BMI088/Src/bmi08a.c **** 	uint8_t asic_lsb = ((index / 2) & 0x0F);
 187              		.loc 1 1782 2 is_stmt 1 view .LVU48
 188              		.loc 1 1782 34 is_stmt 0 view .LVU49
 189 0010 C1F34301 		ubfx	r1, r1, #1, #4
 190              	.LVL22:
 191              		.loc 1 1782 10 view .LVU50
 192 0014 8DF80610 		strb	r1, [sp, #6]
1783:BMI088/Src/bmi08a.c **** 
1784:BMI088/Src/bmi08a.c **** 	/* Write to feature config register */
1785:BMI088/Src/bmi08a.c **** 	rslt = set_regs(BMI08X_ACCEL_RESERVED_5B_REG, &asic_lsb, 1, dev);
 193              		.loc 1 1785 2 is_stmt 1 view .LVU51
 194              		.loc 1 1785 9 is_stmt 0 view .LVU52
 195 0018 1346     		mov	r3, r2
 196 001a 0122     		movs	r2, #1
 197              	.LVL23:
 198              		.loc 1 1785 9 view .LVU53
 199 001c 0DF10601 		add	r1, sp, #6
 200 0020 5B20     		movs	r0, #91
 201              	.LVL24:
 202              		.loc 1 1785 9 view .LVU54
ARM GAS  C:\Users\Lenovo\AppData\Local\Temp\ccWML6Ej.s 			page 36


 203 0022 FFF7FEFF 		bl	set_regs
 204              	.LVL25:
1786:BMI088/Src/bmi08a.c **** 
1787:BMI088/Src/bmi08a.c **** 	if (rslt == BMI08X_OK) {
 205              		.loc 1 1787 2 is_stmt 1 view .LVU55
 206              		.loc 1 1787 5 is_stmt 0 view .LVU56
 207 0026 08B1     		cbz	r0, .L18
 208              	.LVL26:
 209              	.L16:
1788:BMI088/Src/bmi08a.c **** 		/* Write to feature config register */
1789:BMI088/Src/bmi08a.c **** 		rslt = set_regs(BMI08X_ACCEL_RESERVED_5C_REG, &asic_msb, 1, dev);
1790:BMI088/Src/bmi08a.c **** 
1791:BMI088/Src/bmi08a.c **** 		if (rslt == BMI08X_OK) {
1792:BMI088/Src/bmi08a.c **** 			/* Write to feature config registers */
1793:BMI088/Src/bmi08a.c **** 			rslt = set_regs(BMI08X_ACCEL_FEATURE_CFG_REG, (uint8_t *)stream_data, dev->read_write_len, dev);
1794:BMI088/Src/bmi08a.c **** 		}
1795:BMI088/Src/bmi08a.c **** 	}
1796:BMI088/Src/bmi08a.c **** 
1797:BMI088/Src/bmi08a.c **** 	return rslt;
 210              		.loc 1 1797 2 is_stmt 1 view .LVU57
1798:BMI088/Src/bmi08a.c **** }
 211              		.loc 1 1798 1 is_stmt 0 view .LVU58
 212 0028 03B0     		add	sp, sp, #12
 213              	.LCFI3:
 214              		.cfi_remember_state
 215              		.cfi_def_cfa_offset 12
 216              		@ sp needed
 217 002a 30BD     		pop	{r4, r5, pc}
 218              	.LVL27:
 219              	.L18:
 220              	.LCFI4:
 221              		.cfi_restore_state
1789:BMI088/Src/bmi08a.c **** 
 222              		.loc 1 1789 3 is_stmt 1 view .LVU59
1789:BMI088/Src/bmi08a.c **** 
 223              		.loc 1 1789 10 is_stmt 0 view .LVU60
 224 002c 2346     		mov	r3, r4
 225 002e 0122     		movs	r2, #1
 226 0030 0DF10701 		add	r1, sp, #7
 227 0034 5C20     		movs	r0, #92
 228 0036 FFF7FEFF 		bl	set_regs
 229              	.LVL28:
1791:BMI088/Src/bmi08a.c **** 			/* Write to feature config registers */
 230              		.loc 1 1791 3 is_stmt 1 view .LVU61
1791:BMI088/Src/bmi08a.c **** 			/* Write to feature config registers */
 231              		.loc 1 1791 6 is_stmt 0 view .LVU62
 232 003a 0028     		cmp	r0, #0
 233 003c F4D1     		bne	.L16
1793:BMI088/Src/bmi08a.c **** 		}
 234              		.loc 1 1793 4 is_stmt 1 view .LVU63
1793:BMI088/Src/bmi08a.c **** 		}
 235              		.loc 1 1793 11 is_stmt 0 view .LVU64
 236 003e 2346     		mov	r3, r4
 237 0040 227D     		ldrb	r2, [r4, #20]	@ zero_extendqisi2
 238 0042 2946     		mov	r1, r5
 239 0044 5E20     		movs	r0, #94
 240              	.LVL29:
ARM GAS  C:\Users\Lenovo\AppData\Local\Temp\ccWML6Ej.s 			page 37


1793:BMI088/Src/bmi08a.c **** 		}
 241              		.loc 1 1793 11 view .LVU65
 242 0046 FFF7FEFF 		bl	set_regs
 243              	.LVL30:
1793:BMI088/Src/bmi08a.c **** 		}
 244              		.loc 1 1793 11 view .LVU66
 245 004a EDE7     		b	.L16
 246              		.cfi_endproc
 247              	.LFE25:
 249              		.section	.text.convert_lsb_g,"ax",%progbits
 250              		.align	1
 251              		.syntax unified
 252              		.thumb
 253              		.thumb_func
 255              	convert_lsb_g:
 256              	.LVL31:
 257              	.LFB30:
1799:BMI088/Src/bmi08a.c **** 
1800:BMI088/Src/bmi08a.c **** /*!
1801:BMI088/Src/bmi08a.c ****  * @brief This API performs the pre-requisites needed to perform the self test
1802:BMI088/Src/bmi08a.c ****  */
1803:BMI088/Src/bmi08a.c **** static int8_t enable_self_test(struct bmi08x_dev *dev)
1804:BMI088/Src/bmi08a.c **** {
1805:BMI088/Src/bmi08a.c **** 	int8_t rslt;
1806:BMI088/Src/bmi08a.c **** 
1807:BMI088/Src/bmi08a.c **** 	/* Configuring sensors to perform accel self test */
1808:BMI088/Src/bmi08a.c **** 	dev->accel_cfg.odr = BMI08X_ACCEL_ODR_1600_HZ;
1809:BMI088/Src/bmi08a.c **** 	dev->accel_cfg.bw = BMI08X_ACCEL_BW_NORMAL;
1810:BMI088/Src/bmi08a.c **** 
1811:BMI088/Src/bmi08a.c **** 	/*check the chip id of the accel variant and assign the range */
1812:BMI088/Src/bmi08a.c **** #if BMI08X_FEATURE_BMI085 == 1
1813:BMI088/Src/bmi08a.c **** 	dev->accel_cfg.range = BMI085_ACCEL_RANGE_16G;
1814:BMI088/Src/bmi08a.c **** #elif BMI08X_FEATURE_BMI088 == 1
1815:BMI088/Src/bmi08a.c **** 	dev->accel_cfg.range = BMI088_ACCEL_RANGE_24G;
1816:BMI088/Src/bmi08a.c **** #endif
1817:BMI088/Src/bmi08a.c **** 
1818:BMI088/Src/bmi08a.c **** 	dev->accel_cfg.power = BMI08X_ACCEL_PM_ACTIVE;
1819:BMI088/Src/bmi08a.c **** 	/* Enable Accel sensor */
1820:BMI088/Src/bmi08a.c **** 	rslt = bmi08a_set_power_mode(dev);
1821:BMI088/Src/bmi08a.c **** 
1822:BMI088/Src/bmi08a.c **** 	if (rslt == BMI08X_OK) {
1823:BMI088/Src/bmi08a.c **** 		/* Configure sensors with above configured settings */
1824:BMI088/Src/bmi08a.c **** 		rslt = bmi08a_set_meas_conf(dev);
1825:BMI088/Src/bmi08a.c **** 
1826:BMI088/Src/bmi08a.c **** 		if (rslt == BMI08X_OK) {
1827:BMI088/Src/bmi08a.c **** 			/* Self test delay */
1828:BMI088/Src/bmi08a.c **** 			dev->delay_ms(BMI08X_SELF_TEST_DELAY_MS);
1829:BMI088/Src/bmi08a.c **** 		}
1830:BMI088/Src/bmi08a.c **** 	}
1831:BMI088/Src/bmi08a.c **** 
1832:BMI088/Src/bmi08a.c **** 	return rslt;
1833:BMI088/Src/bmi08a.c **** }
1834:BMI088/Src/bmi08a.c **** 
1835:BMI088/Src/bmi08a.c **** /*!
1836:BMI088/Src/bmi08a.c ****  * @brief This API reads the accel data with the positive excitation
1837:BMI088/Src/bmi08a.c ****  */
1838:BMI088/Src/bmi08a.c **** static int8_t positive_excited_accel(struct bmi08x_sensor_data *accel_pos, const struct bmi08x_dev 
ARM GAS  C:\Users\Lenovo\AppData\Local\Temp\ccWML6Ej.s 			page 38


1839:BMI088/Src/bmi08a.c **** {
1840:BMI088/Src/bmi08a.c **** 	int8_t rslt;
1841:BMI088/Src/bmi08a.c **** 	uint8_t reg_data = BMI08X_ACCEL_POSITIVE_SELF_TEST;
1842:BMI088/Src/bmi08a.c **** 
1843:BMI088/Src/bmi08a.c **** 	/* Enable positive excitation for all 3 axes */
1844:BMI088/Src/bmi08a.c **** 	rslt = set_regs(BMI08X_ACCEL_SELF_TEST_REG, &reg_data, 1, dev);
1845:BMI088/Src/bmi08a.c **** 
1846:BMI088/Src/bmi08a.c **** 	if (rslt == BMI08X_OK) {
1847:BMI088/Src/bmi08a.c **** 		/* Read accel data after 50ms delay */
1848:BMI088/Src/bmi08a.c **** 		dev->delay_ms(BMI08X_SELF_TEST_DATA_READ_MS);
1849:BMI088/Src/bmi08a.c **** 		rslt = bmi08a_get_data(accel_pos, dev);
1850:BMI088/Src/bmi08a.c **** 	}
1851:BMI088/Src/bmi08a.c **** 
1852:BMI088/Src/bmi08a.c **** 	return rslt;
1853:BMI088/Src/bmi08a.c **** }
1854:BMI088/Src/bmi08a.c **** 
1855:BMI088/Src/bmi08a.c **** /*!
1856:BMI088/Src/bmi08a.c ****  * @brief This API reads the accel data with the negative excitation
1857:BMI088/Src/bmi08a.c ****  */
1858:BMI088/Src/bmi08a.c **** static int8_t negative_excited_accel(struct bmi08x_sensor_data *accel_neg, const struct bmi08x_dev 
1859:BMI088/Src/bmi08a.c **** {
1860:BMI088/Src/bmi08a.c **** 	int8_t rslt;
1861:BMI088/Src/bmi08a.c **** 	uint8_t reg_data = BMI08X_ACCEL_NEGATIVE_SELF_TEST;
1862:BMI088/Src/bmi08a.c **** 
1863:BMI088/Src/bmi08a.c **** 	/* Enable negative excitation for all 3 axes */
1864:BMI088/Src/bmi08a.c **** 	rslt = set_regs(BMI08X_ACCEL_SELF_TEST_REG, &reg_data, 1, dev);
1865:BMI088/Src/bmi08a.c **** 
1866:BMI088/Src/bmi08a.c **** 	if (rslt == BMI08X_OK) {
1867:BMI088/Src/bmi08a.c **** 		/* Read accel data after 50ms delay */
1868:BMI088/Src/bmi08a.c **** 		dev->delay_ms(BMI08X_SELF_TEST_DATA_READ_MS);
1869:BMI088/Src/bmi08a.c **** 		rslt = bmi08a_get_data(accel_neg, dev);
1870:BMI088/Src/bmi08a.c **** 
1871:BMI088/Src/bmi08a.c **** 		if (rslt == BMI08X_OK) {
1872:BMI088/Src/bmi08a.c **** 			/* Disable self test */
1873:BMI088/Src/bmi08a.c **** 			reg_data = BMI08X_ACCEL_SWITCH_OFF_SELF_TEST;
1874:BMI088/Src/bmi08a.c **** 			rslt = set_regs(BMI08X_ACCEL_SELF_TEST_REG, &reg_data, 1, dev);
1875:BMI088/Src/bmi08a.c **** 		}
1876:BMI088/Src/bmi08a.c **** 	}
1877:BMI088/Src/bmi08a.c **** 
1878:BMI088/Src/bmi08a.c **** 	return rslt;
1879:BMI088/Src/bmi08a.c **** }
1880:BMI088/Src/bmi08a.c **** 
1881:BMI088/Src/bmi08a.c **** /*!
1882:BMI088/Src/bmi08a.c ****  * @brief This API validates the self test results
1883:BMI088/Src/bmi08a.c ****  */
1884:BMI088/Src/bmi08a.c **** static int8_t validate_accel_self_test(const struct bmi08x_sensor_data *accel_pos,
1885:BMI088/Src/bmi08a.c **** 		const struct bmi08x_sensor_data *accel_neg)
1886:BMI088/Src/bmi08a.c **** {
1887:BMI088/Src/bmi08a.c **** 	int8_t rslt;
1888:BMI088/Src/bmi08a.c **** 	/*! Structure for difference of accel values in g */
1889:BMI088/Src/bmi08a.c **** 	struct selftest_delta_limit accel_data_diff = { 0 };
1890:BMI088/Src/bmi08a.c **** 	/*! Structure for difference of accel values in mg */
1891:BMI088/Src/bmi08a.c **** 	struct selftest_delta_limit accel_data_diff_mg = { 0 };
1892:BMI088/Src/bmi08a.c **** 
1893:BMI088/Src/bmi08a.c **** 	accel_data_diff.x = (uint16_t) (BMI08X_ABS(accel_pos->x) + BMI08X_ABS(accel_neg->x));
1894:BMI088/Src/bmi08a.c **** 	accel_data_diff.y = (uint16_t) (BMI08X_ABS(accel_pos->y) + BMI08X_ABS(accel_neg->y));
1895:BMI088/Src/bmi08a.c **** 	accel_data_diff.z = (uint16_t) (BMI08X_ABS(accel_pos->z) + BMI08X_ABS(accel_neg->z));
ARM GAS  C:\Users\Lenovo\AppData\Local\Temp\ccWML6Ej.s 			page 39


1896:BMI088/Src/bmi08a.c **** 
1897:BMI088/Src/bmi08a.c **** 	/*! Converting LSB of the differences of
1898:BMI088/Src/bmi08a.c **** 	 accel values to mg */
1899:BMI088/Src/bmi08a.c **** 	convert_lsb_g(&accel_data_diff, &accel_data_diff_mg);
1900:BMI088/Src/bmi08a.c **** 
1901:BMI088/Src/bmi08a.c **** 	/* Validating accel data by comparing with minimum value of the axes in mg */
1902:BMI088/Src/bmi08a.c **** 	/* x axis limit 1000mg, y axis limit 1000mg and z axis limit 500mg */
1903:BMI088/Src/bmi08a.c **** 	if (accel_data_diff_mg.x >= 1000 && accel_data_diff_mg.y >= 1000 && accel_data_diff_mg.z >= 500) {
1904:BMI088/Src/bmi08a.c **** 		/* Updating Okay status */
1905:BMI088/Src/bmi08a.c **** 		rslt = BMI08X_OK;
1906:BMI088/Src/bmi08a.c **** 	} else {
1907:BMI088/Src/bmi08a.c **** 		/* Updating Error status */
1908:BMI088/Src/bmi08a.c **** 		rslt = BMI08X_W_SELF_TEST_FAIL;
1909:BMI088/Src/bmi08a.c **** 	}
1910:BMI088/Src/bmi08a.c **** 
1911:BMI088/Src/bmi08a.c **** 	return rslt;
1912:BMI088/Src/bmi08a.c **** }
1913:BMI088/Src/bmi08a.c **** 
1914:BMI088/Src/bmi08a.c **** /*!
1915:BMI088/Src/bmi08a.c ****  *  @brief This API converts lsb value of axes to mg for self-test.
1916:BMI088/Src/bmi08a.c ****  */
1917:BMI088/Src/bmi08a.c **** static void convert_lsb_g(const struct selftest_delta_limit *accel_data_diff,
1918:BMI088/Src/bmi08a.c **** 		struct selftest_delta_limit *accel_data_diff_mg)
1919:BMI088/Src/bmi08a.c **** {
 258              		.loc 1 1919 1 is_stmt 1 view -0
 259              		.cfi_startproc
 260              		@ args = 0, pretend = 0, frame = 0
 261              		@ frame_needed = 0, uses_anonymous_args = 0
 262              		.loc 1 1919 1 is_stmt 0 view .LVU68
 263 0000 00B5     		push	{lr}
 264              	.LCFI5:
 265              		.cfi_def_cfa_offset 4
 266              		.cfi_offset 14, -4
1920:BMI088/Src/bmi08a.c **** 	/* accel x value in mg */
1921:BMI088/Src/bmi08a.c **** 	accel_data_diff_mg->x = (uint16_t) ((accel_data_diff->x / (int32_t)LSB_PER_G) * 1000);
 267              		.loc 1 1921 2 is_stmt 1 view .LVU69
 268              		.loc 1 1921 54 is_stmt 0 view .LVU70
 269 0002 B0F800C0 		ldrh	ip, [r0]
 270              		.loc 1 1921 26 view .LVU71
 271 0006 164B     		ldr	r3, .L21
 272 0008 A3FB0CE2 		umull	lr, r2, r3, ip
 273 000c ACEB020C 		sub	ip, ip, r2
 274 0010 02EB5C02 		add	r2, r2, ip, lsr #1
 275 0014 920A     		lsrs	r2, r2, #10
 276 0016 C2EB421C 		rsb	ip, r2, r2, lsl #5
 277 001a 02EB8C02 		add	r2, r2, ip, lsl #2
 278 001e D200     		lsls	r2, r2, #3
 279              		.loc 1 1921 24 view .LVU72
 280 0020 0A80     		strh	r2, [r1]	@ movhi
1922:BMI088/Src/bmi08a.c **** 	/* accel y value in mg */
1923:BMI088/Src/bmi08a.c **** 	accel_data_diff_mg->y = (uint16_t) ((accel_data_diff->y / (int32_t)LSB_PER_G) * 1000);
 281              		.loc 1 1923 2 is_stmt 1 view .LVU73
 282              		.loc 1 1923 54 is_stmt 0 view .LVU74
 283 0022 B0F802C0 		ldrh	ip, [r0, #2]
 284              		.loc 1 1923 26 view .LVU75
 285 0026 A3FB0CE2 		umull	lr, r2, r3, ip
 286 002a ACEB020C 		sub	ip, ip, r2
ARM GAS  C:\Users\Lenovo\AppData\Local\Temp\ccWML6Ej.s 			page 40


 287 002e 02EB5C02 		add	r2, r2, ip, lsr #1
 288 0032 920A     		lsrs	r2, r2, #10
 289 0034 C2EB421C 		rsb	ip, r2, r2, lsl #5
 290 0038 02EB8C02 		add	r2, r2, ip, lsl #2
 291 003c D200     		lsls	r2, r2, #3
 292              		.loc 1 1923 24 view .LVU76
 293 003e 4A80     		strh	r2, [r1, #2]	@ movhi
1924:BMI088/Src/bmi08a.c **** 	/* accel z value in mg */
1925:BMI088/Src/bmi08a.c **** 	accel_data_diff_mg->z = (uint16_t) ((accel_data_diff->z / (int32_t)LSB_PER_G) * 1000);
 294              		.loc 1 1925 2 is_stmt 1 view .LVU77
 295              		.loc 1 1925 54 is_stmt 0 view .LVU78
 296 0040 8288     		ldrh	r2, [r0, #4]
 297              		.loc 1 1925 26 view .LVU79
 298 0042 A3FB0203 		umull	r0, r3, r3, r2
 299              	.LVL32:
 300              		.loc 1 1925 26 view .LVU80
 301 0046 D21A     		subs	r2, r2, r3
 302 0048 03EB5203 		add	r3, r3, r2, lsr #1
 303 004c 9B0A     		lsrs	r3, r3, #10
 304 004e C3EB4312 		rsb	r2, r3, r3, lsl #5
 305 0052 03EB8203 		add	r3, r3, r2, lsl #2
 306 0056 DB00     		lsls	r3, r3, #3
 307              		.loc 1 1925 24 view .LVU81
 308 0058 8B80     		strh	r3, [r1, #4]	@ movhi
1926:BMI088/Src/bmi08a.c **** }
 309              		.loc 1 1926 1 view .LVU82
 310 005a 5DF804FB 		ldr	pc, [sp], #4
 311              	.L22:
 312 005e 00BF     		.align	2
 313              	.L21:
 314 0060 81011880 		.word	-2145910399
 315              		.cfi_endproc
 316              	.LFE30:
 318              		.section	.text.validate_accel_self_test,"ax",%progbits
 319              		.align	1
 320              		.syntax unified
 321              		.thumb
 322              		.thumb_func
 324              	validate_accel_self_test:
 325              	.LVL33:
 326              	.LFB29:
1886:BMI088/Src/bmi08a.c **** 	int8_t rslt;
 327              		.loc 1 1886 1 is_stmt 1 view -0
 328              		.cfi_startproc
 329              		@ args = 0, pretend = 0, frame = 16
 330              		@ frame_needed = 0, uses_anonymous_args = 0
1886:BMI088/Src/bmi08a.c **** 	int8_t rslt;
 331              		.loc 1 1886 1 is_stmt 0 view .LVU84
 332 0000 00B5     		push	{lr}
 333              	.LCFI6:
 334              		.cfi_def_cfa_offset 4
 335              		.cfi_offset 14, -4
 336 0002 85B0     		sub	sp, sp, #20
 337              	.LCFI7:
 338              		.cfi_def_cfa_offset 24
1887:BMI088/Src/bmi08a.c **** 	/*! Structure for difference of accel values in g */
 339              		.loc 1 1887 2 is_stmt 1 view .LVU85
ARM GAS  C:\Users\Lenovo\AppData\Local\Temp\ccWML6Ej.s 			page 41


1889:BMI088/Src/bmi08a.c **** 	/*! Structure for difference of accel values in mg */
 340              		.loc 1 1889 2 view .LVU86
1889:BMI088/Src/bmi08a.c **** 	/*! Structure for difference of accel values in mg */
 341              		.loc 1 1889 30 is_stmt 0 view .LVU87
 342 0004 0023     		movs	r3, #0
 343 0006 0293     		str	r3, [sp, #8]
 344 0008 ADF80C30 		strh	r3, [sp, #12]	@ movhi
1891:BMI088/Src/bmi08a.c **** 
 345              		.loc 1 1891 2 is_stmt 1 view .LVU88
1891:BMI088/Src/bmi08a.c **** 
 346              		.loc 1 1891 30 is_stmt 0 view .LVU89
 347 000c 0093     		str	r3, [sp]
 348 000e ADF80430 		strh	r3, [sp, #4]	@ movhi
1893:BMI088/Src/bmi08a.c **** 	accel_data_diff.y = (uint16_t) (BMI08X_ABS(accel_pos->y) + BMI08X_ABS(accel_neg->y));
 349              		.loc 1 1893 2 is_stmt 1 view .LVU90
1893:BMI088/Src/bmi08a.c **** 	accel_data_diff.y = (uint16_t) (BMI08X_ABS(accel_pos->y) + BMI08X_ABS(accel_neg->y));
 350              		.loc 1 1893 34 is_stmt 0 view .LVU91
 351 0012 0368     		ldr	r3, [r0]
1893:BMI088/Src/bmi08a.c **** 	accel_data_diff.y = (uint16_t) (BMI08X_ABS(accel_pos->y) + BMI08X_ABS(accel_neg->y));
 352              		.loc 1 1893 22 view .LVU92
 353 0014 002B     		cmp	r3, #0
 354 0016 32DD     		ble	.L24
1893:BMI088/Src/bmi08a.c **** 	accel_data_diff.y = (uint16_t) (BMI08X_ABS(accel_pos->y) + BMI08X_ABS(accel_neg->y));
 355              		.loc 1 1893 22 discriminator 1 view .LVU93
 356 0018 9BB2     		uxth	r3, r3
 357              	.L25:
1893:BMI088/Src/bmi08a.c **** 	accel_data_diff.y = (uint16_t) (BMI08X_ABS(accel_pos->y) + BMI08X_ABS(accel_neg->y));
 358              		.loc 1 1893 61 discriminator 4 view .LVU94
 359 001a 0A68     		ldr	r2, [r1]
1893:BMI088/Src/bmi08a.c **** 	accel_data_diff.y = (uint16_t) (BMI08X_ABS(accel_pos->y) + BMI08X_ABS(accel_neg->y));
 360              		.loc 1 1893 22 discriminator 4 view .LVU95
 361 001c 002A     		cmp	r2, #0
 362 001e 31DD     		ble	.L26
1893:BMI088/Src/bmi08a.c **** 	accel_data_diff.y = (uint16_t) (BMI08X_ABS(accel_pos->y) + BMI08X_ABS(accel_neg->y));
 363              		.loc 1 1893 22 discriminator 5 view .LVU96
 364 0020 92B2     		uxth	r2, r2
 365              	.L27:
1893:BMI088/Src/bmi08a.c **** 	accel_data_diff.y = (uint16_t) (BMI08X_ABS(accel_pos->y) + BMI08X_ABS(accel_neg->y));
 366              		.loc 1 1893 22 discriminator 8 view .LVU97
 367 0022 1344     		add	r3, r3, r2
1893:BMI088/Src/bmi08a.c **** 	accel_data_diff.y = (uint16_t) (BMI08X_ABS(accel_pos->y) + BMI08X_ABS(accel_neg->y));
 368              		.loc 1 1893 20 discriminator 8 view .LVU98
 369 0024 ADF80830 		strh	r3, [sp, #8]	@ movhi
1894:BMI088/Src/bmi08a.c **** 	accel_data_diff.z = (uint16_t) (BMI08X_ABS(accel_pos->z) + BMI08X_ABS(accel_neg->z));
 370              		.loc 1 1894 2 is_stmt 1 discriminator 8 view .LVU99
1894:BMI088/Src/bmi08a.c **** 	accel_data_diff.z = (uint16_t) (BMI08X_ABS(accel_pos->z) + BMI08X_ABS(accel_neg->z));
 371              		.loc 1 1894 34 is_stmt 0 discriminator 8 view .LVU100
 372 0028 4368     		ldr	r3, [r0, #4]
1894:BMI088/Src/bmi08a.c **** 	accel_data_diff.z = (uint16_t) (BMI08X_ABS(accel_pos->z) + BMI08X_ABS(accel_neg->z));
 373              		.loc 1 1894 22 discriminator 8 view .LVU101
 374 002a 002B     		cmp	r3, #0
 375 002c 2DDD     		ble	.L28
1894:BMI088/Src/bmi08a.c **** 	accel_data_diff.z = (uint16_t) (BMI08X_ABS(accel_pos->z) + BMI08X_ABS(accel_neg->z));
 376              		.loc 1 1894 22 discriminator 1 view .LVU102
 377 002e 9BB2     		uxth	r3, r3
 378              	.L29:
1894:BMI088/Src/bmi08a.c **** 	accel_data_diff.z = (uint16_t) (BMI08X_ABS(accel_pos->z) + BMI08X_ABS(accel_neg->z));
ARM GAS  C:\Users\Lenovo\AppData\Local\Temp\ccWML6Ej.s 			page 42


 379              		.loc 1 1894 61 discriminator 4 view .LVU103
 380 0030 4A68     		ldr	r2, [r1, #4]
1894:BMI088/Src/bmi08a.c **** 	accel_data_diff.z = (uint16_t) (BMI08X_ABS(accel_pos->z) + BMI08X_ABS(accel_neg->z));
 381              		.loc 1 1894 22 discriminator 4 view .LVU104
 382 0032 002A     		cmp	r2, #0
 383 0034 2CDD     		ble	.L30
1894:BMI088/Src/bmi08a.c **** 	accel_data_diff.z = (uint16_t) (BMI08X_ABS(accel_pos->z) + BMI08X_ABS(accel_neg->z));
 384              		.loc 1 1894 22 discriminator 5 view .LVU105
 385 0036 92B2     		uxth	r2, r2
 386              	.L31:
1894:BMI088/Src/bmi08a.c **** 	accel_data_diff.z = (uint16_t) (BMI08X_ABS(accel_pos->z) + BMI08X_ABS(accel_neg->z));
 387              		.loc 1 1894 22 discriminator 8 view .LVU106
 388 0038 1344     		add	r3, r3, r2
1894:BMI088/Src/bmi08a.c **** 	accel_data_diff.z = (uint16_t) (BMI08X_ABS(accel_pos->z) + BMI08X_ABS(accel_neg->z));
 389              		.loc 1 1894 20 discriminator 8 view .LVU107
 390 003a ADF80A30 		strh	r3, [sp, #10]	@ movhi
1895:BMI088/Src/bmi08a.c **** 
 391              		.loc 1 1895 2 is_stmt 1 discriminator 8 view .LVU108
1895:BMI088/Src/bmi08a.c **** 
 392              		.loc 1 1895 34 is_stmt 0 discriminator 8 view .LVU109
 393 003e 8368     		ldr	r3, [r0, #8]
1895:BMI088/Src/bmi08a.c **** 
 394              		.loc 1 1895 22 discriminator 8 view .LVU110
 395 0040 002B     		cmp	r3, #0
 396 0042 28DD     		ble	.L32
1895:BMI088/Src/bmi08a.c **** 
 397              		.loc 1 1895 22 discriminator 1 view .LVU111
 398 0044 9BB2     		uxth	r3, r3
 399              	.L33:
1895:BMI088/Src/bmi08a.c **** 
 400              		.loc 1 1895 61 discriminator 4 view .LVU112
 401 0046 8A68     		ldr	r2, [r1, #8]
1895:BMI088/Src/bmi08a.c **** 
 402              		.loc 1 1895 22 discriminator 4 view .LVU113
 403 0048 002A     		cmp	r2, #0
 404 004a 27DD     		ble	.L34
1895:BMI088/Src/bmi08a.c **** 
 405              		.loc 1 1895 22 discriminator 5 view .LVU114
 406 004c 92B2     		uxth	r2, r2
 407              	.L35:
1895:BMI088/Src/bmi08a.c **** 
 408              		.loc 1 1895 22 discriminator 8 view .LVU115
 409 004e 1344     		add	r3, r3, r2
1895:BMI088/Src/bmi08a.c **** 
 410              		.loc 1 1895 20 discriminator 8 view .LVU116
 411 0050 ADF80C30 		strh	r3, [sp, #12]	@ movhi
1899:BMI088/Src/bmi08a.c **** 
 412              		.loc 1 1899 2 is_stmt 1 discriminator 8 view .LVU117
 413 0054 6946     		mov	r1, sp
 414              	.LVL34:
1899:BMI088/Src/bmi08a.c **** 
 415              		.loc 1 1899 2 is_stmt 0 discriminator 8 view .LVU118
 416 0056 02A8     		add	r0, sp, #8
 417              	.LVL35:
1899:BMI088/Src/bmi08a.c **** 
 418              		.loc 1 1899 2 discriminator 8 view .LVU119
 419 0058 FFF7FEFF 		bl	convert_lsb_g
ARM GAS  C:\Users\Lenovo\AppData\Local\Temp\ccWML6Ej.s 			page 43


 420              	.LVL36:
1903:BMI088/Src/bmi08a.c **** 		/* Updating Okay status */
 421              		.loc 1 1903 2 is_stmt 1 discriminator 8 view .LVU120
1903:BMI088/Src/bmi08a.c **** 		/* Updating Okay status */
 422              		.loc 1 1903 24 is_stmt 0 discriminator 8 view .LVU121
 423 005c BDF80030 		ldrh	r3, [sp]
1903:BMI088/Src/bmi08a.c **** 		/* Updating Okay status */
 424              		.loc 1 1903 5 discriminator 8 view .LVU122
 425 0060 B3F57A7F 		cmp	r3, #1000
 426 0064 1DD3     		bcc	.L37
1903:BMI088/Src/bmi08a.c **** 		/* Updating Okay status */
 427              		.loc 1 1903 56 discriminator 1 view .LVU123
 428 0066 BDF80230 		ldrh	r3, [sp, #2]
1903:BMI088/Src/bmi08a.c **** 		/* Updating Okay status */
 429              		.loc 1 1903 35 discriminator 1 view .LVU124
 430 006a B3F57A7F 		cmp	r3, #1000
 431 006e 1CD3     		bcc	.L38
1903:BMI088/Src/bmi08a.c **** 		/* Updating Okay status */
 432              		.loc 1 1903 88 discriminator 2 view .LVU125
 433 0070 BDF80430 		ldrh	r3, [sp, #4]
1903:BMI088/Src/bmi08a.c **** 		/* Updating Okay status */
 434              		.loc 1 1903 67 discriminator 2 view .LVU126
 435 0074 B3F5FA7F 		cmp	r3, #500
 436 0078 19D2     		bcs	.L39
1908:BMI088/Src/bmi08a.c **** 	}
 437              		.loc 1 1908 8 view .LVU127
 438 007a 0120     		movs	r0, #1
 439 007c 12E0     		b	.L36
 440              	.LVL37:
 441              	.L24:
1893:BMI088/Src/bmi08a.c **** 	accel_data_diff.y = (uint16_t) (BMI08X_ABS(accel_pos->y) + BMI08X_ABS(accel_neg->y));
 442              		.loc 1 1893 22 discriminator 2 view .LVU128
 443 007e 5B42     		rsbs	r3, r3, #0
 444 0080 9BB2     		uxth	r3, r3
 445 0082 CAE7     		b	.L25
 446              	.L26:
1893:BMI088/Src/bmi08a.c **** 	accel_data_diff.y = (uint16_t) (BMI08X_ABS(accel_pos->y) + BMI08X_ABS(accel_neg->y));
 447              		.loc 1 1893 22 discriminator 6 view .LVU129
 448 0084 5242     		rsbs	r2, r2, #0
 449 0086 92B2     		uxth	r2, r2
 450 0088 CBE7     		b	.L27
 451              	.L28:
1894:BMI088/Src/bmi08a.c **** 	accel_data_diff.z = (uint16_t) (BMI08X_ABS(accel_pos->z) + BMI08X_ABS(accel_neg->z));
 452              		.loc 1 1894 22 discriminator 2 view .LVU130
 453 008a 5B42     		rsbs	r3, r3, #0
 454 008c 9BB2     		uxth	r3, r3
 455 008e CFE7     		b	.L29
 456              	.L30:
1894:BMI088/Src/bmi08a.c **** 	accel_data_diff.z = (uint16_t) (BMI08X_ABS(accel_pos->z) + BMI08X_ABS(accel_neg->z));
 457              		.loc 1 1894 22 discriminator 6 view .LVU131
 458 0090 5242     		rsbs	r2, r2, #0
 459 0092 92B2     		uxth	r2, r2
 460 0094 D0E7     		b	.L31
 461              	.L32:
1895:BMI088/Src/bmi08a.c **** 
 462              		.loc 1 1895 22 discriminator 2 view .LVU132
 463 0096 5B42     		rsbs	r3, r3, #0
ARM GAS  C:\Users\Lenovo\AppData\Local\Temp\ccWML6Ej.s 			page 44


 464 0098 9BB2     		uxth	r3, r3
 465 009a D4E7     		b	.L33
 466              	.L34:
1895:BMI088/Src/bmi08a.c **** 
 467              		.loc 1 1895 22 discriminator 6 view .LVU133
 468 009c 5242     		rsbs	r2, r2, #0
 469 009e 92B2     		uxth	r2, r2
 470 00a0 D5E7     		b	.L35
 471              	.LVL38:
 472              	.L37:
1908:BMI088/Src/bmi08a.c **** 	}
 473              		.loc 1 1908 8 view .LVU134
 474 00a2 0120     		movs	r0, #1
 475              	.L36:
 476              	.LVL39:
1911:BMI088/Src/bmi08a.c **** }
 477              		.loc 1 1911 2 is_stmt 1 view .LVU135
1912:BMI088/Src/bmi08a.c **** 
 478              		.loc 1 1912 1 is_stmt 0 view .LVU136
 479 00a4 05B0     		add	sp, sp, #20
 480              	.LCFI8:
 481              		.cfi_remember_state
 482              		.cfi_def_cfa_offset 4
 483              		@ sp needed
 484 00a6 5DF804FB 		ldr	pc, [sp], #4
 485              	.LVL40:
 486              	.L38:
 487              	.LCFI9:
 488              		.cfi_restore_state
1908:BMI088/Src/bmi08a.c **** 	}
 489              		.loc 1 1908 8 view .LVU137
 490 00aa 0120     		movs	r0, #1
 491 00ac FAE7     		b	.L36
 492              	.L39:
1905:BMI088/Src/bmi08a.c **** 	} else {
 493              		.loc 1 1905 8 view .LVU138
 494 00ae 0020     		movs	r0, #0
 495 00b0 F8E7     		b	.L36
 496              		.cfi_endproc
 497              	.LFE29:
 499              		.section	.text.get_regs,"ax",%progbits
 500              		.align	1
 501              		.syntax unified
 502              		.thumb
 503              		.thumb_func
 505              	get_regs:
 506              	.LVL41:
 507              	.LFB18:
1514:BMI088/Src/bmi08a.c **** 	int8_t rslt;
 508              		.loc 1 1514 1 is_stmt 1 view -0
 509              		.cfi_startproc
 510              		@ args = 0, pretend = 0, frame = 0
 511              		@ frame_needed = 1, uses_anonymous_args = 0
1514:BMI088/Src/bmi08a.c **** 	int8_t rslt;
 512              		.loc 1 1514 1 is_stmt 0 view .LVU140
 513 0000 2DE9F041 		push	{r4, r5, r6, r7, r8, lr}
 514              	.LCFI10:
ARM GAS  C:\Users\Lenovo\AppData\Local\Temp\ccWML6Ej.s 			page 45


 515              		.cfi_def_cfa_offset 24
 516              		.cfi_offset 4, -24
 517              		.cfi_offset 5, -20
 518              		.cfi_offset 6, -16
 519              		.cfi_offset 7, -12
 520              		.cfi_offset 8, -8
 521              		.cfi_offset 14, -4
 522 0004 00AF     		add	r7, sp, #0
 523              	.LCFI11:
 524              		.cfi_def_cfa_register 7
 525 0006 0E46     		mov	r6, r1
 526 0008 1546     		mov	r5, r2
 527 000a 1C46     		mov	r4, r3
1515:BMI088/Src/bmi08a.c **** 	uint16_t index;
 528              		.loc 1 1515 2 is_stmt 1 view .LVU141
1516:BMI088/Src/bmi08a.c **** 	uint16_t temp_len = len + dev->dummy_byte;
 529              		.loc 1 1516 2 view .LVU142
1517:BMI088/Src/bmi08a.c **** 	uint8_t temp_buff[temp_len];
 530              		.loc 1 1517 2 view .LVU143
1517:BMI088/Src/bmi08a.c **** 	uint8_t temp_buff[temp_len];
 531              		.loc 1 1517 31 is_stmt 0 view .LVU144
 532 000c 5B79     		ldrb	r3, [r3, #5]	@ zero_extendqisi2
 533              	.LVL42:
1517:BMI088/Src/bmi08a.c **** 	uint8_t temp_buff[temp_len];
 534              		.loc 1 1517 11 view .LVU145
 535 000e 1344     		add	r3, r3, r2
 536 0010 9BB2     		uxth	r3, r3
 537              	.LVL43:
1518:BMI088/Src/bmi08a.c **** 
 538              		.loc 1 1518 2 is_stmt 1 view .LVU146
1518:BMI088/Src/bmi08a.c **** 
 539              		.loc 1 1518 10 is_stmt 0 view .LVU147
 540 0012 DA1D     		adds	r2, r3, #7
 541              	.LVL44:
1518:BMI088/Src/bmi08a.c **** 
 542              		.loc 1 1518 10 view .LVU148
 543 0014 D208     		lsrs	r2, r2, #3
 544 0016 6946     		mov	r1, sp
 545              	.LVL45:
1518:BMI088/Src/bmi08a.c **** 
 546              		.loc 1 1518 10 view .LVU149
 547 0018 A1EBC202 		sub	r2, r1, r2, lsl #3
 548 001c 9546     		mov	sp, r2
 549 001e E846     		mov	r8, sp
 550              	.LVL46:
1520:BMI088/Src/bmi08a.c **** 		/* Configuring reg_addr for SPI Interface */
 551              		.loc 1 1520 2 is_stmt 1 view .LVU150
1520:BMI088/Src/bmi08a.c **** 		/* Configuring reg_addr for SPI Interface */
 552              		.loc 1 1520 9 is_stmt 0 view .LVU151
 553 0020 2279     		ldrb	r2, [r4, #4]	@ zero_extendqisi2
 554              	.LVL47:
1520:BMI088/Src/bmi08a.c **** 		/* Configuring reg_addr for SPI Interface */
 555              		.loc 1 1520 5 view .LVU152
 556 0022 012A     		cmp	r2, #1
 557 0024 09D0     		beq	.L48
 558              	.L42:
1525:BMI088/Src/bmi08a.c **** 
ARM GAS  C:\Users\Lenovo\AppData\Local\Temp\ccWML6Ej.s 			page 46


 559              		.loc 1 1525 2 is_stmt 1 view .LVU153
1525:BMI088/Src/bmi08a.c **** 
 560              		.loc 1 1525 9 is_stmt 0 view .LVU154
 561 0026 4246     		mov	r2, r8
 562 0028 0146     		mov	r1, r0
 563 002a A078     		ldrb	r0, [r4, #2]	@ zero_extendqisi2
 564              	.LVL48:
1525:BMI088/Src/bmi08a.c **** 
 565              		.loc 1 1525 9 view .LVU155
 566 002c D4F818C0 		ldr	ip, [r4, #24]
 567 0030 E047     		blx	ip
 568              	.LVL49:
1527:BMI088/Src/bmi08a.c **** 		for (index = 0; index < len; index++) {
 569              		.loc 1 1527 2 is_stmt 1 view .LVU156
1527:BMI088/Src/bmi08a.c **** 		for (index = 0; index < len; index++) {
 570              		.loc 1 1527 5 is_stmt 0 view .LVU157
 571 0032 28B9     		cbnz	r0, .L49
1528:BMI088/Src/bmi08a.c **** 			/* Updating the data buffer */
 572              		.loc 1 1528 14 view .LVU158
 573 0034 4FF0000C 		mov	ip, #0
 574 0038 0FE0     		b	.L43
 575              	.LVL50:
 576              	.L48:
1522:BMI088/Src/bmi08a.c **** 	}
 577              		.loc 1 1522 3 is_stmt 1 view .LVU159
1522:BMI088/Src/bmi08a.c **** 	}
 578              		.loc 1 1522 12 is_stmt 0 view .LVU160
 579 003a 40F08000 		orr	r0, r0, #128
 580              	.LVL51:
1522:BMI088/Src/bmi08a.c **** 	}
 581              		.loc 1 1522 12 view .LVU161
 582 003e F2E7     		b	.L42
 583              	.LVL52:
 584              	.L49:
1534:BMI088/Src/bmi08a.c **** 	}
 585              		.loc 1 1534 8 view .LVU162
 586 0040 6FF00100 		mvn	r0, #1
 587              	.LVL53:
1534:BMI088/Src/bmi08a.c **** 	}
 588              		.loc 1 1534 8 view .LVU163
 589 0044 0BE0     		b	.L44
 590              	.LVL54:
 591              	.L45:
1530:BMI088/Src/bmi08a.c **** 		}
 592              		.loc 1 1530 4 is_stmt 1 discriminator 3 view .LVU164
1530:BMI088/Src/bmi08a.c **** 		}
 593              		.loc 1 1530 43 is_stmt 0 discriminator 3 view .LVU165
 594 0046 6379     		ldrb	r3, [r4, #5]	@ zero_extendqisi2
1530:BMI088/Src/bmi08a.c **** 		}
 595              		.loc 1 1530 38 discriminator 3 view .LVU166
 596 0048 6344     		add	r3, r3, ip
1530:BMI088/Src/bmi08a.c **** 		}
 597              		.loc 1 1530 31 discriminator 3 view .LVU167
 598 004a 18F80330 		ldrb	r3, [r8, r3]	@ zero_extendqisi2
1530:BMI088/Src/bmi08a.c **** 		}
 599              		.loc 1 1530 20 discriminator 3 view .LVU168
 600 004e 06F80C30 		strb	r3, [r6, ip]
ARM GAS  C:\Users\Lenovo\AppData\Local\Temp\ccWML6Ej.s 			page 47


1528:BMI088/Src/bmi08a.c **** 			/* Updating the data buffer */
 601              		.loc 1 1528 32 is_stmt 1 discriminator 3 view .LVU169
1528:BMI088/Src/bmi08a.c **** 			/* Updating the data buffer */
 602              		.loc 1 1528 37 is_stmt 0 discriminator 3 view .LVU170
 603 0052 0CF1010C 		add	ip, ip, #1
 604              	.LVL55:
1528:BMI088/Src/bmi08a.c **** 			/* Updating the data buffer */
 605              		.loc 1 1528 37 discriminator 3 view .LVU171
 606 0056 1FFA8CFC 		uxth	ip, ip
 607              	.LVL56:
 608              	.L43:
1528:BMI088/Src/bmi08a.c **** 			/* Updating the data buffer */
 609              		.loc 1 1528 19 is_stmt 1 discriminator 1 view .LVU172
1528:BMI088/Src/bmi08a.c **** 			/* Updating the data buffer */
 610              		.loc 1 1528 3 is_stmt 0 discriminator 1 view .LVU173
 611 005a AC45     		cmp	ip, r5
 612 005c F3D3     		bcc	.L45
 613              	.LVL57:
 614              	.L44:
1537:BMI088/Src/bmi08a.c **** }
 615              		.loc 1 1537 2 is_stmt 1 view .LVU174
1538:BMI088/Src/bmi08a.c **** 
 616              		.loc 1 1538 1 is_stmt 0 view .LVU175
 617 005e BD46     		mov	sp, r7
 618              	.LCFI12:
 619              		.cfi_def_cfa_register 13
 620              		@ sp needed
 621 0060 BDE8F081 		pop	{r4, r5, r6, r7, r8, pc}
1538:BMI088/Src/bmi08a.c **** 
 622              		.loc 1 1538 1 view .LVU176
 623              		.cfi_endproc
 624              	.LFE18:
 626              		.section	.text.set_int_pin_config,"ax",%progbits
 627              		.align	1
 628              		.syntax unified
 629              		.thumb
 630              		.thumb_func
 632              	set_int_pin_config:
 633              	.LVL58:
 634              	.LFB20:
1567:BMI088/Src/bmi08a.c **** 	int8_t rslt;
 635              		.loc 1 1567 1 is_stmt 1 view -0
 636              		.cfi_startproc
 637              		@ args = 0, pretend = 0, frame = 8
 638              		@ frame_needed = 0, uses_anonymous_args = 0
1567:BMI088/Src/bmi08a.c **** 	int8_t rslt;
 639              		.loc 1 1567 1 is_stmt 0 view .LVU178
 640 0000 70B5     		push	{r4, r5, r6, lr}
 641              	.LCFI13:
 642              		.cfi_def_cfa_offset 16
 643              		.cfi_offset 4, -16
 644              		.cfi_offset 5, -12
 645              		.cfi_offset 6, -8
 646              		.cfi_offset 14, -4
 647 0002 82B0     		sub	sp, sp, #8
 648              	.LCFI14:
 649              		.cfi_def_cfa_offset 24
ARM GAS  C:\Users\Lenovo\AppData\Local\Temp\ccWML6Ej.s 			page 48


 650 0004 0446     		mov	r4, r0
 651 0006 0D46     		mov	r5, r1
1568:BMI088/Src/bmi08a.c **** 	uint8_t reg_addr = 0, data, is_channel_invalid = FALSE;
 652              		.loc 1 1568 2 is_stmt 1 view .LVU179
1569:BMI088/Src/bmi08a.c **** 
 653              		.loc 1 1569 2 view .LVU180
 654              	.LVL59:
1571:BMI088/Src/bmi08a.c **** 	case BMI08X_INT_CHANNEL_1:
 655              		.loc 1 1571 2 view .LVU181
1571:BMI088/Src/bmi08a.c **** 	case BMI08X_INT_CHANNEL_1:
 656              		.loc 1 1571 20 is_stmt 0 view .LVU182
 657 0008 0378     		ldrb	r3, [r0]	@ zero_extendqisi2
1571:BMI088/Src/bmi08a.c **** 	case BMI08X_INT_CHANNEL_1:
 658              		.loc 1 1571 2 view .LVU183
 659 000a 002B     		cmp	r3, #0
 660 000c 39D0     		beq	.L55
 661 000e 012B     		cmp	r3, #1
 662 0010 4DD1     		bne	.L56
1579:BMI088/Src/bmi08a.c **** 		break;
 663              		.loc 1 1579 12 view .LVU184
 664 0012 5426     		movs	r6, #84
 665              	.L51:
 666              	.LVL60:
1589:BMI088/Src/bmi08a.c **** 
 667              		.loc 1 1589 3 is_stmt 1 view .LVU185
1589:BMI088/Src/bmi08a.c **** 
 668              		.loc 1 1589 10 is_stmt 0 view .LVU186
 669 0014 2B46     		mov	r3, r5
 670 0016 0122     		movs	r2, #1
 671 0018 0DF10701 		add	r1, sp, #7
 672              	.LVL61:
1589:BMI088/Src/bmi08a.c **** 
 673              		.loc 1 1589 10 view .LVU187
 674 001c 3046     		mov	r0, r6
 675              	.LVL62:
1589:BMI088/Src/bmi08a.c **** 
 676              		.loc 1 1589 10 view .LVU188
 677 001e FFF7FEFF 		bl	get_regs
 678              	.LVL63:
1591:BMI088/Src/bmi08a.c **** 			/* Update data with user configured bmi08x_int_cfg structure */
 679              		.loc 1 1591 3 is_stmt 1 view .LVU189
1591:BMI088/Src/bmi08a.c **** 			/* Update data with user configured bmi08x_int_cfg structure */
 680              		.loc 1 1591 6 is_stmt 0 view .LVU190
 681 0022 0028     		cmp	r0, #0
 682 0024 45D1     		bne	.L52
1593:BMI088/Src/bmi08a.c **** 			data = BMI08X_SET_BITS(data, BMI08X_ACCEL_INT_OD, int_config->int_pin_cfg.output_mode);
 683              		.loc 1 1593 4 is_stmt 1 view .LVU191
1593:BMI088/Src/bmi08a.c **** 			data = BMI08X_SET_BITS(data, BMI08X_ACCEL_INT_OD, int_config->int_pin_cfg.output_mode);
 684              		.loc 1 1593 11 is_stmt 0 view .LVU192
 685 0026 9DF80720 		ldrb	r2, [sp, #7]	@ zero_extendqisi2
 686 002a 22F00202 		bic	r2, r2, #2
 687 002e 52B2     		sxtb	r2, r2
 688 0030 A378     		ldrb	r3, [r4, #2]	@ zero_extendqisi2
 689 0032 03F00101 		and	r1, r3, #1
 690 0036 42EA4102 		orr	r2, r2, r1, lsl #1
1593:BMI088/Src/bmi08a.c **** 			data = BMI08X_SET_BITS(data, BMI08X_ACCEL_INT_OD, int_config->int_pin_cfg.output_mode);
 691              		.loc 1 1593 9 view .LVU193
ARM GAS  C:\Users\Lenovo\AppData\Local\Temp\ccWML6Ej.s 			page 49


 692 003a 8DF80720 		strb	r2, [sp, #7]
1594:BMI088/Src/bmi08a.c **** 
 693              		.loc 1 1594 4 is_stmt 1 view .LVU194
1594:BMI088/Src/bmi08a.c **** 
 694              		.loc 1 1594 11 is_stmt 0 view .LVU195
 695 003e 22F00402 		bic	r2, r2, #4
 696 0042 C3F34003 		ubfx	r3, r3, #1, #1
 697 0046 42EA8302 		orr	r2, r2, r3, lsl #2
 698 004a D3B2     		uxtb	r3, r2
1594:BMI088/Src/bmi08a.c **** 
 699              		.loc 1 1594 9 view .LVU196
 700 004c 8DF80730 		strb	r3, [sp, #7]
1596:BMI088/Src/bmi08a.c **** 				data = BMI08X_SET_BITS_POS_0(data, BMI08X_ACCEL_INT_EDGE,
 701              		.loc 1 1596 4 is_stmt 1 view .LVU197
1596:BMI088/Src/bmi08a.c **** 				data = BMI08X_SET_BITS_POS_0(data, BMI08X_ACCEL_INT_EDGE,
 702              		.loc 1 1596 18 is_stmt 0 view .LVU198
 703 0050 6178     		ldrb	r1, [r4, #1]	@ zero_extendqisi2
1596:BMI088/Src/bmi08a.c **** 				data = BMI08X_SET_BITS_POS_0(data, BMI08X_ACCEL_INT_EDGE,
 704              		.loc 1 1596 7 view .LVU199
 705 0052 0229     		cmp	r1, #2
 706 0054 17D0     		beq	.L58
1603:BMI088/Src/bmi08a.c **** 				int_config->int_pin_cfg.enable_int_pin);
 707              		.loc 1 1603 5 is_stmt 1 view .LVU200
1603:BMI088/Src/bmi08a.c **** 				int_config->int_pin_cfg.enable_int_pin);
 708              		.loc 1 1603 12 is_stmt 0 view .LVU201
 709 0056 22F00802 		bic	r2, r2, #8
 710 005a A378     		ldrb	r3, [r4, #2]	@ zero_extendqisi2
 711 005c C3F38003 		ubfx	r3, r3, #2, #1
 712 0060 42EAC302 		orr	r2, r2, r3, lsl #3
 713 0064 D2B2     		uxtb	r2, r2
1603:BMI088/Src/bmi08a.c **** 				int_config->int_pin_cfg.enable_int_pin);
 714              		.loc 1 1603 10 view .LVU202
 715 0066 8DF80720 		strb	r2, [sp, #7]
1605:BMI088/Src/bmi08a.c **** 			}
 716              		.loc 1 1605 5 is_stmt 1 view .LVU203
1605:BMI088/Src/bmi08a.c **** 			}
 717              		.loc 1 1605 12 is_stmt 0 view .LVU204
 718 006a 02F0EF02 		and	r2, r2, #239
1605:BMI088/Src/bmi08a.c **** 			}
 719              		.loc 1 1605 10 view .LVU205
 720 006e 8DF80720 		strb	r2, [sp, #7]
 721              	.L54:
1609:BMI088/Src/bmi08a.c **** 		}
 722              		.loc 1 1609 4 is_stmt 1 view .LVU206
1609:BMI088/Src/bmi08a.c **** 		}
 723              		.loc 1 1609 11 is_stmt 0 view .LVU207
 724 0072 2B46     		mov	r3, r5
 725 0074 0122     		movs	r2, #1
 726 0076 0DF10701 		add	r1, sp, #7
 727 007a 3046     		mov	r0, r6
 728              	.LVL64:
1609:BMI088/Src/bmi08a.c **** 		}
 729              		.loc 1 1609 11 view .LVU208
 730 007c FFF7FEFF 		bl	set_regs
 731              	.LVL65:
1609:BMI088/Src/bmi08a.c **** 		}
 732              		.loc 1 1609 11 view .LVU209
ARM GAS  C:\Users\Lenovo\AppData\Local\Temp\ccWML6Ej.s 			page 50


 733 0080 17E0     		b	.L52
 734              	.LVL66:
 735              	.L55:
1571:BMI088/Src/bmi08a.c **** 	case BMI08X_INT_CHANNEL_1:
 736              		.loc 1 1571 2 view .LVU210
 737 0082 5326     		movs	r6, #83
 738 0084 C6E7     		b	.L51
 739              	.LVL67:
 740              	.L58:
1597:BMI088/Src/bmi08a.c **** 				BMI08X_ENABLE);
 741              		.loc 1 1597 5 is_stmt 1 view .LVU211
1597:BMI088/Src/bmi08a.c **** 				BMI08X_ENABLE);
 742              		.loc 1 1597 12 is_stmt 0 view .LVU212
 743 0086 43F00103 		orr	r3, r3, #1
1597:BMI088/Src/bmi08a.c **** 				BMI08X_ENABLE);
 744              		.loc 1 1597 10 view .LVU213
 745 008a 8DF80730 		strb	r3, [sp, #7]
1599:BMI088/Src/bmi08a.c **** 				int_config->int_pin_cfg.enable_int_pin);
 746              		.loc 1 1599 5 is_stmt 1 view .LVU214
1599:BMI088/Src/bmi08a.c **** 				int_config->int_pin_cfg.enable_int_pin);
 747              		.loc 1 1599 12 is_stmt 0 view .LVU215
 748 008e 23F01003 		bic	r3, r3, #16
 749 0092 5BB2     		sxtb	r3, r3
 750 0094 A278     		ldrb	r2, [r4, #2]	@ zero_extendqisi2
 751 0096 C2F38002 		ubfx	r2, r2, #2, #1
 752 009a 43EA0213 		orr	r3, r3, r2, lsl #4
 753 009e DBB2     		uxtb	r3, r3
1599:BMI088/Src/bmi08a.c **** 				int_config->int_pin_cfg.enable_int_pin);
 754              		.loc 1 1599 10 view .LVU216
 755 00a0 8DF80730 		strb	r3, [sp, #7]
1601:BMI088/Src/bmi08a.c **** 			} else {
 756              		.loc 1 1601 5 is_stmt 1 view .LVU217
1601:BMI088/Src/bmi08a.c **** 			} else {
 757              		.loc 1 1601 12 is_stmt 0 view .LVU218
 758 00a4 03F0F703 		and	r3, r3, #247
1601:BMI088/Src/bmi08a.c **** 			} else {
 759              		.loc 1 1601 10 view .LVU219
 760 00a8 8DF80730 		strb	r3, [sp, #7]
 761 00ac E1E7     		b	.L54
 762              	.LVL68:
 763              	.L56:
1571:BMI088/Src/bmi08a.c **** 	case BMI08X_INT_CHANNEL_1:
 764              		.loc 1 1571 2 view .LVU220
 765 00ae 6FF00400 		mvn	r0, #4
 766              	.LVL69:
 767              	.L52:
1615:BMI088/Src/bmi08a.c **** }
 768              		.loc 1 1615 2 is_stmt 1 view .LVU221
1616:BMI088/Src/bmi08a.c **** 
 769              		.loc 1 1616 1 is_stmt 0 view .LVU222
 770 00b2 02B0     		add	sp, sp, #8
 771              	.LCFI15:
 772              		.cfi_def_cfa_offset 16
 773              		@ sp needed
 774 00b4 70BD     		pop	{r4, r5, r6, pc}
1616:BMI088/Src/bmi08a.c **** 
 775              		.loc 1 1616 1 view .LVU223
ARM GAS  C:\Users\Lenovo\AppData\Local\Temp\ccWML6Ej.s 			page 51


 776              		.cfi_endproc
 777              	.LFE20:
 779              		.section	.text.set_accel_sync_data_ready_int,"ax",%progbits
 780              		.align	1
 781              		.syntax unified
 782              		.thumb
 783              		.thumb_func
 785              	set_accel_sync_data_ready_int:
 786              	.LVL70:
 787              	.LFB22:
1668:BMI088/Src/bmi08a.c **** 	int8_t rslt;
 788              		.loc 1 1668 1 is_stmt 1 view -0
 789              		.cfi_startproc
 790              		@ args = 0, pretend = 0, frame = 8
 791              		@ frame_needed = 0, uses_anonymous_args = 0
1668:BMI088/Src/bmi08a.c **** 	int8_t rslt;
 792              		.loc 1 1668 1 is_stmt 0 view .LVU225
 793 0000 30B5     		push	{r4, r5, lr}
 794              	.LCFI16:
 795              		.cfi_def_cfa_offset 12
 796              		.cfi_offset 4, -12
 797              		.cfi_offset 5, -8
 798              		.cfi_offset 14, -4
 799 0002 83B0     		sub	sp, sp, #12
 800              	.LCFI17:
 801              		.cfi_def_cfa_offset 24
 802 0004 0546     		mov	r5, r0
 803 0006 0C46     		mov	r4, r1
1669:BMI088/Src/bmi08a.c **** 	uint8_t data, reg_addr = 0;
 804              		.loc 1 1669 2 is_stmt 1 view .LVU226
1670:BMI088/Src/bmi08a.c **** 	/* Check for null pointer in the device structure*/
 805              		.loc 1 1670 2 view .LVU227
 806              	.LVL71:
1672:BMI088/Src/bmi08a.c **** 
 807              		.loc 1 1672 2 view .LVU228
1672:BMI088/Src/bmi08a.c **** 
 808              		.loc 1 1672 9 is_stmt 0 view .LVU229
 809 0008 0846     		mov	r0, r1
 810              	.LVL72:
1672:BMI088/Src/bmi08a.c **** 
 811              		.loc 1 1672 9 view .LVU230
 812 000a FFF7FEFF 		bl	null_ptr_check
 813              	.LVL73:
1674:BMI088/Src/bmi08a.c **** 
 814              		.loc 1 1674 2 is_stmt 1 view .LVU231
1674:BMI088/Src/bmi08a.c **** 
 815              		.loc 1 1674 5 is_stmt 0 view .LVU232
 816 000e E8B9     		cbnz	r0, .L60
1676:BMI088/Src/bmi08a.c **** 
 817              		.loc 1 1676 3 is_stmt 1 view .LVU233
1676:BMI088/Src/bmi08a.c **** 
 818              		.loc 1 1676 8 is_stmt 0 view .LVU234
 819 0010 8DF80700 		strb	r0, [sp, #7]
1678:BMI088/Src/bmi08a.c **** 		case BMI08X_INT_CHANNEL_1:
 820              		.loc 1 1678 3 is_stmt 1 view .LVU235
1678:BMI088/Src/bmi08a.c **** 		case BMI08X_INT_CHANNEL_1:
 821              		.loc 1 1678 21 is_stmt 0 view .LVU236
ARM GAS  C:\Users\Lenovo\AppData\Local\Temp\ccWML6Ej.s 			page 52


 822 0014 2B78     		ldrb	r3, [r5]	@ zero_extendqisi2
1678:BMI088/Src/bmi08a.c **** 		case BMI08X_INT_CHANNEL_1:
 823              		.loc 1 1678 3 view .LVU237
 824 0016 ABB1     		cbz	r3, .L63
 825 0018 012B     		cmp	r3, #1
 826 001a 15D1     		bne	.L64
1684:BMI088/Src/bmi08a.c **** 			break;
 827              		.loc 1 1684 13 view .LVU238
 828 001c 5720     		movs	r0, #87
 829              	.L61:
 830              	.LVL74:
1692:BMI088/Src/bmi08a.c **** 			if (int_config->int_pin_cfg.enable_int_pin == BMI08X_ENABLE) {
 831              		.loc 1 1692 3 is_stmt 1 view .LVU239
1693:BMI088/Src/bmi08a.c **** 				/*interrupt A mapped to INT1/INT2 */
 832              		.loc 1 1693 4 view .LVU240
1693:BMI088/Src/bmi08a.c **** 				/*interrupt A mapped to INT1/INT2 */
 833              		.loc 1 1693 47 is_stmt 0 view .LVU241
 834 001e AB78     		ldrb	r3, [r5, #2]	@ zero_extendqisi2
1693:BMI088/Src/bmi08a.c **** 				/*interrupt A mapped to INT1/INT2 */
 835              		.loc 1 1693 7 view .LVU242
 836 0020 13F0040F 		tst	r3, #4
 837 0024 02D0     		beq	.L62
1695:BMI088/Src/bmi08a.c **** 			}
 838              		.loc 1 1695 5 is_stmt 1 view .LVU243
1695:BMI088/Src/bmi08a.c **** 			}
 839              		.loc 1 1695 10 is_stmt 0 view .LVU244
 840 0026 0123     		movs	r3, #1
 841 0028 8DF80730 		strb	r3, [sp, #7]
 842              	.L62:
1698:BMI088/Src/bmi08a.c **** 
 843              		.loc 1 1698 4 is_stmt 1 view .LVU245
1698:BMI088/Src/bmi08a.c **** 
 844              		.loc 1 1698 11 is_stmt 0 view .LVU246
 845 002c 2346     		mov	r3, r4
 846 002e 0122     		movs	r2, #1
 847 0030 0DF10701 		add	r1, sp, #7
 848 0034 FFF7FEFF 		bl	set_regs
 849              	.LVL75:
1700:BMI088/Src/bmi08a.c **** 				/*set input interrupt configuration*/
 850              		.loc 1 1700 4 is_stmt 1 view .LVU247
1700:BMI088/Src/bmi08a.c **** 				/*set input interrupt configuration*/
 851              		.loc 1 1700 7 is_stmt 0 view .LVU248
 852 0038 40B9     		cbnz	r0, .L60
1702:BMI088/Src/bmi08a.c **** 			}
 853              		.loc 1 1702 5 is_stmt 1 view .LVU249
1702:BMI088/Src/bmi08a.c **** 			}
 854              		.loc 1 1702 12 is_stmt 0 view .LVU250
 855 003a 2146     		mov	r1, r4
 856 003c 2846     		mov	r0, r5
 857 003e FFF7FEFF 		bl	set_int_pin_config
 858              	.LVL76:
1702:BMI088/Src/bmi08a.c **** 			}
 859              		.loc 1 1702 12 view .LVU251
 860 0042 03E0     		b	.L60
 861              	.LVL77:
 862              	.L63:
1678:BMI088/Src/bmi08a.c **** 		case BMI08X_INT_CHANNEL_1:
ARM GAS  C:\Users\Lenovo\AppData\Local\Temp\ccWML6Ej.s 			page 53


 863              		.loc 1 1678 3 view .LVU252
 864 0044 5620     		movs	r0, #86
 865 0046 EAE7     		b	.L61
 866              	.L64:
 867              	.LVL78:
1678:BMI088/Src/bmi08a.c **** 		case BMI08X_INT_CHANNEL_1:
 868              		.loc 1 1678 3 view .LVU253
 869 0048 6FF00400 		mvn	r0, #4
 870              	.LVL79:
 871              	.L60:
1707:BMI088/Src/bmi08a.c **** }
 872              		.loc 1 1707 2 is_stmt 1 view .LVU254
1708:BMI088/Src/bmi08a.c **** 
 873              		.loc 1 1708 1 is_stmt 0 view .LVU255
 874 004c 03B0     		add	sp, sp, #12
 875              	.LCFI18:
 876              		.cfi_def_cfa_offset 12
 877              		@ sp needed
 878 004e 30BD     		pop	{r4, r5, pc}
1708:BMI088/Src/bmi08a.c **** 
 879              		.loc 1 1708 1 view .LVU256
 880              		.cfi_endproc
 881              	.LFE22:
 883              		.section	.text.set_accel_sync_input,"ax",%progbits
 884              		.align	1
 885              		.syntax unified
 886              		.thumb
 887              		.thumb_func
 889              	set_accel_sync_input:
 890              	.LVL80:
 891              	.LFB23:
1714:BMI088/Src/bmi08a.c **** 	int8_t rslt;
 892              		.loc 1 1714 1 is_stmt 1 view -0
 893              		.cfi_startproc
 894              		@ args = 0, pretend = 0, frame = 0
 895              		@ frame_needed = 0, uses_anonymous_args = 0
1714:BMI088/Src/bmi08a.c **** 	int8_t rslt;
 896              		.loc 1 1714 1 is_stmt 0 view .LVU258
 897 0000 38B5     		push	{r3, r4, r5, lr}
 898              	.LCFI19:
 899              		.cfi_def_cfa_offset 16
 900              		.cfi_offset 3, -16
 901              		.cfi_offset 4, -12
 902              		.cfi_offset 5, -8
 903              		.cfi_offset 14, -4
 904 0002 0546     		mov	r5, r0
 905 0004 0C46     		mov	r4, r1
1715:BMI088/Src/bmi08a.c **** 	/* Check for null pointer in the device structure*/
 906              		.loc 1 1715 2 is_stmt 1 view .LVU259
1717:BMI088/Src/bmi08a.c **** 
 907              		.loc 1 1717 2 view .LVU260
1717:BMI088/Src/bmi08a.c **** 
 908              		.loc 1 1717 9 is_stmt 0 view .LVU261
 909 0006 0846     		mov	r0, r1
 910              	.LVL81:
1717:BMI088/Src/bmi08a.c **** 
 911              		.loc 1 1717 9 view .LVU262
ARM GAS  C:\Users\Lenovo\AppData\Local\Temp\ccWML6Ej.s 			page 54


 912 0008 FFF7FEFF 		bl	null_ptr_check
 913              	.LVL82:
1719:BMI088/Src/bmi08a.c **** 		/*set input interrupt configuration*/
 914              		.loc 1 1719 2 is_stmt 1 view .LVU263
1719:BMI088/Src/bmi08a.c **** 		/*set input interrupt configuration*/
 915              		.loc 1 1719 5 is_stmt 0 view .LVU264
 916 000c 00B1     		cbz	r0, .L69
 917              	.L67:
 918              	.LVL83:
1724:BMI088/Src/bmi08a.c **** }
 919              		.loc 1 1724 2 is_stmt 1 view .LVU265
1725:BMI088/Src/bmi08a.c **** 
 920              		.loc 1 1725 1 is_stmt 0 view .LVU266
 921 000e 38BD     		pop	{r3, r4, r5, pc}
 922              	.LVL84:
 923              	.L69:
1721:BMI088/Src/bmi08a.c **** 	}
 924              		.loc 1 1721 3 is_stmt 1 view .LVU267
1721:BMI088/Src/bmi08a.c **** 	}
 925              		.loc 1 1721 10 is_stmt 0 view .LVU268
 926 0010 2146     		mov	r1, r4
 927 0012 2846     		mov	r0, r5
 928 0014 FFF7FEFF 		bl	set_int_pin_config
 929              	.LVL85:
1721:BMI088/Src/bmi08a.c **** 	}
 930              		.loc 1 1721 10 view .LVU269
 931 0018 F9E7     		b	.L67
 932              		.cfi_endproc
 933              	.LFE23:
 935              		.section	.text.set_accel_anymotion_int,"ax",%progbits
 936              		.align	1
 937              		.syntax unified
 938              		.thumb
 939              		.thumb_func
 941              	set_accel_anymotion_int:
 942              	.LVL86:
 943              	.LFB24:
1732:BMI088/Src/bmi08a.c **** 	int8_t rslt;
 944              		.loc 1 1732 1 is_stmt 1 view -0
 945              		.cfi_startproc
 946              		@ args = 0, pretend = 0, frame = 8
 947              		@ frame_needed = 0, uses_anonymous_args = 0
1732:BMI088/Src/bmi08a.c **** 	int8_t rslt;
 948              		.loc 1 1732 1 is_stmt 0 view .LVU271
 949 0000 30B5     		push	{r4, r5, lr}
 950              	.LCFI20:
 951              		.cfi_def_cfa_offset 12
 952              		.cfi_offset 4, -12
 953              		.cfi_offset 5, -8
 954              		.cfi_offset 14, -4
 955 0002 83B0     		sub	sp, sp, #12
 956              	.LCFI21:
 957              		.cfi_def_cfa_offset 24
 958 0004 0546     		mov	r5, r0
 959 0006 0C46     		mov	r4, r1
1733:BMI088/Src/bmi08a.c **** 	uint8_t data, reg_addr = 0;
 960              		.loc 1 1733 2 is_stmt 1 view .LVU272
ARM GAS  C:\Users\Lenovo\AppData\Local\Temp\ccWML6Ej.s 			page 55


1734:BMI088/Src/bmi08a.c **** 	/* Check for null pointer in the device structure*/
 961              		.loc 1 1734 2 view .LVU273
 962              	.LVL87:
1736:BMI088/Src/bmi08a.c **** 
 963              		.loc 1 1736 2 view .LVU274
1736:BMI088/Src/bmi08a.c **** 
 964              		.loc 1 1736 9 is_stmt 0 view .LVU275
 965 0008 0846     		mov	r0, r1
 966              	.LVL88:
1736:BMI088/Src/bmi08a.c **** 
 967              		.loc 1 1736 9 view .LVU276
 968 000a FFF7FEFF 		bl	null_ptr_check
 969              	.LVL89:
1738:BMI088/Src/bmi08a.c **** 
 970              		.loc 1 1738 2 is_stmt 1 view .LVU277
1738:BMI088/Src/bmi08a.c **** 
 971              		.loc 1 1738 5 is_stmt 0 view .LVU278
 972 000e E8B9     		cbnz	r0, .L71
1740:BMI088/Src/bmi08a.c **** 
 973              		.loc 1 1740 3 is_stmt 1 view .LVU279
1740:BMI088/Src/bmi08a.c **** 
 974              		.loc 1 1740 8 is_stmt 0 view .LVU280
 975 0010 8DF80700 		strb	r0, [sp, #7]
1742:BMI088/Src/bmi08a.c **** 		case BMI08X_INT_CHANNEL_1:
 976              		.loc 1 1742 3 is_stmt 1 view .LVU281
1742:BMI088/Src/bmi08a.c **** 		case BMI08X_INT_CHANNEL_1:
 977              		.loc 1 1742 21 is_stmt 0 view .LVU282
 978 0014 2B78     		ldrb	r3, [r5]	@ zero_extendqisi2
1742:BMI088/Src/bmi08a.c **** 		case BMI08X_INT_CHANNEL_1:
 979              		.loc 1 1742 3 view .LVU283
 980 0016 ABB1     		cbz	r3, .L74
 981 0018 012B     		cmp	r3, #1
 982 001a 15D1     		bne	.L75
1748:BMI088/Src/bmi08a.c **** 			break;
 983              		.loc 1 1748 13 view .LVU284
 984 001c 5720     		movs	r0, #87
 985              	.L72:
 986              	.LVL90:
1756:BMI088/Src/bmi08a.c **** 			if (int_config->int_pin_cfg.enable_int_pin == BMI08X_ENABLE) {
 987              		.loc 1 1756 3 is_stmt 1 view .LVU285
1757:BMI088/Src/bmi08a.c **** 				/*interrupt B mapped to INT1/INT2 */
 988              		.loc 1 1757 4 view .LVU286
1757:BMI088/Src/bmi08a.c **** 				/*interrupt B mapped to INT1/INT2 */
 989              		.loc 1 1757 47 is_stmt 0 view .LVU287
 990 001e AB78     		ldrb	r3, [r5, #2]	@ zero_extendqisi2
1757:BMI088/Src/bmi08a.c **** 				/*interrupt B mapped to INT1/INT2 */
 991              		.loc 1 1757 7 view .LVU288
 992 0020 13F0040F 		tst	r3, #4
 993 0024 02D0     		beq	.L73
1759:BMI088/Src/bmi08a.c **** 			}
 994              		.loc 1 1759 5 is_stmt 1 view .LVU289
1759:BMI088/Src/bmi08a.c **** 			}
 995              		.loc 1 1759 10 is_stmt 0 view .LVU290
 996 0026 0223     		movs	r3, #2
 997 0028 8DF80730 		strb	r3, [sp, #7]
 998              	.L73:
1762:BMI088/Src/bmi08a.c **** 
ARM GAS  C:\Users\Lenovo\AppData\Local\Temp\ccWML6Ej.s 			page 56


 999              		.loc 1 1762 4 is_stmt 1 view .LVU291
1762:BMI088/Src/bmi08a.c **** 
 1000              		.loc 1 1762 11 is_stmt 0 view .LVU292
 1001 002c 2346     		mov	r3, r4
 1002 002e 0122     		movs	r2, #1
 1003 0030 0DF10701 		add	r1, sp, #7
 1004 0034 FFF7FEFF 		bl	set_regs
 1005              	.LVL91:
1764:BMI088/Src/bmi08a.c **** 				/*set input interrupt configuration*/
 1006              		.loc 1 1764 4 is_stmt 1 view .LVU293
1764:BMI088/Src/bmi08a.c **** 				/*set input interrupt configuration*/
 1007              		.loc 1 1764 7 is_stmt 0 view .LVU294
 1008 0038 40B9     		cbnz	r0, .L71
1766:BMI088/Src/bmi08a.c **** 			}
 1009              		.loc 1 1766 5 is_stmt 1 view .LVU295
1766:BMI088/Src/bmi08a.c **** 			}
 1010              		.loc 1 1766 12 is_stmt 0 view .LVU296
 1011 003a 2146     		mov	r1, r4
 1012 003c 2846     		mov	r0, r5
 1013 003e FFF7FEFF 		bl	set_int_pin_config
 1014              	.LVL92:
1766:BMI088/Src/bmi08a.c **** 			}
 1015              		.loc 1 1766 12 view .LVU297
 1016 0042 03E0     		b	.L71
 1017              	.LVL93:
 1018              	.L74:
1742:BMI088/Src/bmi08a.c **** 		case BMI08X_INT_CHANNEL_1:
 1019              		.loc 1 1742 3 view .LVU298
 1020 0044 5620     		movs	r0, #86
 1021 0046 EAE7     		b	.L72
 1022              	.L75:
 1023              	.LVL94:
1742:BMI088/Src/bmi08a.c **** 		case BMI08X_INT_CHANNEL_1:
 1024              		.loc 1 1742 3 view .LVU299
 1025 0048 6FF00400 		mvn	r0, #4
 1026              	.LVL95:
 1027              	.L71:
1771:BMI088/Src/bmi08a.c **** }
 1028              		.loc 1 1771 2 is_stmt 1 view .LVU300
1772:BMI088/Src/bmi08a.c **** 
 1029              		.loc 1 1772 1 is_stmt 0 view .LVU301
 1030 004c 03B0     		add	sp, sp, #12
 1031              	.LCFI22:
 1032              		.cfi_def_cfa_offset 12
 1033              		@ sp needed
 1034 004e 30BD     		pop	{r4, r5, pc}
1772:BMI088/Src/bmi08a.c **** 
 1035              		.loc 1 1772 1 view .LVU302
 1036              		.cfi_endproc
 1037              	.LFE24:
 1039              		.section	.text.set_accel_data_ready_int,"ax",%progbits
 1040              		.align	1
 1041              		.syntax unified
 1042              		.thumb
 1043              		.thumb_func
 1045              	set_accel_data_ready_int:
 1046              	.LVL96:
ARM GAS  C:\Users\Lenovo\AppData\Local\Temp\ccWML6Ej.s 			page 57


 1047              	.LFB21:
1623:BMI088/Src/bmi08a.c **** 	int8_t rslt;
 1048              		.loc 1 1623 1 is_stmt 1 view -0
 1049              		.cfi_startproc
 1050              		@ args = 0, pretend = 0, frame = 8
 1051              		@ frame_needed = 0, uses_anonymous_args = 0
1623:BMI088/Src/bmi08a.c **** 	int8_t rslt;
 1052              		.loc 1 1623 1 is_stmt 0 view .LVU304
 1053 0000 30B5     		push	{r4, r5, lr}
 1054              	.LCFI23:
 1055              		.cfi_def_cfa_offset 12
 1056              		.cfi_offset 4, -12
 1057              		.cfi_offset 5, -8
 1058              		.cfi_offset 14, -4
 1059 0002 83B0     		sub	sp, sp, #12
 1060              	.LCFI24:
 1061              		.cfi_def_cfa_offset 24
 1062 0004 0546     		mov	r5, r0
 1063 0006 0C46     		mov	r4, r1
1624:BMI088/Src/bmi08a.c **** 	uint8_t data = 0, conf;
 1064              		.loc 1 1624 2 is_stmt 1 view .LVU305
1625:BMI088/Src/bmi08a.c **** 
 1065              		.loc 1 1625 2 view .LVU306
1625:BMI088/Src/bmi08a.c **** 
 1066              		.loc 1 1625 10 is_stmt 0 view .LVU307
 1067 0008 0023     		movs	r3, #0
 1068 000a 8DF80730 		strb	r3, [sp, #7]
1628:BMI088/Src/bmi08a.c **** 
 1069              		.loc 1 1628 2 is_stmt 1 view .LVU308
1628:BMI088/Src/bmi08a.c **** 
 1070              		.loc 1 1628 9 is_stmt 0 view .LVU309
 1071 000e 0B46     		mov	r3, r1
 1072 0010 0122     		movs	r2, #1
 1073 0012 0DF10701 		add	r1, sp, #7
 1074              	.LVL97:
1628:BMI088/Src/bmi08a.c **** 
 1075              		.loc 1 1628 9 view .LVU310
 1076 0016 5820     		movs	r0, #88
 1077              	.LVL98:
1628:BMI088/Src/bmi08a.c **** 
 1078              		.loc 1 1628 9 view .LVU311
 1079 0018 FFF7FEFF 		bl	get_regs
 1080              	.LVL99:
1630:BMI088/Src/bmi08a.c **** 		conf = int_config->int_pin_cfg.enable_int_pin;
 1081              		.loc 1 1630 2 is_stmt 1 view .LVU312
1630:BMI088/Src/bmi08a.c **** 		conf = int_config->int_pin_cfg.enable_int_pin;
 1082              		.loc 1 1630 5 is_stmt 0 view .LVU313
 1083 001c 40B9     		cbnz	r0, .L78
1631:BMI088/Src/bmi08a.c **** 
 1084              		.loc 1 1631 3 is_stmt 1 view .LVU314
1631:BMI088/Src/bmi08a.c **** 
 1085              		.loc 1 1631 33 is_stmt 0 view .LVU315
 1086 001e AB78     		ldrb	r3, [r5, #2]	@ zero_extendqisi2
 1087 0020 C3F38003 		ubfx	r3, r3, #2, #1
 1088              	.LVL100:
1633:BMI088/Src/bmi08a.c **** 		case BMI08X_INT_CHANNEL_1:
 1089              		.loc 1 1633 3 is_stmt 1 view .LVU316
ARM GAS  C:\Users\Lenovo\AppData\Local\Temp\ccWML6Ej.s 			page 58


1633:BMI088/Src/bmi08a.c **** 		case BMI08X_INT_CHANNEL_1:
 1090              		.loc 1 1633 21 is_stmt 0 view .LVU317
 1091 0024 2A78     		ldrb	r2, [r5]	@ zero_extendqisi2
1633:BMI088/Src/bmi08a.c **** 		case BMI08X_INT_CHANNEL_1:
 1092              		.loc 1 1633 3 view .LVU318
 1093 0026 2AB1     		cbz	r2, .L79
 1094 0028 012A     		cmp	r2, #1
 1095 002a 1AD0     		beq	.L80
 1096              	.LVL101:
1633:BMI088/Src/bmi08a.c **** 		case BMI08X_INT_CHANNEL_1:
 1097              		.loc 1 1633 3 view .LVU319
 1098 002c 6FF00400 		mvn	r0, #4
 1099              	.LVL102:
 1100              	.L78:
1660:BMI088/Src/bmi08a.c **** }
 1101              		.loc 1 1660 2 is_stmt 1 view .LVU320
1661:BMI088/Src/bmi08a.c **** 
 1102              		.loc 1 1661 1 is_stmt 0 view .LVU321
 1103 0030 03B0     		add	sp, sp, #12
 1104              	.LCFI25:
 1105              		.cfi_remember_state
 1106              		.cfi_def_cfa_offset 12
 1107              		@ sp needed
 1108 0032 30BD     		pop	{r4, r5, pc}
 1109              	.LVL103:
 1110              	.L79:
 1111              	.LCFI26:
 1112              		.cfi_restore_state
1636:BMI088/Src/bmi08a.c **** 			break;
 1113              		.loc 1 1636 4 is_stmt 1 view .LVU322
1636:BMI088/Src/bmi08a.c **** 			break;
 1114              		.loc 1 1636 11 is_stmt 0 view .LVU323
 1115 0034 9DF80720 		ldrb	r2, [sp, #7]	@ zero_extendqisi2
 1116 0038 22F00402 		bic	r2, r2, #4
 1117 003c 52B2     		sxtb	r2, r2
 1118 003e 42EA8303 		orr	r3, r2, r3, lsl #2
1636:BMI088/Src/bmi08a.c **** 			break;
 1119              		.loc 1 1636 9 view .LVU324
 1120 0042 8DF80730 		strb	r3, [sp, #7]
1637:BMI088/Src/bmi08a.c **** 
 1121              		.loc 1 1637 4 is_stmt 1 view .LVU325
 1122              	.L81:
1649:BMI088/Src/bmi08a.c **** 			/* Configure interrupt pins */
 1123              		.loc 1 1649 3 view .LVU326
1651:BMI088/Src/bmi08a.c **** 
 1124              		.loc 1 1651 4 view .LVU327
1651:BMI088/Src/bmi08a.c **** 
 1125              		.loc 1 1651 11 is_stmt 0 view .LVU328
 1126 0046 2146     		mov	r1, r4
 1127 0048 2846     		mov	r0, r5
 1128 004a FFF7FEFF 		bl	set_int_pin_config
 1129              	.LVL104:
1653:BMI088/Src/bmi08a.c **** 				/* Write to interrupt map register */
 1130              		.loc 1 1653 4 is_stmt 1 view .LVU329
1653:BMI088/Src/bmi08a.c **** 				/* Write to interrupt map register */
 1131              		.loc 1 1653 7 is_stmt 0 view .LVU330
 1132 004e 0028     		cmp	r0, #0
ARM GAS  C:\Users\Lenovo\AppData\Local\Temp\ccWML6Ej.s 			page 59


 1133 0050 EED1     		bne	.L78
1655:BMI088/Src/bmi08a.c **** 			}
 1134              		.loc 1 1655 5 is_stmt 1 view .LVU331
1655:BMI088/Src/bmi08a.c **** 			}
 1135              		.loc 1 1655 12 is_stmt 0 view .LVU332
 1136 0052 2346     		mov	r3, r4
 1137 0054 0122     		movs	r2, #1
 1138 0056 0DF10701 		add	r1, sp, #7
 1139 005a 5820     		movs	r0, #88
 1140 005c FFF7FEFF 		bl	set_regs
 1141              	.LVL105:
1655:BMI088/Src/bmi08a.c **** 			}
 1142              		.loc 1 1655 12 view .LVU333
 1143 0060 E6E7     		b	.L78
 1144              	.LVL106:
 1145              	.L80:
1641:BMI088/Src/bmi08a.c **** 			break;
 1146              		.loc 1 1641 4 is_stmt 1 view .LVU334
1641:BMI088/Src/bmi08a.c **** 			break;
 1147              		.loc 1 1641 11 is_stmt 0 view .LVU335
 1148 0062 9DF80720 		ldrb	r2, [sp, #7]	@ zero_extendqisi2
 1149 0066 22F04002 		bic	r2, r2, #64
 1150 006a 52B2     		sxtb	r2, r2
 1151 006c 42EA8313 		orr	r3, r2, r3, lsl #6
1641:BMI088/Src/bmi08a.c **** 			break;
 1152              		.loc 1 1641 9 view .LVU336
 1153 0070 8DF80730 		strb	r3, [sp, #7]
1642:BMI088/Src/bmi08a.c **** 
 1154              		.loc 1 1642 4 is_stmt 1 view .LVU337
 1155 0074 E7E7     		b	.L81
 1156              		.cfi_endproc
 1157              	.LFE21:
 1159              		.section	.text.bmi08a_init,"ax",%progbits
 1160              		.align	1
 1161              		.global	bmi08a_init
 1162              		.syntax unified
 1163              		.thumb
 1164              		.thumb_func
 1166              	bmi08a_init:
 1167              	.LVL107:
 1168              	.LFB0:
 832:BMI088/Src/bmi08a.c **** 	int8_t rslt;
 1169              		.loc 1 832 1 view -0
 1170              		.cfi_startproc
 1171              		@ args = 0, pretend = 0, frame = 8
 1172              		@ frame_needed = 0, uses_anonymous_args = 0
 832:BMI088/Src/bmi08a.c **** 	int8_t rslt;
 1173              		.loc 1 832 1 is_stmt 0 view .LVU339
 1174 0000 10B5     		push	{r4, lr}
 1175              	.LCFI27:
 1176              		.cfi_def_cfa_offset 8
 1177              		.cfi_offset 4, -8
 1178              		.cfi_offset 14, -4
 1179 0002 82B0     		sub	sp, sp, #8
 1180              	.LCFI28:
 1181              		.cfi_def_cfa_offset 16
 1182 0004 0446     		mov	r4, r0
ARM GAS  C:\Users\Lenovo\AppData\Local\Temp\ccWML6Ej.s 			page 60


 833:BMI088/Src/bmi08a.c **** 	uint8_t chip_id = 0;
 1183              		.loc 1 833 2 is_stmt 1 view .LVU340
 834:BMI088/Src/bmi08a.c **** 	/* Check for null pointer in the device structure */
 1184              		.loc 1 834 2 view .LVU341
 834:BMI088/Src/bmi08a.c **** 	/* Check for null pointer in the device structure */
 1185              		.loc 1 834 10 is_stmt 0 view .LVU342
 1186 0006 0023     		movs	r3, #0
 1187 0008 8DF80730 		strb	r3, [sp, #7]
 836:BMI088/Src/bmi08a.c **** 	/* Proceed if null check is fine */
 1188              		.loc 1 836 2 is_stmt 1 view .LVU343
 836:BMI088/Src/bmi08a.c **** 	/* Proceed if null check is fine */
 1189              		.loc 1 836 9 is_stmt 0 view .LVU344
 1190 000c FFF7FEFF 		bl	null_ptr_check
 1191              	.LVL108:
 838:BMI088/Src/bmi08a.c **** 		if (dev->intf == BMI08X_SPI_INTF) {
 1192              		.loc 1 838 2 is_stmt 1 view .LVU345
 838:BMI088/Src/bmi08a.c **** 		if (dev->intf == BMI08X_SPI_INTF) {
 1193              		.loc 1 838 5 is_stmt 0 view .LVU346
 1194 0010 28B9     		cbnz	r0, .L84
 839:BMI088/Src/bmi08a.c **** 			/* Set dummy byte in case of SPI interface */
 1195              		.loc 1 839 3 is_stmt 1 view .LVU347
 839:BMI088/Src/bmi08a.c **** 			/* Set dummy byte in case of SPI interface */
 1196              		.loc 1 839 10 is_stmt 0 view .LVU348
 1197 0012 2379     		ldrb	r3, [r4, #4]	@ zero_extendqisi2
 839:BMI088/Src/bmi08a.c **** 			/* Set dummy byte in case of SPI interface */
 1198              		.loc 1 839 6 view .LVU349
 1199 0014 012B     		cmp	r3, #1
 1200 0016 04D0     		beq	.L89
 846:BMI088/Src/bmi08a.c **** 		}
 1201              		.loc 1 846 4 is_stmt 1 view .LVU350
 846:BMI088/Src/bmi08a.c **** 		}
 1202              		.loc 1 846 20 is_stmt 0 view .LVU351
 1203 0018 0023     		movs	r3, #0
 1204              	.LVL109:
 846:BMI088/Src/bmi08a.c **** 		}
 1205              		.loc 1 846 20 view .LVU352
 1206 001a 6371     		strb	r3, [r4, #5]
 1207              	.LVL110:
 1208              	.L86:
 848:BMI088/Src/bmi08a.c **** 			rslt = get_regs(BMI08X_ACCEL_CHIP_ID_REG, &chip_id, 1, dev);
 1209              		.loc 1 848 3 is_stmt 1 view .LVU353
 848:BMI088/Src/bmi08a.c **** 			rslt = get_regs(BMI08X_ACCEL_CHIP_ID_REG, &chip_id, 1, dev);
 1210              		.loc 1 848 6 is_stmt 0 view .LVU354
 1211 001c 50B1     		cbz	r0, .L90
 1212              	.LVL111:
 1213              	.L84:
 863:BMI088/Src/bmi08a.c **** }
 1214              		.loc 1 863 2 is_stmt 1 view .LVU355
 864:BMI088/Src/bmi08a.c **** 
 1215              		.loc 1 864 1 is_stmt 0 view .LVU356
 1216 001e 02B0     		add	sp, sp, #8
 1217              	.LCFI29:
 1218              		.cfi_remember_state
 1219              		.cfi_def_cfa_offset 8
 1220              		@ sp needed
 1221 0020 10BD     		pop	{r4, pc}
 1222              	.LVL112:
ARM GAS  C:\Users\Lenovo\AppData\Local\Temp\ccWML6Ej.s 			page 61


 1223              	.L89:
 1224              	.LCFI30:
 1225              		.cfi_restore_state
 841:BMI088/Src/bmi08a.c **** 			/* Dummy read of Chip-ID in SPI mode */
 1226              		.loc 1 841 4 is_stmt 1 view .LVU357
 841:BMI088/Src/bmi08a.c **** 			/* Dummy read of Chip-ID in SPI mode */
 1227              		.loc 1 841 20 is_stmt 0 view .LVU358
 1228 0022 0122     		movs	r2, #1
 1229 0024 6271     		strb	r2, [r4, #5]
 843:BMI088/Src/bmi08a.c **** 		} else {
 1230              		.loc 1 843 4 is_stmt 1 view .LVU359
 843:BMI088/Src/bmi08a.c **** 		} else {
 1231              		.loc 1 843 11 is_stmt 0 view .LVU360
 1232 0026 2346     		mov	r3, r4
 1233 0028 0DF10701 		add	r1, sp, #7
 1234 002c 0020     		movs	r0, #0
 1235              	.LVL113:
 843:BMI088/Src/bmi08a.c **** 		} else {
 1236              		.loc 1 843 11 view .LVU361
 1237 002e FFF7FEFF 		bl	get_regs
 1238              	.LVL114:
 843:BMI088/Src/bmi08a.c **** 		} else {
 1239              		.loc 1 843 11 view .LVU362
 1240 0032 F3E7     		b	.L86
 1241              	.L90:
 849:BMI088/Src/bmi08a.c **** 
 1242              		.loc 1 849 4 is_stmt 1 view .LVU363
 849:BMI088/Src/bmi08a.c **** 
 1243              		.loc 1 849 11 is_stmt 0 view .LVU364
 1244 0034 2346     		mov	r3, r4
 1245 0036 0122     		movs	r2, #1
 1246 0038 0DF10701 		add	r1, sp, #7
 1247 003c FFF7FEFF 		bl	get_regs
 1248              	.LVL115:
 851:BMI088/Src/bmi08a.c **** 				/* Check for chip id validity */
 1249              		.loc 1 851 4 is_stmt 1 view .LVU365
 851:BMI088/Src/bmi08a.c **** 				/* Check for chip id validity */
 1250              		.loc 1 851 7 is_stmt 0 view .LVU366
 1251 0040 0028     		cmp	r0, #0
 1252 0042 ECD1     		bne	.L84
 853:BMI088/Src/bmi08a.c **** 					/* Store the chip ID in dev structure */
 1253              		.loc 1 853 5 is_stmt 1 view .LVU367
 853:BMI088/Src/bmi08a.c **** 					/* Store the chip ID in dev structure */
 1254              		.loc 1 853 17 is_stmt 0 view .LVU368
 1255 0044 9DF80730 		ldrb	r3, [sp, #7]	@ zero_extendqisi2
 853:BMI088/Src/bmi08a.c **** 					/* Store the chip ID in dev structure */
 1256              		.loc 1 853 8 view .LVU369
 1257 0048 1E2B     		cmp	r3, #30
 1258 004a 01D1     		bne	.L87
 855:BMI088/Src/bmi08a.c **** 				} else {
 1259              		.loc 1 855 6 is_stmt 1 view .LVU370
 855:BMI088/Src/bmi08a.c **** 				} else {
 1260              		.loc 1 855 25 is_stmt 0 view .LVU371
 1261 004c 2370     		strb	r3, [r4]
 1262 004e E6E7     		b	.L84
 1263              	.L87:
 857:BMI088/Src/bmi08a.c **** 				}
ARM GAS  C:\Users\Lenovo\AppData\Local\Temp\ccWML6Ej.s 			page 62


 1264              		.loc 1 857 11 view .LVU372
 1265 0050 6FF00200 		mvn	r0, #2
 1266              	.LVL116:
 857:BMI088/Src/bmi08a.c **** 				}
 1267              		.loc 1 857 11 view .LVU373
 1268 0054 E3E7     		b	.L84
 1269              		.cfi_endproc
 1270              	.LFE0:
 1272              		.section	.text.bmi08a_write_config_file,"ax",%progbits
 1273              		.align	1
 1274              		.global	bmi08a_write_config_file
 1275              		.syntax unified
 1276              		.thumb
 1277              		.thumb_func
 1279              	bmi08a_write_config_file:
 1280              	.LVL117:
 1281              	.LFB1:
 870:BMI088/Src/bmi08a.c **** 	int8_t rslt;
 1282              		.loc 1 870 1 is_stmt 1 view -0
 1283              		.cfi_startproc
 1284              		@ args = 0, pretend = 0, frame = 8
 1285              		@ frame_needed = 0, uses_anonymous_args = 0
 870:BMI088/Src/bmi08a.c **** 	int8_t rslt;
 1286              		.loc 1 870 1 is_stmt 0 view .LVU375
 1287 0000 70B5     		push	{r4, r5, r6, lr}
 1288              	.LCFI31:
 1289              		.cfi_def_cfa_offset 16
 1290              		.cfi_offset 4, -16
 1291              		.cfi_offset 5, -12
 1292              		.cfi_offset 6, -8
 1293              		.cfi_offset 14, -4
 1294 0002 82B0     		sub	sp, sp, #8
 1295              	.LCFI32:
 1296              		.cfi_def_cfa_offset 24
 1297 0004 0446     		mov	r4, r0
 871:BMI088/Src/bmi08a.c **** 	/* Config loading disable*/
 1298              		.loc 1 871 2 is_stmt 1 view .LVU376
 873:BMI088/Src/bmi08a.c **** 	uint8_t current_acc_pwr_ctrl = 0;
 1299              		.loc 1 873 2 view .LVU377
 873:BMI088/Src/bmi08a.c **** 	uint8_t current_acc_pwr_ctrl = 0;
 1300              		.loc 1 873 10 is_stmt 0 view .LVU378
 1301 0006 0023     		movs	r3, #0
 1302 0008 8DF80730 		strb	r3, [sp, #7]
 874:BMI088/Src/bmi08a.c **** 	uint16_t index = 0;
 1303              		.loc 1 874 2 is_stmt 1 view .LVU379
 874:BMI088/Src/bmi08a.c **** 	uint16_t index = 0;
 1304              		.loc 1 874 10 is_stmt 0 view .LVU380
 1305 000c 8DF80630 		strb	r3, [sp, #6]
 875:BMI088/Src/bmi08a.c **** 	uint8_t reg_data = 0;
 1306              		.loc 1 875 2 is_stmt 1 view .LVU381
 1307              	.LVL118:
 876:BMI088/Src/bmi08a.c **** 
 1308              		.loc 1 876 2 view .LVU382
 876:BMI088/Src/bmi08a.c **** 
 1309              		.loc 1 876 10 is_stmt 0 view .LVU383
 1310 0010 8DF80530 		strb	r3, [sp, #5]
 879:BMI088/Src/bmi08a.c **** 	/* Check if config file pointer is not null */
ARM GAS  C:\Users\Lenovo\AppData\Local\Temp\ccWML6Ej.s 			page 63


 1311              		.loc 1 879 2 is_stmt 1 view .LVU384
 879:BMI088/Src/bmi08a.c **** 	/* Check if config file pointer is not null */
 1312              		.loc 1 879 9 is_stmt 0 view .LVU385
 1313 0014 FFF7FEFF 		bl	null_ptr_check
 1314              	.LVL119:
 881:BMI088/Src/bmi08a.c **** 
 1315              		.loc 1 881 2 is_stmt 1 view .LVU386
 881:BMI088/Src/bmi08a.c **** 
 1316              		.loc 1 881 5 is_stmt 0 view .LVU387
 1317 0018 0028     		cmp	r0, #0
 1318 001a 62D1     		bne	.L97
 881:BMI088/Src/bmi08a.c **** 
 1319              		.loc 1 881 33 discriminator 1 view .LVU388
 1320 001c 2369     		ldr	r3, [r4, #16]
 881:BMI088/Src/bmi08a.c **** 
 1321              		.loc 1 881 26 discriminator 1 view .LVU389
 1322 001e 002B     		cmp	r3, #0
 1323 0020 62D0     		beq	.L98
 884:BMI088/Src/bmi08a.c **** 			/* deactivate accel, otherwise post processing can not be enabled safely */
 1324              		.loc 1 884 3 is_stmt 1 view .LVU390
 884:BMI088/Src/bmi08a.c **** 			/* deactivate accel, otherwise post processing can not be enabled safely */
 1325              		.loc 1 884 10 is_stmt 0 view .LVU391
 1326 0022 237D     		ldrb	r3, [r4, #20]	@ zero_extendqisi2
 884:BMI088/Src/bmi08a.c **** 			/* deactivate accel, otherwise post processing can not be enabled safely */
 1327              		.loc 1 884 6 view .LVU392
 1328 0024 002B     		cmp	r3, #0
 1329 0026 62D0     		beq	.L99
 886:BMI088/Src/bmi08a.c **** 			if (rslt != BMI08X_OK)
 1330              		.loc 1 886 4 is_stmt 1 view .LVU393
 886:BMI088/Src/bmi08a.c **** 			if (rslt != BMI08X_OK)
 1331              		.loc 1 886 11 is_stmt 0 view .LVU394
 1332 0028 2346     		mov	r3, r4
 1333 002a 0122     		movs	r2, #1
 1334 002c 0DF10601 		add	r1, sp, #6
 1335 0030 7D20     		movs	r0, #125
 1336              	.LVL120:
 886:BMI088/Src/bmi08a.c **** 			if (rslt != BMI08X_OK)
 1337              		.loc 1 886 11 view .LVU395
 1338 0032 FFF7FEFF 		bl	get_regs
 1339              	.LVL121:
 887:BMI088/Src/bmi08a.c **** 				return rslt;
 1340              		.loc 1 887 4 is_stmt 1 view .LVU396
 887:BMI088/Src/bmi08a.c **** 				return rslt;
 1341              		.loc 1 887 7 is_stmt 0 view .LVU397
 1342 0036 0646     		mov	r6, r0
 1343 0038 10B1     		cbz	r0, .L103
 1344              	.LVL122:
 1345              	.L92:
 943:BMI088/Src/bmi08a.c **** 
 1346              		.loc 1 943 1 view .LVU398
 1347 003a 3046     		mov	r0, r6
 1348 003c 02B0     		add	sp, sp, #8
 1349              	.LCFI33:
 1350              		.cfi_remember_state
 1351              		.cfi_def_cfa_offset 16
 1352              		@ sp needed
 1353 003e 70BD     		pop	{r4, r5, r6, pc}
ARM GAS  C:\Users\Lenovo\AppData\Local\Temp\ccWML6Ej.s 			page 64


 1354              	.LVL123:
 1355              	.L103:
 1356              	.LCFI34:
 1357              		.cfi_restore_state
 890:BMI088/Src/bmi08a.c **** 			if (rslt == BMI08X_OK) {
 1358              		.loc 1 890 4 is_stmt 1 view .LVU399
 890:BMI088/Src/bmi08a.c **** 			if (rslt == BMI08X_OK) {
 1359              		.loc 1 890 11 is_stmt 0 view .LVU400
 1360 0040 2346     		mov	r3, r4
 1361 0042 0122     		movs	r2, #1
 1362 0044 0DF10701 		add	r1, sp, #7
 1363 0048 7D20     		movs	r0, #125
 1364              	.LVL124:
 890:BMI088/Src/bmi08a.c **** 			if (rslt == BMI08X_OK) {
 1365              		.loc 1 890 11 view .LVU401
 1366 004a FFF7FEFF 		bl	set_regs
 1367              	.LVL125:
 891:BMI088/Src/bmi08a.c **** 				/*delay required to switch power modes*/
 1368              		.loc 1 891 4 is_stmt 1 view .LVU402
 891:BMI088/Src/bmi08a.c **** 				/*delay required to switch power modes*/
 1369              		.loc 1 891 7 is_stmt 0 view .LVU403
 1370 004e 0646     		mov	r6, r0
 1371 0050 0028     		cmp	r0, #0
 1372 0052 F2D1     		bne	.L92
 893:BMI088/Src/bmi08a.c **** 			} else {
 1373              		.loc 1 893 5 is_stmt 1 view .LVU404
 893:BMI088/Src/bmi08a.c **** 			} else {
 1374              		.loc 1 893 8 is_stmt 0 view .LVU405
 1375 0054 236A     		ldr	r3, [r4, #32]
 893:BMI088/Src/bmi08a.c **** 			} else {
 1376              		.loc 1 893 5 view .LVU406
 1377 0056 0520     		movs	r0, #5
 1378              	.LVL126:
 893:BMI088/Src/bmi08a.c **** 			} else {
 1379              		.loc 1 893 5 view .LVU407
 1380 0058 9847     		blx	r3
 1381              	.LVL127:
 899:BMI088/Src/bmi08a.c **** 
 1382              		.loc 1 899 4 is_stmt 1 view .LVU408
 899:BMI088/Src/bmi08a.c **** 
 1383              		.loc 1 899 11 is_stmt 0 view .LVU409
 1384 005a 2346     		mov	r3, r4
 1385 005c 0122     		movs	r2, #1
 1386 005e 0DF10701 		add	r1, sp, #7
 1387 0062 5920     		movs	r0, #89
 1388 0064 FFF7FEFF 		bl	set_regs
 1389              	.LVL128:
 901:BMI088/Src/bmi08a.c **** 				for (index = 0; index < BMI08X_CONFIG_STREAM_SIZE;
 1390              		.loc 1 901 4 is_stmt 1 view .LVU410
 901:BMI088/Src/bmi08a.c **** 				for (index = 0; index < BMI08X_CONFIG_STREAM_SIZE;
 1391              		.loc 1 901 7 is_stmt 0 view .LVU411
 1392 0068 0646     		mov	r6, r0
 1393 006a 0028     		cmp	r0, #0
 1394 006c E5D1     		bne	.L92
 902:BMI088/Src/bmi08a.c **** 						index += dev->read_write_len) {
 1395              		.loc 1 902 16 view .LVU412
 1396 006e 0025     		movs	r5, #0
ARM GAS  C:\Users\Lenovo\AppData\Local\Temp\ccWML6Ej.s 			page 65


 1397 0070 09E0     		b	.L93
 1398              	.LVL129:
 1399              	.L94:
 905:BMI088/Src/bmi08a.c **** 												index, dev);
 1400              		.loc 1 905 6 is_stmt 1 view .LVU413
 905:BMI088/Src/bmi08a.c **** 												index, dev);
 1401              		.loc 1 905 39 is_stmt 0 view .LVU414
 1402 0072 2069     		ldr	r0, [r4, #16]
 905:BMI088/Src/bmi08a.c **** 												index, dev);
 1403              		.loc 1 905 13 view .LVU415
 1404 0074 2246     		mov	r2, r4
 1405 0076 2946     		mov	r1, r5
 1406 0078 2844     		add	r0, r0, r5
 1407 007a FFF7FEFF 		bl	stream_transfer_write
 1408              	.LVL130:
 1409 007e 0646     		mov	r6, r0
 1410              	.LVL131:
 903:BMI088/Src/bmi08a.c **** 					/* Write the config stream */
 1411              		.loc 1 903 7 is_stmt 1 view .LVU416
 903:BMI088/Src/bmi08a.c **** 					/* Write the config stream */
 1412              		.loc 1 903 19 is_stmt 0 view .LVU417
 1413 0080 237D     		ldrb	r3, [r4, #20]	@ zero_extendqisi2
 903:BMI088/Src/bmi08a.c **** 					/* Write the config stream */
 1414              		.loc 1 903 13 view .LVU418
 1415 0082 1D44     		add	r5, r5, r3
 1416              	.LVL132:
 903:BMI088/Src/bmi08a.c **** 					/* Write the config stream */
 1417              		.loc 1 903 13 view .LVU419
 1418 0084 ADB2     		uxth	r5, r5
 1419              	.LVL133:
 1420              	.L93:
 902:BMI088/Src/bmi08a.c **** 						index += dev->read_write_len) {
 1421              		.loc 1 902 21 is_stmt 1 discriminator 1 view .LVU420
 902:BMI088/Src/bmi08a.c **** 						index += dev->read_write_len) {
 1422              		.loc 1 902 5 is_stmt 0 discriminator 1 view .LVU421
 1423 0086 B5F5C05F 		cmp	r5, #6144
 1424 008a F2D3     		bcc	.L94
 908:BMI088/Src/bmi08a.c **** 					/* Enable config loading and FIFO mode */
 1425              		.loc 1 908 5 is_stmt 1 view .LVU422
 908:BMI088/Src/bmi08a.c **** 					/* Enable config loading and FIFO mode */
 1426              		.loc 1 908 8 is_stmt 0 view .LVU423
 1427 008c 002E     		cmp	r6, #0
 1428 008e D4D1     		bne	.L92
 910:BMI088/Src/bmi08a.c **** 
 1429              		.loc 1 910 6 is_stmt 1 view .LVU424
 910:BMI088/Src/bmi08a.c **** 
 1430              		.loc 1 910 18 is_stmt 0 view .LVU425
 1431 0090 0122     		movs	r2, #1
 1432 0092 8DF80720 		strb	r2, [sp, #7]
 912:BMI088/Src/bmi08a.c **** 
 1433              		.loc 1 912 6 is_stmt 1 view .LVU426
 912:BMI088/Src/bmi08a.c **** 
 1434              		.loc 1 912 13 is_stmt 0 view .LVU427
 1435 0096 2346     		mov	r3, r4
 1436 0098 0DF10701 		add	r1, sp, #7
 1437 009c 5920     		movs	r0, #89
 1438 009e FFF7FEFF 		bl	set_regs
ARM GAS  C:\Users\Lenovo\AppData\Local\Temp\ccWML6Ej.s 			page 66


 1439              	.LVL134:
 914:BMI088/Src/bmi08a.c **** 						/* Wait till ASIC is initialized. Refer the data-sheet
 1440              		.loc 1 914 6 is_stmt 1 view .LVU428
 914:BMI088/Src/bmi08a.c **** 						/* Wait till ASIC is initialized. Refer the data-sheet
 1441              		.loc 1 914 9 is_stmt 0 view .LVU429
 1442 00a2 0346     		mov	r3, r0
 1443 00a4 50B9     		cbnz	r0, .L95
 917:BMI088/Src/bmi08a.c **** 
 1444              		.loc 1 917 7 is_stmt 1 view .LVU430
 917:BMI088/Src/bmi08a.c **** 
 1445              		.loc 1 917 10 is_stmt 0 view .LVU431
 1446 00a6 236A     		ldr	r3, [r4, #32]
 917:BMI088/Src/bmi08a.c **** 
 1447              		.loc 1 917 7 view .LVU432
 1448 00a8 9620     		movs	r0, #150
 1449              	.LVL135:
 917:BMI088/Src/bmi08a.c **** 
 1450              		.loc 1 917 7 view .LVU433
 1451 00aa 9847     		blx	r3
 1452              	.LVL136:
 920:BMI088/Src/bmi08a.c **** 					}
 1453              		.loc 1 920 7 is_stmt 1 view .LVU434
 920:BMI088/Src/bmi08a.c **** 					}
 1454              		.loc 1 920 14 is_stmt 0 view .LVU435
 1455 00ac 2346     		mov	r3, r4
 1456 00ae 0122     		movs	r2, #1
 1457 00b0 0DF10501 		add	r1, sp, #5
 1458 00b4 2A20     		movs	r0, #42
 1459 00b6 FFF7FEFF 		bl	get_regs
 1460              	.LVL137:
 1461 00ba 0346     		mov	r3, r0
 1462              	.LVL138:
 1463              	.L95:
 922:BMI088/Src/bmi08a.c **** 						rslt = BMI08X_E_CONFIG_STREAM_ERROR;
 1464              		.loc 1 922 6 is_stmt 1 view .LVU436
 922:BMI088/Src/bmi08a.c **** 						rslt = BMI08X_E_CONFIG_STREAM_ERROR;
 1465              		.loc 1 922 9 is_stmt 0 view .LVU437
 1466 00bc 1BB9     		cbnz	r3, .L96
 922:BMI088/Src/bmi08a.c **** 						rslt = BMI08X_E_CONFIG_STREAM_ERROR;
 1467              		.loc 1 922 40 discriminator 1 view .LVU438
 1468 00be 9DF80530 		ldrb	r3, [sp, #5]	@ zero_extendqisi2
 1469              	.LVL139:
 922:BMI088/Src/bmi08a.c **** 						rslt = BMI08X_E_CONFIG_STREAM_ERROR;
 1470              		.loc 1 922 28 discriminator 1 view .LVU439
 1471 00c2 012B     		cmp	r3, #1
 1472 00c4 16D1     		bne	.L101
 1473              	.L96:
 926:BMI088/Src/bmi08a.c **** 							&current_acc_pwr_ctrl, 1, dev);
 1474              		.loc 1 926 7 is_stmt 1 view .LVU440
 926:BMI088/Src/bmi08a.c **** 							&current_acc_pwr_ctrl, 1, dev);
 1475              		.loc 1 926 14 is_stmt 0 view .LVU441
 1476 00c6 2346     		mov	r3, r4
 1477 00c8 0122     		movs	r2, #1
 1478 00ca 0DF10601 		add	r1, sp, #6
 1479 00ce 7D20     		movs	r0, #125
 1480 00d0 FFF7FEFF 		bl	set_regs
 1481              	.LVL140:
ARM GAS  C:\Users\Lenovo\AppData\Local\Temp\ccWML6Ej.s 			page 67


 928:BMI088/Src/bmi08a.c **** 						/*delay required to switch power modes*/
 1482              		.loc 1 928 6 is_stmt 1 view .LVU442
 928:BMI088/Src/bmi08a.c **** 						/*delay required to switch power modes*/
 1483              		.loc 1 928 9 is_stmt 0 view .LVU443
 1484 00d4 0646     		mov	r6, r0
 1485 00d6 0028     		cmp	r0, #0
 1486 00d8 AFD1     		bne	.L92
 930:BMI088/Src/bmi08a.c **** 						}
 1487              		.loc 1 930 7 is_stmt 1 view .LVU444
 930:BMI088/Src/bmi08a.c **** 						}
 1488              		.loc 1 930 10 is_stmt 0 view .LVU445
 1489 00da 236A     		ldr	r3, [r4, #32]
 930:BMI088/Src/bmi08a.c **** 						}
 1490              		.loc 1 930 7 view .LVU446
 1491 00dc 0520     		movs	r0, #5
 1492              	.LVL141:
 930:BMI088/Src/bmi08a.c **** 						}
 1493              		.loc 1 930 7 view .LVU447
 1494 00de 9847     		blx	r3
 1495              	.LVL142:
 1496 00e0 ABE7     		b	.L92
 1497              	.LVL143:
 1498              	.L97:
 939:BMI088/Src/bmi08a.c **** 	}
 1499              		.loc 1 939 8 view .LVU448
 1500 00e2 4FF0FF36 		mov	r6, #-1
 1501 00e6 A8E7     		b	.L92
 1502              	.L98:
 1503 00e8 4FF0FF36 		mov	r6, #-1
 1504 00ec A5E7     		b	.L92
 1505              	.L99:
 936:BMI088/Src/bmi08a.c **** 		}
 1506              		.loc 1 936 9 view .LVU449
 1507 00ee 6FF00606 		mvn	r6, #6
 1508 00f2 A2E7     		b	.L92
 1509              	.LVL144:
 1510              	.L101:
 923:BMI088/Src/bmi08a.c **** 					} else {
 1511              		.loc 1 923 12 view .LVU450
 1512 00f4 6FF00506 		mvn	r6, #5
 1513 00f8 9FE7     		b	.L92
 1514              		.cfi_endproc
 1515              	.LFE1:
 1517              		.section	.text.bmi08a_get_regs,"ax",%progbits
 1518              		.align	1
 1519              		.global	bmi08a_get_regs
 1520              		.syntax unified
 1521              		.thumb
 1522              		.thumb_func
 1524              	bmi08a_get_regs:
 1525              	.LVL145:
 1526              	.LFB3:
 983:BMI088/Src/bmi08a.c **** 	int8_t rslt;
 1527              		.loc 1 983 1 is_stmt 1 view -0
 1528              		.cfi_startproc
 1529              		@ args = 0, pretend = 0, frame = 0
 1530              		@ frame_needed = 0, uses_anonymous_args = 0
ARM GAS  C:\Users\Lenovo\AppData\Local\Temp\ccWML6Ej.s 			page 68


 983:BMI088/Src/bmi08a.c **** 	int8_t rslt;
 1531              		.loc 1 983 1 is_stmt 0 view .LVU452
 1532 0000 F8B5     		push	{r3, r4, r5, r6, r7, lr}
 1533              	.LCFI35:
 1534              		.cfi_def_cfa_offset 24
 1535              		.cfi_offset 3, -24
 1536              		.cfi_offset 4, -20
 1537              		.cfi_offset 5, -16
 1538              		.cfi_offset 6, -12
 1539              		.cfi_offset 7, -8
 1540              		.cfi_offset 14, -4
 1541 0002 0746     		mov	r7, r0
 1542 0004 0D46     		mov	r5, r1
 1543 0006 1646     		mov	r6, r2
 1544 0008 1C46     		mov	r4, r3
 984:BMI088/Src/bmi08a.c **** 	/* Check for null pointer in the device structure*/
 1545              		.loc 1 984 2 is_stmt 1 view .LVU453
 986:BMI088/Src/bmi08a.c **** 
 1546              		.loc 1 986 2 view .LVU454
 986:BMI088/Src/bmi08a.c **** 
 1547              		.loc 1 986 9 is_stmt 0 view .LVU455
 1548 000a 1846     		mov	r0, r3
 1549              	.LVL146:
 986:BMI088/Src/bmi08a.c **** 
 1550              		.loc 1 986 9 view .LVU456
 1551 000c FFF7FEFF 		bl	null_ptr_check
 1552              	.LVL147:
 989:BMI088/Src/bmi08a.c **** 		if (len > 0) {
 1553              		.loc 1 989 2 is_stmt 1 view .LVU457
 989:BMI088/Src/bmi08a.c **** 		if (len > 0) {
 1554              		.loc 1 989 5 is_stmt 0 view .LVU458
 1555 0010 40B9     		cbnz	r0, .L106
 989:BMI088/Src/bmi08a.c **** 		if (len > 0) {
 1556              		.loc 1 989 26 discriminator 1 view .LVU459
 1557 0012 55B1     		cbz	r5, .L107
 990:BMI088/Src/bmi08a.c **** 			/* Reading from the register */
 1558              		.loc 1 990 3 is_stmt 1 view .LVU460
 990:BMI088/Src/bmi08a.c **** 			/* Reading from the register */
 1559              		.loc 1 990 6 is_stmt 0 view .LVU461
 1560 0014 66B1     		cbz	r6, .L108
 992:BMI088/Src/bmi08a.c **** 		} else {
 1561              		.loc 1 992 4 is_stmt 1 view .LVU462
 992:BMI088/Src/bmi08a.c **** 		} else {
 1562              		.loc 1 992 11 is_stmt 0 view .LVU463
 1563 0016 2346     		mov	r3, r4
 1564 0018 3246     		mov	r2, r6
 1565 001a 2946     		mov	r1, r5
 1566 001c 3846     		mov	r0, r7
 1567              	.LVL148:
 992:BMI088/Src/bmi08a.c **** 		} else {
 1568              		.loc 1 992 11 view .LVU464
 1569 001e FFF7FEFF 		bl	get_regs
 1570              	.LVL149:
 1571              	.L105:
1000:BMI088/Src/bmi08a.c **** }
 1572              		.loc 1 1000 2 is_stmt 1 view .LVU465
1001:BMI088/Src/bmi08a.c **** 
ARM GAS  C:\Users\Lenovo\AppData\Local\Temp\ccWML6Ej.s 			page 69


 1573              		.loc 1 1001 1 is_stmt 0 view .LVU466
 1574 0022 F8BD     		pop	{r3, r4, r5, r6, r7, pc}
 1575              	.LVL150:
 1576              	.L106:
 997:BMI088/Src/bmi08a.c **** 	}
 1577              		.loc 1 997 8 view .LVU467
 1578 0024 4FF0FF30 		mov	r0, #-1
 1579              	.LVL151:
 997:BMI088/Src/bmi08a.c **** 	}
 1580              		.loc 1 997 8 view .LVU468
 1581 0028 FBE7     		b	.L105
 1582              	.LVL152:
 1583              	.L107:
 997:BMI088/Src/bmi08a.c **** 	}
 1584              		.loc 1 997 8 view .LVU469
 1585 002a 4FF0FF30 		mov	r0, #-1
 1586              	.LVL153:
 997:BMI088/Src/bmi08a.c **** 	}
 1587              		.loc 1 997 8 view .LVU470
 1588 002e F8E7     		b	.L105
 1589              	.LVL154:
 1590              	.L108:
 994:BMI088/Src/bmi08a.c **** 		}
 1591              		.loc 1 994 9 view .LVU471
 1592 0030 6FF00600 		mvn	r0, #6
 1593              	.LVL155:
 994:BMI088/Src/bmi08a.c **** 		}
 1594              		.loc 1 994 9 view .LVU472
 1595 0034 F5E7     		b	.L105
 1596              		.cfi_endproc
 1597              	.LFE3:
 1599              		.section	.text.bmi08a_set_regs,"ax",%progbits
 1600              		.align	1
 1601              		.global	bmi08a_set_regs
 1602              		.syntax unified
 1603              		.thumb
 1604              		.thumb_func
 1606              	bmi08a_set_regs:
 1607              	.LVL156:
 1608              	.LFB4:
1008:BMI088/Src/bmi08a.c **** 	int8_t rslt;
 1609              		.loc 1 1008 1 is_stmt 1 view -0
 1610              		.cfi_startproc
 1611              		@ args = 0, pretend = 0, frame = 0
 1612              		@ frame_needed = 0, uses_anonymous_args = 0
1008:BMI088/Src/bmi08a.c **** 	int8_t rslt;
 1613              		.loc 1 1008 1 is_stmt 0 view .LVU474
 1614 0000 F8B5     		push	{r3, r4, r5, r6, r7, lr}
 1615              	.LCFI36:
 1616              		.cfi_def_cfa_offset 24
 1617              		.cfi_offset 3, -24
 1618              		.cfi_offset 4, -20
 1619              		.cfi_offset 5, -16
 1620              		.cfi_offset 6, -12
 1621              		.cfi_offset 7, -8
 1622              		.cfi_offset 14, -4
 1623 0002 0746     		mov	r7, r0
ARM GAS  C:\Users\Lenovo\AppData\Local\Temp\ccWML6Ej.s 			page 70


 1624 0004 0D46     		mov	r5, r1
 1625 0006 1646     		mov	r6, r2
 1626 0008 1C46     		mov	r4, r3
1009:BMI088/Src/bmi08a.c **** 
 1627              		.loc 1 1009 2 is_stmt 1 view .LVU475
1012:BMI088/Src/bmi08a.c **** 
 1628              		.loc 1 1012 2 view .LVU476
1012:BMI088/Src/bmi08a.c **** 
 1629              		.loc 1 1012 9 is_stmt 0 view .LVU477
 1630 000a 1846     		mov	r0, r3
 1631              	.LVL157:
1012:BMI088/Src/bmi08a.c **** 
 1632              		.loc 1 1012 9 view .LVU478
 1633 000c FFF7FEFF 		bl	null_ptr_check
 1634              	.LVL158:
1015:BMI088/Src/bmi08a.c **** 		if (len > 0) {
 1635              		.loc 1 1015 2 is_stmt 1 view .LVU479
1015:BMI088/Src/bmi08a.c **** 		if (len > 0) {
 1636              		.loc 1 1015 5 is_stmt 0 view .LVU480
 1637 0010 40B9     		cbnz	r0, .L112
1015:BMI088/Src/bmi08a.c **** 		if (len > 0) {
 1638              		.loc 1 1015 26 discriminator 1 view .LVU481
 1639 0012 55B1     		cbz	r5, .L113
1016:BMI088/Src/bmi08a.c **** 			/* Writing to the register */
 1640              		.loc 1 1016 3 is_stmt 1 view .LVU482
1016:BMI088/Src/bmi08a.c **** 			/* Writing to the register */
 1641              		.loc 1 1016 6 is_stmt 0 view .LVU483
 1642 0014 66B1     		cbz	r6, .L114
1018:BMI088/Src/bmi08a.c **** 		} else {
 1643              		.loc 1 1018 4 is_stmt 1 view .LVU484
1018:BMI088/Src/bmi08a.c **** 		} else {
 1644              		.loc 1 1018 11 is_stmt 0 view .LVU485
 1645 0016 2346     		mov	r3, r4
 1646 0018 3246     		mov	r2, r6
 1647 001a 2946     		mov	r1, r5
 1648 001c 3846     		mov	r0, r7
 1649              	.LVL159:
1018:BMI088/Src/bmi08a.c **** 		} else {
 1650              		.loc 1 1018 11 view .LVU486
 1651 001e FFF7FEFF 		bl	set_regs
 1652              	.LVL160:
 1653              	.L111:
1026:BMI088/Src/bmi08a.c **** }
 1654              		.loc 1 1026 2 is_stmt 1 view .LVU487
1027:BMI088/Src/bmi08a.c **** 
 1655              		.loc 1 1027 1 is_stmt 0 view .LVU488
 1656 0022 F8BD     		pop	{r3, r4, r5, r6, r7, pc}
 1657              	.LVL161:
 1658              	.L112:
1023:BMI088/Src/bmi08a.c **** 	}
 1659              		.loc 1 1023 8 view .LVU489
 1660 0024 4FF0FF30 		mov	r0, #-1
 1661              	.LVL162:
1023:BMI088/Src/bmi08a.c **** 	}
 1662              		.loc 1 1023 8 view .LVU490
 1663 0028 FBE7     		b	.L111
 1664              	.LVL163:
ARM GAS  C:\Users\Lenovo\AppData\Local\Temp\ccWML6Ej.s 			page 71


 1665              	.L113:
1023:BMI088/Src/bmi08a.c **** 	}
 1666              		.loc 1 1023 8 view .LVU491
 1667 002a 4FF0FF30 		mov	r0, #-1
 1668              	.LVL164:
1023:BMI088/Src/bmi08a.c **** 	}
 1669              		.loc 1 1023 8 view .LVU492
 1670 002e F8E7     		b	.L111
 1671              	.LVL165:
 1672              	.L114:
1020:BMI088/Src/bmi08a.c **** 		}
 1673              		.loc 1 1020 9 view .LVU493
 1674 0030 6FF00600 		mvn	r0, #6
 1675              	.LVL166:
1020:BMI088/Src/bmi08a.c **** 		}
 1676              		.loc 1 1020 9 view .LVU494
 1677 0034 F5E7     		b	.L111
 1678              		.cfi_endproc
 1679              	.LFE4:
 1681              		.section	.text.bmi08a_write_feature_config,"ax",%progbits
 1682              		.align	1
 1683              		.global	bmi08a_write_feature_config
 1684              		.syntax unified
 1685              		.thumb
 1686              		.thumb_func
 1688              	bmi08a_write_feature_config:
 1689              	.LVL167:
 1690              	.LFB2:
 950:BMI088/Src/bmi08a.c **** 	int8_t rslt;
 1691              		.loc 1 950 1 is_stmt 1 view -0
 1692              		.cfi_startproc
 1693              		@ args = 0, pretend = 0, frame = 0
 1694              		@ frame_needed = 1, uses_anonymous_args = 0
 950:BMI088/Src/bmi08a.c **** 	int8_t rslt;
 1695              		.loc 1 950 1 is_stmt 0 view .LVU496
 1696 0000 2DE9F047 		push	{r4, r5, r6, r7, r8, r9, r10, lr}
 1697              	.LCFI37:
 1698              		.cfi_def_cfa_offset 32
 1699              		.cfi_offset 4, -32
 1700              		.cfi_offset 5, -28
 1701              		.cfi_offset 6, -24
 1702              		.cfi_offset 7, -20
 1703              		.cfi_offset 8, -16
 1704              		.cfi_offset 9, -12
 1705              		.cfi_offset 10, -8
 1706              		.cfi_offset 14, -4
 1707 0004 00AF     		add	r7, sp, #0
 1708              	.LCFI38:
 1709              		.cfi_def_cfa_register 7
 1710 0006 0546     		mov	r5, r0
 1711 0008 8946     		mov	r9, r1
 1712 000a 1446     		mov	r4, r2
 1713 000c 9846     		mov	r8, r3
 951:BMI088/Src/bmi08a.c **** 	/* Check for null pointer in the device structure*/
 1714              		.loc 1 951 2 is_stmt 1 view .LVU497
 953:BMI088/Src/bmi08a.c **** 
 1715              		.loc 1 953 2 view .LVU498
ARM GAS  C:\Users\Lenovo\AppData\Local\Temp\ccWML6Ej.s 			page 72


 953:BMI088/Src/bmi08a.c **** 
 1716              		.loc 1 953 9 is_stmt 0 view .LVU499
 1717 000e 1846     		mov	r0, r3
 1718              	.LVL168:
 953:BMI088/Src/bmi08a.c **** 
 1719              		.loc 1 953 9 view .LVU500
 1720 0010 FFF7FEFF 		bl	null_ptr_check
 1721              	.LVL169:
 955:BMI088/Src/bmi08a.c **** 	uint8_t feature_data[read_length];
 1722              		.loc 1 955 2 is_stmt 1 view .LVU501
 955:BMI088/Src/bmi08a.c **** 	uint8_t feature_data[read_length];
 1723              		.loc 1 955 38 is_stmt 0 view .LVU502
 1724 0014 2E19     		adds	r6, r5, r4
 955:BMI088/Src/bmi08a.c **** 	uint8_t feature_data[read_length];
 1725              		.loc 1 955 11 view .LVU503
 1726 0016 7600     		lsls	r6, r6, #1
 1727              	.LVL170:
 956:BMI088/Src/bmi08a.c **** 
 1728              		.loc 1 956 2 is_stmt 1 view .LVU504
 956:BMI088/Src/bmi08a.c **** 
 1729              		.loc 1 956 10 is_stmt 0 view .LVU505
 1730 0018 F31D     		adds	r3, r6, #7
 1731 001a 03F4FF63 		and	r3, r3, #2040
 1732 001e ADEB030D 		sub	sp, sp, r3
 1733              	.LVL171:
 959:BMI088/Src/bmi08a.c **** 		/* Read feature space up to the given feature position */
 1734              		.loc 1 959 2 is_stmt 1 view .LVU506
 959:BMI088/Src/bmi08a.c **** 		/* Read feature space up to the given feature position */
 1735              		.loc 1 959 5 is_stmt 0 view .LVU507
 1736 0022 10B1     		cbz	r0, .L122
 1737              	.LVL172:
 1738              	.L117:
 976:BMI088/Src/bmi08a.c **** }
 1739              		.loc 1 976 2 is_stmt 1 view .LVU508
 977:BMI088/Src/bmi08a.c **** 
 1740              		.loc 1 977 1 is_stmt 0 view .LVU509
 1741 0024 BD46     		mov	sp, r7
 1742              	.LCFI39:
 1743              		.cfi_remember_state
 1744              		.cfi_def_cfa_register 13
 1745              	.LVL173:
 977:BMI088/Src/bmi08a.c **** 
 1746              		.loc 1 977 1 view .LVU510
 1747              		@ sp needed
 1748 0026 BDE8F087 		pop	{r4, r5, r6, r7, r8, r9, r10, pc}
 1749              	.LVL174:
 1750              	.L122:
 1751              	.LCFI40:
 1752              		.cfi_restore_state
 977:BMI088/Src/bmi08a.c **** 
 1753              		.loc 1 977 1 view .LVU511
 1754 002a EA46     		mov	r10, sp
 961:BMI088/Src/bmi08a.c **** 
 1755              		.loc 1 961 3 is_stmt 1 view .LVU512
 961:BMI088/Src/bmi08a.c **** 
 1756              		.loc 1 961 10 is_stmt 0 view .LVU513
 1757 002c 4346     		mov	r3, r8
ARM GAS  C:\Users\Lenovo\AppData\Local\Temp\ccWML6Ej.s 			page 73


 1758 002e 3246     		mov	r2, r6
 1759 0030 5146     		mov	r1, r10
 1760 0032 5E20     		movs	r0, #94
 1761 0034 FFF7FEFF 		bl	bmi08a_get_regs
 1762              	.LVL175:
 963:BMI088/Src/bmi08a.c **** 			/* Apply the given feature config. */
 1763              		.loc 1 963 3 is_stmt 1 view .LVU514
 963:BMI088/Src/bmi08a.c **** 			/* Apply the given feature config. */
 1764              		.loc 1 963 6 is_stmt 0 view .LVU515
 1765 0038 0028     		cmp	r0, #0
 1766 003a F3D1     		bne	.L117
 1767              	.LVL176:
 1768              	.LBB2:
 965:BMI088/Src/bmi08a.c **** 				/* Be careful: the feature config space is 16bit aligned! */
 1769              		.loc 1 965 13 view .LVU516
 1770 003c 4FF0000C 		mov	ip, #0
 1771 0040 0CE0     		b	.L118
 1772              	.LVL177:
 1773              	.L119:
 967:BMI088/Src/bmi08a.c **** 				feature_data[(reg_addr*2) + (i*2) + 1] = reg_data[i]>>8;
 1774              		.loc 1 967 5 is_stmt 1 discriminator 3 view .LVU517
 967:BMI088/Src/bmi08a.c **** 				feature_data[(reg_addr*2) + (i*2) + 1] = reg_data[i]>>8;
 1775              		.loc 1 967 50 is_stmt 0 discriminator 3 view .LVU518
 1776 0042 39F81C30 		ldrh	r3, [r9, ip, lsl #1]
 967:BMI088/Src/bmi08a.c **** 				feature_data[(reg_addr*2) + (i*2) + 1] = reg_data[i]>>8;
 1777              		.loc 1 967 31 discriminator 3 view .LVU519
 1778 0046 05EB0C01 		add	r1, r5, ip
 1779 004a 4A00     		lsls	r2, r1, #1
 967:BMI088/Src/bmi08a.c **** 				feature_data[(reg_addr*2) + (i*2) + 1] = reg_data[i]>>8;
 1780              		.loc 1 967 40 discriminator 3 view .LVU520
 1781 004c 0AF81130 		strb	r3, [r10, r1, lsl #1]
 968:BMI088/Src/bmi08a.c **** 			}
 1782              		.loc 1 968 5 is_stmt 1 discriminator 3 view .LVU521
 968:BMI088/Src/bmi08a.c **** 			}
 1783              		.loc 1 968 39 is_stmt 0 discriminator 3 view .LVU522
 1784 0050 0132     		adds	r2, r2, #1
 968:BMI088/Src/bmi08a.c **** 			}
 1785              		.loc 1 968 44 discriminator 3 view .LVU523
 1786 0052 1B0A     		lsrs	r3, r3, #8
 1787 0054 0AF80230 		strb	r3, [r10, r2]
 965:BMI088/Src/bmi08a.c **** 				/* Be careful: the feature config space is 16bit aligned! */
 1788              		.loc 1 965 29 is_stmt 1 discriminator 3 view .LVU524
 1789 0058 0CF1010C 		add	ip, ip, #1
 1790              	.LVL178:
 1791              	.L118:
 965:BMI088/Src/bmi08a.c **** 				/* Be careful: the feature config space is 16bit aligned! */
 1792              		.loc 1 965 20 discriminator 1 view .LVU525
 965:BMI088/Src/bmi08a.c **** 				/* Be careful: the feature config space is 16bit aligned! */
 1793              		.loc 1 965 4 is_stmt 0 discriminator 1 view .LVU526
 1794 005c 6445     		cmp	r4, ip
 1795 005e F0DC     		bgt	.L119
 1796              	.LBE2:
 972:BMI088/Src/bmi08a.c **** 		}
 1797              		.loc 1 972 4 is_stmt 1 view .LVU527
 972:BMI088/Src/bmi08a.c **** 		}
 1798              		.loc 1 972 11 is_stmt 0 view .LVU528
 1799 0060 4346     		mov	r3, r8
ARM GAS  C:\Users\Lenovo\AppData\Local\Temp\ccWML6Ej.s 			page 74


 1800 0062 3246     		mov	r2, r6
 1801 0064 5146     		mov	r1, r10
 1802 0066 5E20     		movs	r0, #94
 1803              	.LVL179:
 972:BMI088/Src/bmi08a.c **** 		}
 1804              		.loc 1 972 11 view .LVU529
 1805 0068 FFF7FEFF 		bl	bmi08a_set_regs
 1806              	.LVL180:
 972:BMI088/Src/bmi08a.c **** 		}
 1807              		.loc 1 972 11 view .LVU530
 1808 006c DAE7     		b	.L117
 1809              		.cfi_endproc
 1810              	.LFE2:
 1812              		.section	.text.bmi08a_get_error_status,"ax",%progbits
 1813              		.align	1
 1814              		.global	bmi08a_get_error_status
 1815              		.syntax unified
 1816              		.thumb
 1817              		.thumb_func
 1819              	bmi08a_get_error_status:
 1820              	.LVL181:
 1821              	.LFB5:
1033:BMI088/Src/bmi08a.c **** 	int8_t rslt;
 1822              		.loc 1 1033 1 is_stmt 1 view -0
 1823              		.cfi_startproc
 1824              		@ args = 0, pretend = 0, frame = 8
 1825              		@ frame_needed = 0, uses_anonymous_args = 0
1033:BMI088/Src/bmi08a.c **** 	int8_t rslt;
 1826              		.loc 1 1033 1 is_stmt 0 view .LVU532
 1827 0000 30B5     		push	{r4, r5, lr}
 1828              	.LCFI41:
 1829              		.cfi_def_cfa_offset 12
 1830              		.cfi_offset 4, -12
 1831              		.cfi_offset 5, -8
 1832              		.cfi_offset 14, -4
 1833 0002 83B0     		sub	sp, sp, #12
 1834              	.LCFI42:
 1835              		.cfi_def_cfa_offset 24
 1836 0004 0546     		mov	r5, r0
 1837 0006 0C46     		mov	r4, r1
1034:BMI088/Src/bmi08a.c **** 	uint8_t data = 0;
 1838              		.loc 1 1034 2 is_stmt 1 view .LVU533
1035:BMI088/Src/bmi08a.c **** 
 1839              		.loc 1 1035 2 view .LVU534
1035:BMI088/Src/bmi08a.c **** 
 1840              		.loc 1 1035 10 is_stmt 0 view .LVU535
 1841 0008 0023     		movs	r3, #0
 1842 000a 8DF80730 		strb	r3, [sp, #7]
1038:BMI088/Src/bmi08a.c **** 	/* Proceed if null check is fine */
 1843              		.loc 1 1038 2 is_stmt 1 view .LVU536
1038:BMI088/Src/bmi08a.c **** 	/* Proceed if null check is fine */
 1844              		.loc 1 1038 9 is_stmt 0 view .LVU537
 1845 000e 0846     		mov	r0, r1
 1846              	.LVL182:
1038:BMI088/Src/bmi08a.c **** 	/* Proceed if null check is fine */
 1847              		.loc 1 1038 9 view .LVU538
 1848 0010 FFF7FEFF 		bl	null_ptr_check
ARM GAS  C:\Users\Lenovo\AppData\Local\Temp\ccWML6Ej.s 			page 75


 1849              	.LVL183:
1040:BMI088/Src/bmi08a.c **** 		if (err_reg != NULL) {
 1850              		.loc 1 1040 2 is_stmt 1 view .LVU539
1040:BMI088/Src/bmi08a.c **** 		if (err_reg != NULL) {
 1851              		.loc 1 1040 5 is_stmt 0 view .LVU540
 1852 0014 80B9     		cbnz	r0, .L124
1041:BMI088/Src/bmi08a.c **** 			/* Read the error codes */
 1853              		.loc 1 1041 3 is_stmt 1 view .LVU541
1041:BMI088/Src/bmi08a.c **** 			/* Read the error codes */
 1854              		.loc 1 1041 6 is_stmt 0 view .LVU542
 1855 0016 8DB1     		cbz	r5, .L125
1043:BMI088/Src/bmi08a.c **** 
 1856              		.loc 1 1043 4 is_stmt 1 view .LVU543
1043:BMI088/Src/bmi08a.c **** 
 1857              		.loc 1 1043 11 is_stmt 0 view .LVU544
 1858 0018 2346     		mov	r3, r4
 1859 001a 0122     		movs	r2, #1
 1860 001c 0DF10701 		add	r1, sp, #7
 1861 0020 0220     		movs	r0, #2
 1862 0022 FFF7FEFF 		bl	get_regs
 1863              	.LVL184:
1045:BMI088/Src/bmi08a.c **** 				/* Fatal error */
 1864              		.loc 1 1045 4 is_stmt 1 view .LVU545
1045:BMI088/Src/bmi08a.c **** 				/* Fatal error */
 1865              		.loc 1 1045 7 is_stmt 0 view .LVU546
 1866 0026 38B9     		cbnz	r0, .L124
1047:BMI088/Src/bmi08a.c **** 				/* User error */
 1867              		.loc 1 1047 5 is_stmt 1 view .LVU547
1047:BMI088/Src/bmi08a.c **** 				/* User error */
 1868              		.loc 1 1047 26 is_stmt 0 view .LVU548
 1869 0028 9DF80730 		ldrb	r3, [sp, #7]	@ zero_extendqisi2
 1870 002c 03F00102 		and	r2, r3, #1
1047:BMI088/Src/bmi08a.c **** 				/* User error */
 1871              		.loc 1 1047 24 view .LVU549
 1872 0030 2A70     		strb	r2, [r5]
1049:BMI088/Src/bmi08a.c **** 			}
 1873              		.loc 1 1049 5 is_stmt 1 view .LVU550
1049:BMI088/Src/bmi08a.c **** 			}
 1874              		.loc 1 1049 25 is_stmt 0 view .LVU551
 1875 0032 C3F38203 		ubfx	r3, r3, #2, #3
1049:BMI088/Src/bmi08a.c **** 			}
 1876              		.loc 1 1049 23 view .LVU552
 1877 0036 6B70     		strb	r3, [r5, #1]
 1878              	.LVL185:
 1879              	.L124:
1056:BMI088/Src/bmi08a.c **** }
 1880              		.loc 1 1056 2 is_stmt 1 view .LVU553
1057:BMI088/Src/bmi08a.c **** 
 1881              		.loc 1 1057 1 is_stmt 0 view .LVU554
 1882 0038 03B0     		add	sp, sp, #12
 1883              	.LCFI43:
 1884              		.cfi_remember_state
 1885              		.cfi_def_cfa_offset 12
 1886              		@ sp needed
 1887 003a 30BD     		pop	{r4, r5, pc}
 1888              	.LVL186:
 1889              	.L125:
ARM GAS  C:\Users\Lenovo\AppData\Local\Temp\ccWML6Ej.s 			page 76


 1890              	.LCFI44:
 1891              		.cfi_restore_state
1052:BMI088/Src/bmi08a.c **** 		}
 1892              		.loc 1 1052 9 view .LVU555
 1893 003c 4FF0FF30 		mov	r0, #-1
 1894 0040 FAE7     		b	.L124
 1895              		.cfi_endproc
 1896              	.LFE5:
 1898              		.section	.text.bmi08a_get_status,"ax",%progbits
 1899              		.align	1
 1900              		.global	bmi08a_get_status
 1901              		.syntax unified
 1902              		.thumb
 1903              		.thumb_func
 1905              	bmi08a_get_status:
 1906              	.LVL187:
 1907              	.LFB6:
1063:BMI088/Src/bmi08a.c **** 	int8_t rslt;
 1908              		.loc 1 1063 1 is_stmt 1 view -0
 1909              		.cfi_startproc
 1910              		@ args = 0, pretend = 0, frame = 8
 1911              		@ frame_needed = 0, uses_anonymous_args = 0
1063:BMI088/Src/bmi08a.c **** 	int8_t rslt;
 1912              		.loc 1 1063 1 is_stmt 0 view .LVU557
 1913 0000 30B5     		push	{r4, r5, lr}
 1914              	.LCFI45:
 1915              		.cfi_def_cfa_offset 12
 1916              		.cfi_offset 4, -12
 1917              		.cfi_offset 5, -8
 1918              		.cfi_offset 14, -4
 1919 0002 83B0     		sub	sp, sp, #12
 1920              	.LCFI46:
 1921              		.cfi_def_cfa_offset 24
 1922 0004 0546     		mov	r5, r0
 1923 0006 0C46     		mov	r4, r1
1064:BMI088/Src/bmi08a.c **** 	uint8_t data = 0;
 1924              		.loc 1 1064 2 is_stmt 1 view .LVU558
1065:BMI088/Src/bmi08a.c **** 
 1925              		.loc 1 1065 2 view .LVU559
1065:BMI088/Src/bmi08a.c **** 
 1926              		.loc 1 1065 10 is_stmt 0 view .LVU560
 1927 0008 0023     		movs	r3, #0
 1928 000a 8DF80730 		strb	r3, [sp, #7]
1068:BMI088/Src/bmi08a.c **** 
 1929              		.loc 1 1068 2 is_stmt 1 view .LVU561
1068:BMI088/Src/bmi08a.c **** 
 1930              		.loc 1 1068 9 is_stmt 0 view .LVU562
 1931 000e 0846     		mov	r0, r1
 1932              	.LVL188:
1068:BMI088/Src/bmi08a.c **** 
 1933              		.loc 1 1068 9 view .LVU563
 1934 0010 FFF7FEFF 		bl	null_ptr_check
 1935              	.LVL189:
1071:BMI088/Src/bmi08a.c **** 		/* Read the status */
 1936              		.loc 1 1071 2 is_stmt 1 view .LVU564
1071:BMI088/Src/bmi08a.c **** 		/* Read the status */
 1937              		.loc 1 1071 5 is_stmt 0 view .LVU565
ARM GAS  C:\Users\Lenovo\AppData\Local\Temp\ccWML6Ej.s 			page 77


 1938 0014 70B9     		cbnz	r0, .L129
1071:BMI088/Src/bmi08a.c **** 		/* Read the status */
 1939              		.loc 1 1071 26 discriminator 1 view .LVU566
 1940 0016 85B1     		cbz	r5, .L130
1073:BMI088/Src/bmi08a.c **** 
 1941              		.loc 1 1073 3 is_stmt 1 view .LVU567
1073:BMI088/Src/bmi08a.c **** 
 1942              		.loc 1 1073 10 is_stmt 0 view .LVU568
 1943 0018 2346     		mov	r3, r4
 1944 001a 0122     		movs	r2, #1
 1945 001c 0DF10701 		add	r1, sp, #7
 1946 0020 0320     		movs	r0, #3
 1947              	.LVL190:
1073:BMI088/Src/bmi08a.c **** 
 1948              		.loc 1 1073 10 view .LVU569
 1949 0022 FFF7FEFF 		bl	get_regs
 1950              	.LVL191:
1075:BMI088/Src/bmi08a.c **** 			/* Updating the status */
 1951              		.loc 1 1075 3 is_stmt 1 view .LVU570
1075:BMI088/Src/bmi08a.c **** 			/* Updating the status */
 1952              		.loc 1 1075 6 is_stmt 0 view .LVU571
 1953 0026 18B9     		cbnz	r0, .L128
1077:BMI088/Src/bmi08a.c **** 		}
 1954              		.loc 1 1077 4 is_stmt 1 view .LVU572
1077:BMI088/Src/bmi08a.c **** 		}
 1955              		.loc 1 1077 14 is_stmt 0 view .LVU573
 1956 0028 9DF80730 		ldrb	r3, [sp, #7]	@ zero_extendqisi2
 1957 002c DB09     		lsrs	r3, r3, #7
1077:BMI088/Src/bmi08a.c **** 		}
 1958              		.loc 1 1077 12 view .LVU574
 1959 002e 2B70     		strb	r3, [r5]
 1960              	.LVL192:
 1961              	.L128:
1083:BMI088/Src/bmi08a.c **** }
 1962              		.loc 1 1083 2 is_stmt 1 view .LVU575
1084:BMI088/Src/bmi08a.c **** 
 1963              		.loc 1 1084 1 is_stmt 0 view .LVU576
 1964 0030 03B0     		add	sp, sp, #12
 1965              	.LCFI47:
 1966              		.cfi_remember_state
 1967              		.cfi_def_cfa_offset 12
 1968              		@ sp needed
 1969 0032 30BD     		pop	{r4, r5, pc}
 1970              	.LVL193:
 1971              	.L129:
 1972              	.LCFI48:
 1973              		.cfi_restore_state
1080:BMI088/Src/bmi08a.c **** 	}
 1974              		.loc 1 1080 8 view .LVU577
 1975 0034 4FF0FF30 		mov	r0, #-1
 1976              	.LVL194:
1080:BMI088/Src/bmi08a.c **** 	}
 1977              		.loc 1 1080 8 view .LVU578
 1978 0038 FAE7     		b	.L128
 1979              	.LVL195:
 1980              	.L130:
1080:BMI088/Src/bmi08a.c **** 	}
ARM GAS  C:\Users\Lenovo\AppData\Local\Temp\ccWML6Ej.s 			page 78


 1981              		.loc 1 1080 8 view .LVU579
 1982 003a 4FF0FF30 		mov	r0, #-1
 1983              	.LVL196:
1080:BMI088/Src/bmi08a.c **** 	}
 1984              		.loc 1 1080 8 view .LVU580
 1985 003e F7E7     		b	.L128
 1986              		.cfi_endproc
 1987              	.LFE6:
 1989              		.section	.text.bmi08a_soft_reset,"ax",%progbits
 1990              		.align	1
 1991              		.global	bmi08a_soft_reset
 1992              		.syntax unified
 1993              		.thumb
 1994              		.thumb_func
 1996              	bmi08a_soft_reset:
 1997              	.LVL197:
 1998              	.LFB7:
1090:BMI088/Src/bmi08a.c **** 	int8_t rslt;
 1999              		.loc 1 1090 1 is_stmt 1 view -0
 2000              		.cfi_startproc
 2001              		@ args = 0, pretend = 0, frame = 8
 2002              		@ frame_needed = 0, uses_anonymous_args = 0
1090:BMI088/Src/bmi08a.c **** 	int8_t rslt;
 2003              		.loc 1 1090 1 is_stmt 0 view .LVU582
 2004 0000 30B5     		push	{r4, r5, lr}
 2005              	.LCFI49:
 2006              		.cfi_def_cfa_offset 12
 2007              		.cfi_offset 4, -12
 2008              		.cfi_offset 5, -8
 2009              		.cfi_offset 14, -4
 2010 0002 83B0     		sub	sp, sp, #12
 2011              	.LCFI50:
 2012              		.cfi_def_cfa_offset 24
 2013 0004 0446     		mov	r4, r0
1091:BMI088/Src/bmi08a.c **** 	uint8_t data;
 2014              		.loc 1 1091 2 is_stmt 1 view .LVU583
1092:BMI088/Src/bmi08a.c **** 
 2015              		.loc 1 1092 2 view .LVU584
1095:BMI088/Src/bmi08a.c **** 	/* Proceed if null check is fine */
 2016              		.loc 1 1095 2 view .LVU585
1095:BMI088/Src/bmi08a.c **** 	/* Proceed if null check is fine */
 2017              		.loc 1 1095 9 is_stmt 0 view .LVU586
 2018 0006 FFF7FEFF 		bl	null_ptr_check
 2019              	.LVL198:
1097:BMI088/Src/bmi08a.c **** 		data = BMI08X_SOFT_RESET_CMD;
 2020              		.loc 1 1097 2 is_stmt 1 view .LVU587
1097:BMI088/Src/bmi08a.c **** 		data = BMI08X_SOFT_RESET_CMD;
 2021              		.loc 1 1097 5 is_stmt 0 view .LVU588
 2022 000a 0546     		mov	r5, r0
 2023 000c 10B1     		cbz	r0, .L135
 2024              	.LVL199:
 2025              	.L133:
1115:BMI088/Src/bmi08a.c **** }
 2026              		.loc 1 1115 2 is_stmt 1 view .LVU589
1116:BMI088/Src/bmi08a.c **** 
 2027              		.loc 1 1116 1 is_stmt 0 view .LVU590
 2028 000e 2846     		mov	r0, r5
ARM GAS  C:\Users\Lenovo\AppData\Local\Temp\ccWML6Ej.s 			page 79


 2029 0010 03B0     		add	sp, sp, #12
 2030              	.LCFI51:
 2031              		.cfi_remember_state
 2032              		.cfi_def_cfa_offset 12
 2033              		@ sp needed
 2034 0012 30BD     		pop	{r4, r5, pc}
 2035              	.LVL200:
 2036              	.L135:
 2037              	.LCFI52:
 2038              		.cfi_restore_state
1098:BMI088/Src/bmi08a.c **** 		/* Reset accel device */
 2039              		.loc 1 1098 3 is_stmt 1 view .LVU591
1098:BMI088/Src/bmi08a.c **** 		/* Reset accel device */
 2040              		.loc 1 1098 8 is_stmt 0 view .LVU592
 2041 0014 B623     		movs	r3, #182
 2042 0016 8DF80730 		strb	r3, [sp, #7]
1100:BMI088/Src/bmi08a.c **** 
 2043              		.loc 1 1100 3 is_stmt 1 view .LVU593
1100:BMI088/Src/bmi08a.c **** 
 2044              		.loc 1 1100 10 is_stmt 0 view .LVU594
 2045 001a 2346     		mov	r3, r4
 2046 001c 0122     		movs	r2, #1
 2047 001e 0DF10701 		add	r1, sp, #7
 2048 0022 7E20     		movs	r0, #126
 2049              	.LVL201:
1100:BMI088/Src/bmi08a.c **** 
 2050              		.loc 1 1100 10 view .LVU595
 2051 0024 FFF7FEFF 		bl	set_regs
 2052              	.LVL202:
1102:BMI088/Src/bmi08a.c **** 			/* Delay 1 ms after reset value is written to its register */
 2053              		.loc 1 1102 3 is_stmt 1 view .LVU596
1102:BMI088/Src/bmi08a.c **** 			/* Delay 1 ms after reset value is written to its register */
 2054              		.loc 1 1102 6 is_stmt 0 view .LVU597
 2055 0028 0546     		mov	r5, r0
 2056 002a 0028     		cmp	r0, #0
 2057 002c EFD1     		bne	.L133
1104:BMI088/Src/bmi08a.c **** 			/* After soft reset SPI mode in the initialization phase, need to  perform a dummy SPI read
 2058              		.loc 1 1104 4 is_stmt 1 view .LVU598
1104:BMI088/Src/bmi08a.c **** 			/* After soft reset SPI mode in the initialization phase, need to  perform a dummy SPI read
 2059              		.loc 1 1104 7 is_stmt 0 view .LVU599
 2060 002e 236A     		ldr	r3, [r4, #32]
1104:BMI088/Src/bmi08a.c **** 			/* After soft reset SPI mode in the initialization phase, need to  perform a dummy SPI read
 2061              		.loc 1 1104 4 view .LVU600
 2062 0030 0120     		movs	r0, #1
 2063              	.LVL203:
1104:BMI088/Src/bmi08a.c **** 			/* After soft reset SPI mode in the initialization phase, need to  perform a dummy SPI read
 2064              		.loc 1 1104 4 view .LVU601
 2065 0032 9847     		blx	r3
 2066              	.LVL204:
1108:BMI088/Src/bmi08a.c **** 				/* Dummy SPI read operation of Chip-ID */
 2067              		.loc 1 1108 4 is_stmt 1 view .LVU602
1108:BMI088/Src/bmi08a.c **** 				/* Dummy SPI read operation of Chip-ID */
 2068              		.loc 1 1108 11 is_stmt 0 view .LVU603
 2069 0034 2379     		ldrb	r3, [r4, #4]	@ zero_extendqisi2
1108:BMI088/Src/bmi08a.c **** 				/* Dummy SPI read operation of Chip-ID */
 2070              		.loc 1 1108 7 view .LVU604
 2071 0036 012B     		cmp	r3, #1
ARM GAS  C:\Users\Lenovo\AppData\Local\Temp\ccWML6Ej.s 			page 80


 2072 0038 E9D1     		bne	.L133
1110:BMI088/Src/bmi08a.c **** 			}
 2073              		.loc 1 1110 5 is_stmt 1 view .LVU605
1110:BMI088/Src/bmi08a.c **** 			}
 2074              		.loc 1 1110 12 is_stmt 0 view .LVU606
 2075 003a 2346     		mov	r3, r4
 2076 003c 0122     		movs	r2, #1
 2077 003e 0DF10701 		add	r1, sp, #7
 2078 0042 0020     		movs	r0, #0
 2079 0044 FFF7FEFF 		bl	get_regs
 2080              	.LVL205:
 2081 0048 0546     		mov	r5, r0
 2082              	.LVL206:
1110:BMI088/Src/bmi08a.c **** 			}
 2083              		.loc 1 1110 12 view .LVU607
 2084 004a E0E7     		b	.L133
 2085              		.cfi_endproc
 2086              	.LFE7:
 2088              		.section	.text.bmi08a_get_meas_conf,"ax",%progbits
 2089              		.align	1
 2090              		.global	bmi08a_get_meas_conf
 2091              		.syntax unified
 2092              		.thumb
 2093              		.thumb_func
 2095              	bmi08a_get_meas_conf:
 2096              	.LVL207:
 2097              	.LFB8:
1124:BMI088/Src/bmi08a.c **** 	int8_t rslt;
 2098              		.loc 1 1124 1 is_stmt 1 view -0
 2099              		.cfi_startproc
 2100              		@ args = 0, pretend = 0, frame = 8
 2101              		@ frame_needed = 0, uses_anonymous_args = 0
1124:BMI088/Src/bmi08a.c **** 	int8_t rslt;
 2102              		.loc 1 1124 1 is_stmt 0 view .LVU609
 2103 0000 10B5     		push	{r4, lr}
 2104              	.LCFI53:
 2105              		.cfi_def_cfa_offset 8
 2106              		.cfi_offset 4, -8
 2107              		.cfi_offset 14, -4
 2108 0002 82B0     		sub	sp, sp, #8
 2109              	.LCFI54:
 2110              		.cfi_def_cfa_offset 16
 2111 0004 0446     		mov	r4, r0
1125:BMI088/Src/bmi08a.c **** 	uint8_t data[2];
 2112              		.loc 1 1125 2 is_stmt 1 view .LVU610
1126:BMI088/Src/bmi08a.c **** 
 2113              		.loc 1 1126 2 view .LVU611
1129:BMI088/Src/bmi08a.c **** 
 2114              		.loc 1 1129 2 view .LVU612
1129:BMI088/Src/bmi08a.c **** 
 2115              		.loc 1 1129 9 is_stmt 0 view .LVU613
 2116 0006 FFF7FEFF 		bl	null_ptr_check
 2117              	.LVL208:
1132:BMI088/Src/bmi08a.c **** 		rslt = get_regs(BMI08X_ACCEL_CONF_REG, data, 2, dev);
 2118              		.loc 1 1132 2 is_stmt 1 view .LVU614
1132:BMI088/Src/bmi08a.c **** 		rslt = get_regs(BMI08X_ACCEL_CONF_REG, data, 2, dev);
 2119              		.loc 1 1132 5 is_stmt 0 view .LVU615
ARM GAS  C:\Users\Lenovo\AppData\Local\Temp\ccWML6Ej.s 			page 81


 2120 000a 08B1     		cbz	r0, .L139
 2121              	.L137:
 2122              	.LVL209:
1142:BMI088/Src/bmi08a.c **** }
 2123              		.loc 1 1142 2 is_stmt 1 view .LVU616
1143:BMI088/Src/bmi08a.c **** 
 2124              		.loc 1 1143 1 is_stmt 0 view .LVU617
 2125 000c 02B0     		add	sp, sp, #8
 2126              	.LCFI55:
 2127              		.cfi_remember_state
 2128              		.cfi_def_cfa_offset 8
 2129              		@ sp needed
 2130 000e 10BD     		pop	{r4, pc}
 2131              	.LVL210:
 2132              	.L139:
 2133              	.LCFI56:
 2134              		.cfi_restore_state
1133:BMI088/Src/bmi08a.c **** 
 2135              		.loc 1 1133 3 is_stmt 1 view .LVU618
1133:BMI088/Src/bmi08a.c **** 
 2136              		.loc 1 1133 10 is_stmt 0 view .LVU619
 2137 0010 2346     		mov	r3, r4
 2138 0012 0222     		movs	r2, #2
 2139 0014 01A9     		add	r1, sp, #4
 2140 0016 4020     		movs	r0, #64
 2141 0018 FFF7FEFF 		bl	get_regs
 2142              	.LVL211:
1135:BMI088/Src/bmi08a.c **** 			dev->accel_cfg.odr = data[0] & BMI08X_ACCEL_ODR_MASK;
 2143              		.loc 1 1135 3 is_stmt 1 view .LVU620
1135:BMI088/Src/bmi08a.c **** 			dev->accel_cfg.odr = data[0] & BMI08X_ACCEL_ODR_MASK;
 2144              		.loc 1 1135 6 is_stmt 0 view .LVU621
 2145 001c 0028     		cmp	r0, #0
 2146 001e F5D1     		bne	.L137
1136:BMI088/Src/bmi08a.c **** 			dev->accel_cfg.bw = (data[0] & BMI08X_ACCEL_BW_MASK) >> 4;
 2147              		.loc 1 1136 4 is_stmt 1 view .LVU622
1136:BMI088/Src/bmi08a.c **** 			dev->accel_cfg.bw = (data[0] & BMI08X_ACCEL_BW_MASK) >> 4;
 2148              		.loc 1 1136 29 is_stmt 0 view .LVU623
 2149 0020 9DF80430 		ldrb	r3, [sp, #4]	@ zero_extendqisi2
1136:BMI088/Src/bmi08a.c **** 			dev->accel_cfg.bw = (data[0] & BMI08X_ACCEL_BW_MASK) >> 4;
 2150              		.loc 1 1136 33 view .LVU624
 2151 0024 03F00F02 		and	r2, r3, #15
1136:BMI088/Src/bmi08a.c **** 			dev->accel_cfg.bw = (data[0] & BMI08X_ACCEL_BW_MASK) >> 4;
 2152              		.loc 1 1136 23 view .LVU625
 2153 0028 6272     		strb	r2, [r4, #9]
1137:BMI088/Src/bmi08a.c **** 			dev->accel_cfg.range = data[1] & BMI08X_ACCEL_RANGE_MASK;
 2154              		.loc 1 1137 4 is_stmt 1 view .LVU626
1137:BMI088/Src/bmi08a.c **** 			dev->accel_cfg.range = data[1] & BMI08X_ACCEL_RANGE_MASK;
 2155              		.loc 1 1137 57 is_stmt 0 view .LVU627
 2156 002a C3F30213 		ubfx	r3, r3, #4, #3
1137:BMI088/Src/bmi08a.c **** 			dev->accel_cfg.range = data[1] & BMI08X_ACCEL_RANGE_MASK;
 2157              		.loc 1 1137 22 view .LVU628
 2158 002e 2372     		strb	r3, [r4, #8]
1138:BMI088/Src/bmi08a.c **** 		}
 2159              		.loc 1 1138 4 is_stmt 1 view .LVU629
1138:BMI088/Src/bmi08a.c **** 		}
 2160              		.loc 1 1138 31 is_stmt 0 view .LVU630
 2161 0030 9DF80530 		ldrb	r3, [sp, #5]	@ zero_extendqisi2
ARM GAS  C:\Users\Lenovo\AppData\Local\Temp\ccWML6Ej.s 			page 82


1138:BMI088/Src/bmi08a.c **** 		}
 2162              		.loc 1 1138 35 view .LVU631
 2163 0034 03F00303 		and	r3, r3, #3
1138:BMI088/Src/bmi08a.c **** 		}
 2164              		.loc 1 1138 25 view .LVU632
 2165 0038 E371     		strb	r3, [r4, #7]
 2166 003a E7E7     		b	.L137
 2167              		.cfi_endproc
 2168              	.LFE8:
 2170              		.section	.text.bmi08a_set_meas_conf,"ax",%progbits
 2171              		.align	1
 2172              		.global	bmi08a_set_meas_conf
 2173              		.syntax unified
 2174              		.thumb
 2175              		.thumb_func
 2177              	bmi08a_set_meas_conf:
 2178              	.LVL212:
 2179              	.LFB9:
1150:BMI088/Src/bmi08a.c **** 	int8_t rslt;
 2180              		.loc 1 1150 1 is_stmt 1 view -0
 2181              		.cfi_startproc
 2182              		@ args = 0, pretend = 0, frame = 8
 2183              		@ frame_needed = 0, uses_anonymous_args = 0
1150:BMI088/Src/bmi08a.c **** 	int8_t rslt;
 2184              		.loc 1 1150 1 is_stmt 0 view .LVU634
 2185 0000 F0B5     		push	{r4, r5, r6, r7, lr}
 2186              	.LCFI57:
 2187              		.cfi_def_cfa_offset 20
 2188              		.cfi_offset 4, -20
 2189              		.cfi_offset 5, -16
 2190              		.cfi_offset 6, -12
 2191              		.cfi_offset 7, -8
 2192              		.cfi_offset 14, -4
 2193 0002 83B0     		sub	sp, sp, #12
 2194              	.LCFI58:
 2195              		.cfi_def_cfa_offset 32
 2196 0004 0446     		mov	r4, r0
1151:BMI088/Src/bmi08a.c **** 	uint8_t data[2] = { 0 };
 2197              		.loc 1 1151 2 is_stmt 1 view .LVU635
1152:BMI088/Src/bmi08a.c **** 	uint8_t bw, range, odr;
 2198              		.loc 1 1152 2 view .LVU636
1152:BMI088/Src/bmi08a.c **** 	uint8_t bw, range, odr;
 2199              		.loc 1 1152 10 is_stmt 0 view .LVU637
 2200 0006 0023     		movs	r3, #0
 2201 0008 ADF80430 		strh	r3, [sp, #4]	@ movhi
1153:BMI088/Src/bmi08a.c **** 	uint8_t is_odr_invalid = FALSE, is_bw_invalid = FALSE, is_range_invalid = FALSE;
 2202              		.loc 1 1153 2 is_stmt 1 view .LVU638
1154:BMI088/Src/bmi08a.c **** 
 2203              		.loc 1 1154 2 view .LVU639
 2204              	.LVL213:
1157:BMI088/Src/bmi08a.c **** 
 2205              		.loc 1 1157 2 view .LVU640
1157:BMI088/Src/bmi08a.c **** 
 2206              		.loc 1 1157 9 is_stmt 0 view .LVU641
 2207 000c FFF7FEFF 		bl	null_ptr_check
 2208              	.LVL214:
1160:BMI088/Src/bmi08a.c **** 		odr = dev->accel_cfg.odr;
ARM GAS  C:\Users\Lenovo\AppData\Local\Temp\ccWML6Ej.s 			page 83


 2209              		.loc 1 1160 2 is_stmt 1 view .LVU642
1160:BMI088/Src/bmi08a.c **** 		odr = dev->accel_cfg.odr;
 2210              		.loc 1 1160 5 is_stmt 0 view .LVU643
 2211 0010 B8B9     		cbnz	r0, .L141
1161:BMI088/Src/bmi08a.c **** 		bw = dev->accel_cfg.bw;
 2212              		.loc 1 1161 3 is_stmt 1 view .LVU644
1161:BMI088/Src/bmi08a.c **** 		bw = dev->accel_cfg.bw;
 2213              		.loc 1 1161 7 is_stmt 0 view .LVU645
 2214 0012 677A     		ldrb	r7, [r4, #9]	@ zero_extendqisi2
 2215              	.LVL215:
1162:BMI088/Src/bmi08a.c **** 		range = dev->accel_cfg.range;
 2216              		.loc 1 1162 3 is_stmt 1 view .LVU646
1162:BMI088/Src/bmi08a.c **** 		range = dev->accel_cfg.range;
 2217              		.loc 1 1162 6 is_stmt 0 view .LVU647
 2218 0014 257A     		ldrb	r5, [r4, #8]	@ zero_extendqisi2
 2219              	.LVL216:
1163:BMI088/Src/bmi08a.c **** 
 2220              		.loc 1 1163 3 is_stmt 1 view .LVU648
1163:BMI088/Src/bmi08a.c **** 
 2221              		.loc 1 1163 9 is_stmt 0 view .LVU649
 2222 0016 E679     		ldrb	r6, [r4, #7]	@ zero_extendqisi2
 2223              	.LVL217:
1166:BMI088/Src/bmi08a.c **** 			/* Updating the status */
 2224              		.loc 1 1166 3 is_stmt 1 view .LVU650
1166:BMI088/Src/bmi08a.c **** 			/* Updating the status */
 2225              		.loc 1 1166 40 is_stmt 0 view .LVU651
 2226 0018 7B1F     		subs	r3, r7, #5
 2227 001a DBB2     		uxtb	r3, r3
1166:BMI088/Src/bmi08a.c **** 			/* Updating the status */
 2228              		.loc 1 1166 6 view .LVU652
 2229 001c 072B     		cmp	r3, #7
 2230 001e 12D8     		bhi	.L145
1154:BMI088/Src/bmi08a.c **** 
 2231              		.loc 1 1154 10 view .LVU653
 2232 0020 0023     		movs	r3, #0
 2233              	.LVL218:
 2234              	.L142:
1171:BMI088/Src/bmi08a.c **** 			/* Updating the status */
 2235              		.loc 1 1171 3 is_stmt 1 view .LVU654
1171:BMI088/Src/bmi08a.c **** 			/* Updating the status */
 2236              		.loc 1 1171 6 is_stmt 0 view .LVU655
 2237 0022 022D     		cmp	r5, #2
 2238 0024 11D8     		bhi	.L146
1154:BMI088/Src/bmi08a.c **** 
 2239              		.loc 1 1154 34 view .LVU656
 2240 0026 0022     		movs	r2, #0
 2241              	.LVL219:
 2242              	.L143:
1183:BMI088/Src/bmi08a.c **** 			/* Updating the status */
 2243              		.loc 1 1183 3 is_stmt 1 view .LVU657
1183:BMI088/Src/bmi08a.c **** 			/* Updating the status */
 2244              		.loc 1 1183 6 is_stmt 0 view .LVU658
 2245 0028 032E     		cmp	r6, #3
 2246 002a 10D8     		bhi	.L147
1154:BMI088/Src/bmi08a.c **** 
 2247              		.loc 1 1154 57 view .LVU659
 2248 002c 0021     		movs	r1, #0
ARM GAS  C:\Users\Lenovo\AppData\Local\Temp\ccWML6Ej.s 			page 84


 2249              	.LVL220:
 2250              	.L144:
1189:BMI088/Src/bmi08a.c **** 			/* Read accel config. register */
 2251              		.loc 1 1189 3 is_stmt 1 view .LVU660
1189:BMI088/Src/bmi08a.c **** 			/* Read accel config. register */
 2252              		.loc 1 1189 6 is_stmt 0 view .LVU661
 2253 002e 8BBB     		cbnz	r3, .L148
1189:BMI088/Src/bmi08a.c **** 			/* Read accel config. register */
 2254              		.loc 1 1189 25 discriminator 1 view .LVU662
 2255 0030 9ABB     		cbnz	r2, .L149
1189:BMI088/Src/bmi08a.c **** 			/* Read accel config. register */
 2256              		.loc 1 1189 45 discriminator 2 view .LVU663
 2257 0032 A9BB     		cbnz	r1, .L150
1191:BMI088/Src/bmi08a.c **** 			if (rslt == BMI08X_OK) {
 2258              		.loc 1 1191 4 is_stmt 1 view .LVU664
1191:BMI088/Src/bmi08a.c **** 			if (rslt == BMI08X_OK) {
 2259              		.loc 1 1191 11 is_stmt 0 view .LVU665
 2260 0034 2346     		mov	r3, r4
 2261              	.LVL221:
1191:BMI088/Src/bmi08a.c **** 			if (rslt == BMI08X_OK) {
 2262              		.loc 1 1191 11 view .LVU666
 2263 0036 0222     		movs	r2, #2
 2264              	.LVL222:
1191:BMI088/Src/bmi08a.c **** 			if (rslt == BMI08X_OK) {
 2265              		.loc 1 1191 11 view .LVU667
 2266 0038 01A9     		add	r1, sp, #4
 2267              	.LVL223:
1191:BMI088/Src/bmi08a.c **** 			if (rslt == BMI08X_OK) {
 2268              		.loc 1 1191 11 view .LVU668
 2269 003a 4020     		movs	r0, #64
 2270 003c FFF7FEFF 		bl	get_regs
 2271              	.LVL224:
1192:BMI088/Src/bmi08a.c **** 				/* Update data with new odr and bw values */
 2272              		.loc 1 1192 4 is_stmt 1 view .LVU669
1192:BMI088/Src/bmi08a.c **** 				/* Update data with new odr and bw values */
 2273              		.loc 1 1192 7 is_stmt 0 view .LVU670
 2274 0040 38B1     		cbz	r0, .L152
 2275              	.LVL225:
 2276              	.L141:
1207:BMI088/Src/bmi08a.c **** }
 2277              		.loc 1 1207 2 is_stmt 1 view .LVU671
1208:BMI088/Src/bmi08a.c **** 
 2278              		.loc 1 1208 1 is_stmt 0 view .LVU672
 2279 0042 03B0     		add	sp, sp, #12
 2280              	.LCFI59:
 2281              		.cfi_remember_state
 2282              		.cfi_def_cfa_offset 20
 2283              		@ sp needed
 2284 0044 F0BD     		pop	{r4, r5, r6, r7, pc}
 2285              	.LVL226:
 2286              	.L145:
 2287              	.LCFI60:
 2288              		.cfi_restore_state
1168:BMI088/Src/bmi08a.c **** 		}
 2289              		.loc 1 1168 19 view .LVU673
 2290 0046 0123     		movs	r3, #1
 2291 0048 EBE7     		b	.L142
ARM GAS  C:\Users\Lenovo\AppData\Local\Temp\ccWML6Ej.s 			page 85


 2292              	.LVL227:
 2293              	.L146:
1173:BMI088/Src/bmi08a.c **** 		}
 2294              		.loc 1 1173 18 view .LVU674
 2295 004a 0122     		movs	r2, #1
 2296 004c ECE7     		b	.L143
 2297              	.LVL228:
 2298              	.L147:
1185:BMI088/Src/bmi08a.c **** 		}
 2299              		.loc 1 1185 21 view .LVU675
 2300 004e 0121     		movs	r1, #1
 2301 0050 EDE7     		b	.L144
 2302              	.LVL229:
 2303              	.L152:
1194:BMI088/Src/bmi08a.c **** 				data[0] = BMI08X_SET_BITS(data[0], BMI08X_ACCEL_BW, bw);
 2304              		.loc 1 1194 5 is_stmt 1 view .LVU676
1194:BMI088/Src/bmi08a.c **** 				data[0] = BMI08X_SET_BITS(data[0], BMI08X_ACCEL_BW, bw);
 2305              		.loc 1 1194 15 is_stmt 0 view .LVU677
 2306 0052 9DF90430 		ldrsb	r3, [sp, #4]
 2307 0056 23F00F03 		bic	r3, r3, #15
 2308 005a 07F00F07 		and	r7, r7, #15
 2309              	.LVL230:
1194:BMI088/Src/bmi08a.c **** 				data[0] = BMI08X_SET_BITS(data[0], BMI08X_ACCEL_BW, bw);
 2310              		.loc 1 1194 15 view .LVU678
 2311 005e 3B43     		orrs	r3, r3, r7
1194:BMI088/Src/bmi08a.c **** 				data[0] = BMI08X_SET_BITS(data[0], BMI08X_ACCEL_BW, bw);
 2312              		.loc 1 1194 13 view .LVU679
 2313 0060 8DF80430 		strb	r3, [sp, #4]
1195:BMI088/Src/bmi08a.c **** 				/* Update data with current range values */
 2314              		.loc 1 1195 5 is_stmt 1 view .LVU680
1195:BMI088/Src/bmi08a.c **** 				/* Update data with current range values */
 2315              		.loc 1 1195 15 is_stmt 0 view .LVU681
 2316 0064 23F07003 		bic	r3, r3, #112
 2317 0068 2D01     		lsls	r5, r5, #4
 2318              	.LVL231:
1195:BMI088/Src/bmi08a.c **** 				/* Update data with current range values */
 2319              		.loc 1 1195 15 view .LVU682
 2320 006a 05F07005 		and	r5, r5, #112
 2321 006e 1D43     		orrs	r5, r5, r3
1195:BMI088/Src/bmi08a.c **** 				/* Update data with current range values */
 2322              		.loc 1 1195 13 view .LVU683
 2323 0070 8DF80450 		strb	r5, [sp, #4]
1197:BMI088/Src/bmi08a.c **** 				/* write to range register */
 2324              		.loc 1 1197 5 is_stmt 1 view .LVU684
1197:BMI088/Src/bmi08a.c **** 				/* write to range register */
 2325              		.loc 1 1197 15 is_stmt 0 view .LVU685
 2326 0074 9DF90530 		ldrsb	r3, [sp, #5]
 2327 0078 23F00303 		bic	r3, r3, #3
 2328 007c 06F00306 		and	r6, r6, #3
 2329              	.LVL232:
1197:BMI088/Src/bmi08a.c **** 				/* write to range register */
 2330              		.loc 1 1197 15 view .LVU686
 2331 0080 1E43     		orrs	r6, r6, r3
1197:BMI088/Src/bmi08a.c **** 				/* write to range register */
 2332              		.loc 1 1197 13 view .LVU687
 2333 0082 8DF80560 		strb	r6, [sp, #5]
1199:BMI088/Src/bmi08a.c **** 			}
ARM GAS  C:\Users\Lenovo\AppData\Local\Temp\ccWML6Ej.s 			page 86


 2334              		.loc 1 1199 5 is_stmt 1 view .LVU688
1199:BMI088/Src/bmi08a.c **** 			}
 2335              		.loc 1 1199 12 is_stmt 0 view .LVU689
 2336 0086 2346     		mov	r3, r4
 2337 0088 0222     		movs	r2, #2
 2338 008a 01A9     		add	r1, sp, #4
 2339 008c 4020     		movs	r0, #64
 2340              	.LVL233:
1199:BMI088/Src/bmi08a.c **** 			}
 2341              		.loc 1 1199 12 view .LVU690
 2342 008e FFF7FEFF 		bl	set_regs
 2343              	.LVL234:
1199:BMI088/Src/bmi08a.c **** 			}
 2344              		.loc 1 1199 12 view .LVU691
 2345 0092 D6E7     		b	.L141
 2346              	.LVL235:
 2347              	.L148:
1203:BMI088/Src/bmi08a.c **** 		}
 2348              		.loc 1 1203 9 view .LVU692
 2349 0094 6FF00700 		mvn	r0, #7
 2350 0098 D3E7     		b	.L141
 2351              	.L149:
 2352 009a 6FF00700 		mvn	r0, #7
 2353 009e D0E7     		b	.L141
 2354              	.L150:
 2355 00a0 6FF00700 		mvn	r0, #7
 2356 00a4 CDE7     		b	.L141
 2357              		.cfi_endproc
 2358              	.LFE9:
 2360              		.section	.text.bmi08a_get_power_mode,"ax",%progbits
 2361              		.align	1
 2362              		.global	bmi08a_get_power_mode
 2363              		.syntax unified
 2364              		.thumb
 2365              		.thumb_func
 2367              	bmi08a_get_power_mode:
 2368              	.LVL236:
 2369              	.LFB10:
1215:BMI088/Src/bmi08a.c **** 	int8_t rslt;
 2370              		.loc 1 1215 1 is_stmt 1 view -0
 2371              		.cfi_startproc
 2372              		@ args = 0, pretend = 0, frame = 8
 2373              		@ frame_needed = 0, uses_anonymous_args = 0
1215:BMI088/Src/bmi08a.c **** 	int8_t rslt;
 2374              		.loc 1 1215 1 is_stmt 0 view .LVU694
 2375 0000 10B5     		push	{r4, lr}
 2376              	.LCFI61:
 2377              		.cfi_def_cfa_offset 8
 2378              		.cfi_offset 4, -8
 2379              		.cfi_offset 14, -4
 2380 0002 82B0     		sub	sp, sp, #8
 2381              	.LCFI62:
 2382              		.cfi_def_cfa_offset 16
 2383 0004 0446     		mov	r4, r0
1216:BMI088/Src/bmi08a.c **** 	uint8_t data;
 2384              		.loc 1 1216 2 is_stmt 1 view .LVU695
1217:BMI088/Src/bmi08a.c **** 
ARM GAS  C:\Users\Lenovo\AppData\Local\Temp\ccWML6Ej.s 			page 87


 2385              		.loc 1 1217 2 view .LVU696
1220:BMI088/Src/bmi08a.c **** 
 2386              		.loc 1 1220 2 view .LVU697
1220:BMI088/Src/bmi08a.c **** 
 2387              		.loc 1 1220 9 is_stmt 0 view .LVU698
 2388 0006 FFF7FEFF 		bl	null_ptr_check
 2389              	.LVL237:
1223:BMI088/Src/bmi08a.c **** 		rslt = get_regs(BMI08X_ACCEL_PWR_CONF_REG, &data, 1, dev);
 2390              		.loc 1 1223 2 is_stmt 1 view .LVU699
1223:BMI088/Src/bmi08a.c **** 		rslt = get_regs(BMI08X_ACCEL_PWR_CONF_REG, &data, 1, dev);
 2391              		.loc 1 1223 5 is_stmt 0 view .LVU700
 2392 000a 08B1     		cbz	r0, .L156
 2393              	.L154:
 2394              	.LVL238:
1232:BMI088/Src/bmi08a.c **** }
 2395              		.loc 1 1232 2 is_stmt 1 view .LVU701
1233:BMI088/Src/bmi08a.c **** 
 2396              		.loc 1 1233 1 is_stmt 0 view .LVU702
 2397 000c 02B0     		add	sp, sp, #8
 2398              	.LCFI63:
 2399              		.cfi_remember_state
 2400              		.cfi_def_cfa_offset 8
 2401              		@ sp needed
 2402 000e 10BD     		pop	{r4, pc}
 2403              	.LVL239:
 2404              	.L156:
 2405              	.LCFI64:
 2406              		.cfi_restore_state
1224:BMI088/Src/bmi08a.c **** 
 2407              		.loc 1 1224 3 is_stmt 1 view .LVU703
1224:BMI088/Src/bmi08a.c **** 
 2408              		.loc 1 1224 10 is_stmt 0 view .LVU704
 2409 0010 2346     		mov	r3, r4
 2410 0012 0122     		movs	r2, #1
 2411 0014 0DF10701 		add	r1, sp, #7
 2412 0018 7C20     		movs	r0, #124
 2413 001a FFF7FEFF 		bl	get_regs
 2414              	.LVL240:
1226:BMI088/Src/bmi08a.c **** 			/* Updating the current power mode */
 2415              		.loc 1 1226 3 is_stmt 1 view .LVU705
1226:BMI088/Src/bmi08a.c **** 			/* Updating the current power mode */
 2416              		.loc 1 1226 6 is_stmt 0 view .LVU706
 2417 001e 0028     		cmp	r0, #0
 2418 0020 F4D1     		bne	.L154
1228:BMI088/Src/bmi08a.c **** 		}
 2419              		.loc 1 1228 4 is_stmt 1 view .LVU707
1228:BMI088/Src/bmi08a.c **** 		}
 2420              		.loc 1 1228 25 is_stmt 0 view .LVU708
 2421 0022 9DF80730 		ldrb	r3, [sp, #7]	@ zero_extendqisi2
 2422 0026 A371     		strb	r3, [r4, #6]
 2423 0028 F0E7     		b	.L154
 2424              		.cfi_endproc
 2425              	.LFE10:
 2427              		.section	.text.bmi08a_set_power_mode,"ax",%progbits
 2428              		.align	1
 2429              		.global	bmi08a_set_power_mode
 2430              		.syntax unified
ARM GAS  C:\Users\Lenovo\AppData\Local\Temp\ccWML6Ej.s 			page 88


 2431              		.thumb
 2432              		.thumb_func
 2434              	bmi08a_set_power_mode:
 2435              	.LVL241:
 2436              	.LFB11:
1239:BMI088/Src/bmi08a.c **** 	int8_t rslt;
 2437              		.loc 1 1239 1 is_stmt 1 view -0
 2438              		.cfi_startproc
 2439              		@ args = 0, pretend = 0, frame = 8
 2440              		@ frame_needed = 0, uses_anonymous_args = 0
1239:BMI088/Src/bmi08a.c **** 	int8_t rslt;
 2441              		.loc 1 1239 1 is_stmt 0 view .LVU710
 2442 0000 30B5     		push	{r4, r5, lr}
 2443              	.LCFI65:
 2444              		.cfi_def_cfa_offset 12
 2445              		.cfi_offset 4, -12
 2446              		.cfi_offset 5, -8
 2447              		.cfi_offset 14, -4
 2448 0002 83B0     		sub	sp, sp, #12
 2449              	.LCFI66:
 2450              		.cfi_def_cfa_offset 24
 2451 0004 0446     		mov	r4, r0
1240:BMI088/Src/bmi08a.c **** 	uint8_t power_mode;
 2452              		.loc 1 1240 2 is_stmt 1 view .LVU711
1241:BMI088/Src/bmi08a.c **** 	uint8_t data[2];
 2453              		.loc 1 1241 2 view .LVU712
1242:BMI088/Src/bmi08a.c **** 
 2454              		.loc 1 1242 2 view .LVU713
1245:BMI088/Src/bmi08a.c **** 
 2455              		.loc 1 1245 2 view .LVU714
1245:BMI088/Src/bmi08a.c **** 
 2456              		.loc 1 1245 9 is_stmt 0 view .LVU715
 2457 0006 FFF7FEFF 		bl	null_ptr_check
 2458              	.LVL242:
1248:BMI088/Src/bmi08a.c **** 		power_mode = dev->accel_cfg.power;
 2459              		.loc 1 1248 2 is_stmt 1 view .LVU716
1248:BMI088/Src/bmi08a.c **** 		power_mode = dev->accel_cfg.power;
 2460              		.loc 1 1248 5 is_stmt 0 view .LVU717
 2461 000a 0546     		mov	r5, r0
 2462 000c E8B9     		cbnz	r0, .L158
1249:BMI088/Src/bmi08a.c **** 
 2463              		.loc 1 1249 3 is_stmt 1 view .LVU718
1249:BMI088/Src/bmi08a.c **** 
 2464              		.loc 1 1249 14 is_stmt 0 view .LVU719
 2465 000e A379     		ldrb	r3, [r4, #6]	@ zero_extendqisi2
 2466              	.LVL243:
1252:BMI088/Src/bmi08a.c **** 			data[0] = BMI08X_ACCEL_PM_ACTIVE;
 2467              		.loc 1 1252 3 is_stmt 1 view .LVU720
1252:BMI088/Src/bmi08a.c **** 			data[0] = BMI08X_ACCEL_PM_ACTIVE;
 2468              		.loc 1 1252 6 is_stmt 0 view .LVU721
 2469 0010 F3B9     		cbnz	r3, .L159
1253:BMI088/Src/bmi08a.c **** 			data[1] = BMI08X_ACCEL_POWER_ENABLE;
 2470              		.loc 1 1253 4 is_stmt 1 view .LVU722
1253:BMI088/Src/bmi08a.c **** 			data[1] = BMI08X_ACCEL_POWER_ENABLE;
 2471              		.loc 1 1253 12 is_stmt 0 view .LVU723
 2472 0012 8DF80430 		strb	r3, [sp, #4]
1254:BMI088/Src/bmi08a.c **** 		} else if (power_mode == BMI08X_ACCEL_PM_SUSPEND) {
ARM GAS  C:\Users\Lenovo\AppData\Local\Temp\ccWML6Ej.s 			page 89


 2473              		.loc 1 1254 4 is_stmt 1 view .LVU724
1254:BMI088/Src/bmi08a.c **** 		} else if (power_mode == BMI08X_ACCEL_PM_SUSPEND) {
 2474              		.loc 1 1254 12 is_stmt 0 view .LVU725
 2475 0016 0423     		movs	r3, #4
 2476              	.LVL244:
1254:BMI088/Src/bmi08a.c **** 		} else if (power_mode == BMI08X_ACCEL_PM_SUSPEND) {
 2477              		.loc 1 1254 12 view .LVU726
 2478 0018 8DF80530 		strb	r3, [sp, #5]
 2479              	.L160:
1263:BMI088/Src/bmi08a.c **** 			/*enable accel sensor*/
 2480              		.loc 1 1263 3 is_stmt 1 view .LVU727
1265:BMI088/Src/bmi08a.c **** 
 2481              		.loc 1 1265 4 view .LVU728
1265:BMI088/Src/bmi08a.c **** 
 2482              		.loc 1 1265 11 is_stmt 0 view .LVU729
 2483 001c 2346     		mov	r3, r4
 2484 001e 0122     		movs	r2, #1
 2485 0020 01A9     		add	r1, sp, #4
 2486              	.LVL245:
1265:BMI088/Src/bmi08a.c **** 
 2487              		.loc 1 1265 11 view .LVU730
 2488 0022 7C20     		movs	r0, #124
 2489 0024 FFF7FEFF 		bl	set_regs
 2490              	.LVL246:
1267:BMI088/Src/bmi08a.c **** 				/*delay between power ctrl and power config*/
 2491              		.loc 1 1267 4 is_stmt 1 view .LVU731
1267:BMI088/Src/bmi08a.c **** 				/*delay between power ctrl and power config*/
 2492              		.loc 1 1267 7 is_stmt 0 view .LVU732
 2493 0028 0546     		mov	r5, r0
 2494 002a 70B9     		cbnz	r0, .L158
1269:BMI088/Src/bmi08a.c **** 				/* write to accel power configuration register */
 2495              		.loc 1 1269 5 is_stmt 1 view .LVU733
1269:BMI088/Src/bmi08a.c **** 				/* write to accel power configuration register */
 2496              		.loc 1 1269 8 is_stmt 0 view .LVU734
 2497 002c 236A     		ldr	r3, [r4, #32]
1269:BMI088/Src/bmi08a.c **** 				/* write to accel power configuration register */
 2498              		.loc 1 1269 5 view .LVU735
 2499 002e 0520     		movs	r0, #5
 2500 0030 9847     		blx	r3
 2501              	.LVL247:
1271:BMI088/Src/bmi08a.c **** 
 2502              		.loc 1 1271 5 is_stmt 1 view .LVU736
1271:BMI088/Src/bmi08a.c **** 
 2503              		.loc 1 1271 12 is_stmt 0 view .LVU737
 2504 0032 2346     		mov	r3, r4
 2505 0034 0122     		movs	r2, #1
 2506 0036 0DF10501 		add	r1, sp, #5
 2507 003a 7D20     		movs	r0, #125
 2508 003c FFF7FEFF 		bl	set_regs
 2509              	.LVL248:
1273:BMI088/Src/bmi08a.c **** 					/*delay required to switch power modes*/
 2510              		.loc 1 1273 5 is_stmt 1 view .LVU738
1273:BMI088/Src/bmi08a.c **** 					/*delay required to switch power modes*/
 2511              		.loc 1 1273 8 is_stmt 0 view .LVU739
 2512 0040 0546     		mov	r5, r0
 2513 0042 10B9     		cbnz	r0, .L158
1275:BMI088/Src/bmi08a.c **** 				}
ARM GAS  C:\Users\Lenovo\AppData\Local\Temp\ccWML6Ej.s 			page 90


 2514              		.loc 1 1275 6 is_stmt 1 view .LVU740
1275:BMI088/Src/bmi08a.c **** 				}
 2515              		.loc 1 1275 9 is_stmt 0 view .LVU741
 2516 0044 236A     		ldr	r3, [r4, #32]
1275:BMI088/Src/bmi08a.c **** 				}
 2517              		.loc 1 1275 6 view .LVU742
 2518 0046 0520     		movs	r0, #5
 2519 0048 9847     		blx	r3
 2520              	.LVL249:
 2521              	.L158:
1282:BMI088/Src/bmi08a.c **** }
 2522              		.loc 1 1282 2 is_stmt 1 view .LVU743
1283:BMI088/Src/bmi08a.c **** 
 2523              		.loc 1 1283 1 is_stmt 0 view .LVU744
 2524 004a 2846     		mov	r0, r5
 2525 004c 03B0     		add	sp, sp, #12
 2526              	.LCFI67:
 2527              		.cfi_remember_state
 2528              		.cfi_def_cfa_offset 12
 2529              		@ sp needed
 2530 004e 30BD     		pop	{r4, r5, pc}
 2531              	.LVL250:
 2532              	.L159:
 2533              	.LCFI68:
 2534              		.cfi_restore_state
1255:BMI088/Src/bmi08a.c **** 			data[0] = BMI08X_ACCEL_PM_SUSPEND;
 2535              		.loc 1 1255 10 is_stmt 1 view .LVU745
1255:BMI088/Src/bmi08a.c **** 			data[0] = BMI08X_ACCEL_PM_SUSPEND;
 2536              		.loc 1 1255 13 is_stmt 0 view .LVU746
 2537 0050 032B     		cmp	r3, #3
 2538 0052 05D1     		bne	.L161
1256:BMI088/Src/bmi08a.c **** 			data[1] = BMI08X_ACCEL_POWER_DISABLE;
 2539              		.loc 1 1256 4 is_stmt 1 view .LVU747
1256:BMI088/Src/bmi08a.c **** 			data[1] = BMI08X_ACCEL_POWER_DISABLE;
 2540              		.loc 1 1256 12 is_stmt 0 view .LVU748
 2541 0054 8DF80430 		strb	r3, [sp, #4]
1257:BMI088/Src/bmi08a.c **** 		} else {
 2542              		.loc 1 1257 4 is_stmt 1 view .LVU749
1257:BMI088/Src/bmi08a.c **** 		} else {
 2543              		.loc 1 1257 12 is_stmt 0 view .LVU750
 2544 0058 0023     		movs	r3, #0
 2545              	.LVL251:
1257:BMI088/Src/bmi08a.c **** 		} else {
 2546              		.loc 1 1257 12 view .LVU751
 2547 005a 8DF80530 		strb	r3, [sp, #5]
 2548 005e DDE7     		b	.L160
 2549              	.LVL252:
 2550              	.L161:
1260:BMI088/Src/bmi08a.c **** 		}
 2551              		.loc 1 1260 9 view .LVU752
 2552 0060 6FF00405 		mvn	r5, #4
 2553 0064 F1E7     		b	.L158
 2554              		.cfi_endproc
 2555              	.LFE11:
 2557              		.section	.text.enable_self_test,"ax",%progbits
 2558              		.align	1
 2559              		.syntax unified
ARM GAS  C:\Users\Lenovo\AppData\Local\Temp\ccWML6Ej.s 			page 91


 2560              		.thumb
 2561              		.thumb_func
 2563              	enable_self_test:
 2564              	.LVL253:
 2565              	.LFB26:
1804:BMI088/Src/bmi08a.c **** 	int8_t rslt;
 2566              		.loc 1 1804 1 is_stmt 1 view -0
 2567              		.cfi_startproc
 2568              		@ args = 0, pretend = 0, frame = 0
 2569              		@ frame_needed = 0, uses_anonymous_args = 0
1804:BMI088/Src/bmi08a.c **** 	int8_t rslt;
 2570              		.loc 1 1804 1 is_stmt 0 view .LVU754
 2571 0000 38B5     		push	{r3, r4, r5, lr}
 2572              	.LCFI69:
 2573              		.cfi_def_cfa_offset 16
 2574              		.cfi_offset 3, -16
 2575              		.cfi_offset 4, -12
 2576              		.cfi_offset 5, -8
 2577              		.cfi_offset 14, -4
 2578 0002 0446     		mov	r4, r0
1805:BMI088/Src/bmi08a.c **** 
 2579              		.loc 1 1805 2 is_stmt 1 view .LVU755
1808:BMI088/Src/bmi08a.c **** 	dev->accel_cfg.bw = BMI08X_ACCEL_BW_NORMAL;
 2580              		.loc 1 1808 2 view .LVU756
1808:BMI088/Src/bmi08a.c **** 	dev->accel_cfg.bw = BMI08X_ACCEL_BW_NORMAL;
 2581              		.loc 1 1808 21 is_stmt 0 view .LVU757
 2582 0004 0C23     		movs	r3, #12
 2583 0006 4372     		strb	r3, [r0, #9]
1809:BMI088/Src/bmi08a.c **** 
 2584              		.loc 1 1809 2 is_stmt 1 view .LVU758
1809:BMI088/Src/bmi08a.c **** 
 2585              		.loc 1 1809 20 is_stmt 0 view .LVU759
 2586 0008 0223     		movs	r3, #2
 2587 000a 0372     		strb	r3, [r0, #8]
1815:BMI088/Src/bmi08a.c **** #endif
 2588              		.loc 1 1815 2 is_stmt 1 view .LVU760
1815:BMI088/Src/bmi08a.c **** #endif
 2589              		.loc 1 1815 23 is_stmt 0 view .LVU761
 2590 000c 0323     		movs	r3, #3
 2591 000e C371     		strb	r3, [r0, #7]
1818:BMI088/Src/bmi08a.c **** 	/* Enable Accel sensor */
 2592              		.loc 1 1818 2 is_stmt 1 view .LVU762
1818:BMI088/Src/bmi08a.c **** 	/* Enable Accel sensor */
 2593              		.loc 1 1818 23 is_stmt 0 view .LVU763
 2594 0010 0023     		movs	r3, #0
 2595 0012 8371     		strb	r3, [r0, #6]
1820:BMI088/Src/bmi08a.c **** 
 2596              		.loc 1 1820 2 is_stmt 1 view .LVU764
1820:BMI088/Src/bmi08a.c **** 
 2597              		.loc 1 1820 9 is_stmt 0 view .LVU765
 2598 0014 FFF7FEFF 		bl	bmi08a_set_power_mode
 2599              	.LVL254:
1822:BMI088/Src/bmi08a.c **** 		/* Configure sensors with above configured settings */
 2600              		.loc 1 1822 2 is_stmt 1 view .LVU766
1822:BMI088/Src/bmi08a.c **** 		/* Configure sensors with above configured settings */
 2601              		.loc 1 1822 5 is_stmt 0 view .LVU767
 2602 0018 0546     		mov	r5, r0
ARM GAS  C:\Users\Lenovo\AppData\Local\Temp\ccWML6Ej.s 			page 92


 2603 001a 08B1     		cbz	r0, .L166
 2604              	.LVL255:
 2605              	.L164:
1832:BMI088/Src/bmi08a.c **** }
 2606              		.loc 1 1832 2 is_stmt 1 view .LVU768
1833:BMI088/Src/bmi08a.c **** 
 2607              		.loc 1 1833 1 is_stmt 0 view .LVU769
 2608 001c 2846     		mov	r0, r5
 2609 001e 38BD     		pop	{r3, r4, r5, pc}
 2610              	.LVL256:
 2611              	.L166:
1824:BMI088/Src/bmi08a.c **** 
 2612              		.loc 1 1824 3 is_stmt 1 view .LVU770
1824:BMI088/Src/bmi08a.c **** 
 2613              		.loc 1 1824 10 is_stmt 0 view .LVU771
 2614 0020 2046     		mov	r0, r4
 2615              	.LVL257:
1824:BMI088/Src/bmi08a.c **** 
 2616              		.loc 1 1824 10 view .LVU772
 2617 0022 FFF7FEFF 		bl	bmi08a_set_meas_conf
 2618              	.LVL258:
1826:BMI088/Src/bmi08a.c **** 			/* Self test delay */
 2619              		.loc 1 1826 3 is_stmt 1 view .LVU773
1826:BMI088/Src/bmi08a.c **** 			/* Self test delay */
 2620              		.loc 1 1826 6 is_stmt 0 view .LVU774
 2621 0026 0546     		mov	r5, r0
 2622 0028 0028     		cmp	r0, #0
 2623 002a F7D1     		bne	.L164
1828:BMI088/Src/bmi08a.c **** 		}
 2624              		.loc 1 1828 4 is_stmt 1 view .LVU775
1828:BMI088/Src/bmi08a.c **** 		}
 2625              		.loc 1 1828 7 is_stmt 0 view .LVU776
 2626 002c 236A     		ldr	r3, [r4, #32]
1828:BMI088/Src/bmi08a.c **** 		}
 2627              		.loc 1 1828 4 view .LVU777
 2628 002e 0320     		movs	r0, #3
 2629              	.LVL259:
1828:BMI088/Src/bmi08a.c **** 		}
 2630              		.loc 1 1828 4 view .LVU778
 2631 0030 9847     		blx	r3
 2632              	.LVL260:
 2633 0032 F3E7     		b	.L164
 2634              		.cfi_endproc
 2635              	.LFE26:
 2637              		.section	.text.bmi08a_get_data,"ax",%progbits
 2638              		.align	1
 2639              		.global	bmi08a_get_data
 2640              		.syntax unified
 2641              		.thumb
 2642              		.thumb_func
 2644              	bmi08a_get_data:
 2645              	.LVL261:
 2646              	.LFB12:
1291:BMI088/Src/bmi08a.c **** 	int8_t rslt;
 2647              		.loc 1 1291 1 is_stmt 1 view -0
 2648              		.cfi_startproc
 2649              		@ args = 0, pretend = 0, frame = 8
ARM GAS  C:\Users\Lenovo\AppData\Local\Temp\ccWML6Ej.s 			page 93


 2650              		@ frame_needed = 0, uses_anonymous_args = 0
1291:BMI088/Src/bmi08a.c **** 	int8_t rslt;
 2651              		.loc 1 1291 1 is_stmt 0 view .LVU780
 2652 0000 30B5     		push	{r4, r5, lr}
 2653              	.LCFI70:
 2654              		.cfi_def_cfa_offset 12
 2655              		.cfi_offset 4, -12
 2656              		.cfi_offset 5, -8
 2657              		.cfi_offset 14, -4
 2658 0002 83B0     		sub	sp, sp, #12
 2659              	.LCFI71:
 2660              		.cfi_def_cfa_offset 24
 2661 0004 0446     		mov	r4, r0
 2662 0006 0D46     		mov	r5, r1
1292:BMI088/Src/bmi08a.c **** 	uint8_t data[6];
 2663              		.loc 1 1292 2 is_stmt 1 view .LVU781
1293:BMI088/Src/bmi08a.c **** 	uint8_t lsb, msb;
 2664              		.loc 1 1293 2 view .LVU782
1294:BMI088/Src/bmi08a.c **** 	uint16_t msblsb;
 2665              		.loc 1 1294 2 view .LVU783
1295:BMI088/Src/bmi08a.c **** 	/* Check for null pointer in the device structure*/
 2666              		.loc 1 1295 2 view .LVU784
1297:BMI088/Src/bmi08a.c **** 	/* Proceed if null check is fine */
 2667              		.loc 1 1297 2 view .LVU785
1297:BMI088/Src/bmi08a.c **** 	/* Proceed if null check is fine */
 2668              		.loc 1 1297 9 is_stmt 0 view .LVU786
 2669 0008 0846     		mov	r0, r1
 2670              	.LVL262:
1297:BMI088/Src/bmi08a.c **** 	/* Proceed if null check is fine */
 2671              		.loc 1 1297 9 view .LVU787
 2672 000a FFF7FEFF 		bl	null_ptr_check
 2673              	.LVL263:
1299:BMI088/Src/bmi08a.c **** 		/* Read accel sensor data */
 2674              		.loc 1 1299 2 is_stmt 1 view .LVU788
1299:BMI088/Src/bmi08a.c **** 		/* Read accel sensor data */
 2675              		.loc 1 1299 5 is_stmt 0 view .LVU789
 2676 000e 08BB     		cbnz	r0, .L169
1299:BMI088/Src/bmi08a.c **** 		/* Read accel sensor data */
 2677              		.loc 1 1299 26 discriminator 1 view .LVU790
 2678 0010 1CB3     		cbz	r4, .L170
1301:BMI088/Src/bmi08a.c **** 
 2679              		.loc 1 1301 3 is_stmt 1 view .LVU791
1301:BMI088/Src/bmi08a.c **** 
 2680              		.loc 1 1301 10 is_stmt 0 view .LVU792
 2681 0012 2B46     		mov	r3, r5
 2682 0014 0622     		movs	r2, #6
 2683 0016 6946     		mov	r1, sp
 2684 0018 1220     		movs	r0, #18
 2685              	.LVL264:
1301:BMI088/Src/bmi08a.c **** 
 2686              		.loc 1 1301 10 view .LVU793
 2687 001a FFF7FEFF 		bl	get_regs
 2688              	.LVL265:
1303:BMI088/Src/bmi08a.c **** 			lsb = data[0];
 2689              		.loc 1 1303 3 is_stmt 1 view .LVU794
1303:BMI088/Src/bmi08a.c **** 			lsb = data[0];
 2690              		.loc 1 1303 6 is_stmt 0 view .LVU795
ARM GAS  C:\Users\Lenovo\AppData\Local\Temp\ccWML6Ej.s 			page 94


 2691 001e B8B9     		cbnz	r0, .L168
1304:BMI088/Src/bmi08a.c **** 			msb = data[1];
 2692              		.loc 1 1304 4 is_stmt 1 view .LVU796
1304:BMI088/Src/bmi08a.c **** 			msb = data[1];
 2693              		.loc 1 1304 8 is_stmt 0 view .LVU797
 2694 0020 9DF80030 		ldrb	r3, [sp]	@ zero_extendqisi2
 2695              	.LVL266:
1305:BMI088/Src/bmi08a.c **** 			msblsb = (msb << 8) | lsb;
 2696              		.loc 1 1305 4 is_stmt 1 view .LVU798
1305:BMI088/Src/bmi08a.c **** 			msblsb = (msb << 8) | lsb;
 2697              		.loc 1 1305 8 is_stmt 0 view .LVU799
 2698 0024 9DF80120 		ldrb	r2, [sp, #1]	@ zero_extendqisi2
 2699              	.LVL267:
1306:BMI088/Src/bmi08a.c **** 			accel->x = ((int16_t) msblsb); /* Data in X axis */
 2700              		.loc 1 1306 4 is_stmt 1 view .LVU800
1306:BMI088/Src/bmi08a.c **** 			accel->x = ((int16_t) msblsb); /* Data in X axis */
 2701              		.loc 1 1306 24 is_stmt 0 view .LVU801
 2702 0028 43EA0223 		orr	r3, r3, r2, lsl #8
 2703              	.LVL268:
1306:BMI088/Src/bmi08a.c **** 			accel->x = ((int16_t) msblsb); /* Data in X axis */
 2704              		.loc 1 1306 24 view .LVU802
 2705 002c 1BB2     		sxth	r3, r3
 2706              	.LVL269:
1307:BMI088/Src/bmi08a.c **** 
 2707              		.loc 1 1307 4 is_stmt 1 view .LVU803
1307:BMI088/Src/bmi08a.c **** 
 2708              		.loc 1 1307 13 is_stmt 0 view .LVU804
 2709 002e 2360     		str	r3, [r4]
 2710              	.LVL270:
1309:BMI088/Src/bmi08a.c **** 			msb = data[3];
 2711              		.loc 1 1309 4 is_stmt 1 view .LVU805
1309:BMI088/Src/bmi08a.c **** 			msb = data[3];
 2712              		.loc 1 1309 8 is_stmt 0 view .LVU806
 2713 0030 9DF80230 		ldrb	r3, [sp, #2]	@ zero_extendqisi2
 2714              	.LVL271:
1310:BMI088/Src/bmi08a.c **** 			msblsb = (msb << 8) | lsb;
 2715              		.loc 1 1310 4 is_stmt 1 view .LVU807
1310:BMI088/Src/bmi08a.c **** 			msblsb = (msb << 8) | lsb;
 2716              		.loc 1 1310 8 is_stmt 0 view .LVU808
 2717 0034 9DF80320 		ldrb	r2, [sp, #3]	@ zero_extendqisi2
 2718              	.LVL272:
1311:BMI088/Src/bmi08a.c **** 			accel->y = ((int16_t) msblsb); /* Data in Y axis */
 2719              		.loc 1 1311 4 is_stmt 1 view .LVU809
1311:BMI088/Src/bmi08a.c **** 			accel->y = ((int16_t) msblsb); /* Data in Y axis */
 2720              		.loc 1 1311 24 is_stmt 0 view .LVU810
 2721 0038 43EA0223 		orr	r3, r3, r2, lsl #8
 2722              	.LVL273:
1311:BMI088/Src/bmi08a.c **** 			accel->y = ((int16_t) msblsb); /* Data in Y axis */
 2723              		.loc 1 1311 24 view .LVU811
 2724 003c 1BB2     		sxth	r3, r3
 2725              	.LVL274:
1312:BMI088/Src/bmi08a.c **** 
 2726              		.loc 1 1312 4 is_stmt 1 view .LVU812
1312:BMI088/Src/bmi08a.c **** 
 2727              		.loc 1 1312 13 is_stmt 0 view .LVU813
 2728 003e 6360     		str	r3, [r4, #4]
1314:BMI088/Src/bmi08a.c **** 			msb = data[5];
ARM GAS  C:\Users\Lenovo\AppData\Local\Temp\ccWML6Ej.s 			page 95


 2729              		.loc 1 1314 4 is_stmt 1 view .LVU814
1314:BMI088/Src/bmi08a.c **** 			msb = data[5];
 2730              		.loc 1 1314 8 is_stmt 0 view .LVU815
 2731 0040 9DF80430 		ldrb	r3, [sp, #4]	@ zero_extendqisi2
 2732              	.LVL275:
1315:BMI088/Src/bmi08a.c **** 			msblsb = (msb << 8) | lsb;
 2733              		.loc 1 1315 4 is_stmt 1 view .LVU816
1315:BMI088/Src/bmi08a.c **** 			msblsb = (msb << 8) | lsb;
 2734              		.loc 1 1315 8 is_stmt 0 view .LVU817
 2735 0044 9DF80520 		ldrb	r2, [sp, #5]	@ zero_extendqisi2
 2736              	.LVL276:
1316:BMI088/Src/bmi08a.c **** 			accel->z = ((int16_t) msblsb); /* Data in Z axis */
 2737              		.loc 1 1316 4 is_stmt 1 view .LVU818
1316:BMI088/Src/bmi08a.c **** 			accel->z = ((int16_t) msblsb); /* Data in Z axis */
 2738              		.loc 1 1316 24 is_stmt 0 view .LVU819
 2739 0048 43EA0223 		orr	r3, r3, r2, lsl #8
 2740              	.LVL277:
1316:BMI088/Src/bmi08a.c **** 			accel->z = ((int16_t) msblsb); /* Data in Z axis */
 2741              		.loc 1 1316 24 view .LVU820
 2742 004c 1BB2     		sxth	r3, r3
 2743              	.LVL278:
1317:BMI088/Src/bmi08a.c **** 		}
 2744              		.loc 1 1317 4 is_stmt 1 view .LVU821
1317:BMI088/Src/bmi08a.c **** 		}
 2745              		.loc 1 1317 13 is_stmt 0 view .LVU822
 2746 004e A360     		str	r3, [r4, #8]
 2747              	.LVL279:
 2748              	.L168:
1324:BMI088/Src/bmi08a.c **** }
 2749              		.loc 1 1324 2 is_stmt 1 view .LVU823
1325:BMI088/Src/bmi08a.c **** 
 2750              		.loc 1 1325 1 is_stmt 0 view .LVU824
 2751 0050 03B0     		add	sp, sp, #12
 2752              	.LCFI72:
 2753              		.cfi_remember_state
 2754              		.cfi_def_cfa_offset 12
 2755              		@ sp needed
 2756 0052 30BD     		pop	{r4, r5, pc}
 2757              	.LVL280:
 2758              	.L169:
 2759              	.LCFI73:
 2760              		.cfi_restore_state
1321:BMI088/Src/bmi08a.c **** 	}
 2761              		.loc 1 1321 8 view .LVU825
 2762 0054 4FF0FF30 		mov	r0, #-1
 2763              	.LVL281:
1321:BMI088/Src/bmi08a.c **** 	}
 2764              		.loc 1 1321 8 view .LVU826
 2765 0058 FAE7     		b	.L168
 2766              	.LVL282:
 2767              	.L170:
1321:BMI088/Src/bmi08a.c **** 	}
 2768              		.loc 1 1321 8 view .LVU827
 2769 005a 4FF0FF30 		mov	r0, #-1
 2770              	.LVL283:
1321:BMI088/Src/bmi08a.c **** 	}
 2771              		.loc 1 1321 8 view .LVU828
ARM GAS  C:\Users\Lenovo\AppData\Local\Temp\ccWML6Ej.s 			page 96


 2772 005e F7E7     		b	.L168
 2773              		.cfi_endproc
 2774              	.LFE12:
 2776              		.section	.text.positive_excited_accel,"ax",%progbits
 2777              		.align	1
 2778              		.syntax unified
 2779              		.thumb
 2780              		.thumb_func
 2782              	positive_excited_accel:
 2783              	.LVL284:
 2784              	.LFB27:
1839:BMI088/Src/bmi08a.c **** 	int8_t rslt;
 2785              		.loc 1 1839 1 is_stmt 1 view -0
 2786              		.cfi_startproc
 2787              		@ args = 0, pretend = 0, frame = 8
 2788              		@ frame_needed = 0, uses_anonymous_args = 0
1839:BMI088/Src/bmi08a.c **** 	int8_t rslt;
 2789              		.loc 1 1839 1 is_stmt 0 view .LVU830
 2790 0000 30B5     		push	{r4, r5, lr}
 2791              	.LCFI74:
 2792              		.cfi_def_cfa_offset 12
 2793              		.cfi_offset 4, -12
 2794              		.cfi_offset 5, -8
 2795              		.cfi_offset 14, -4
 2796 0002 83B0     		sub	sp, sp, #12
 2797              	.LCFI75:
 2798              		.cfi_def_cfa_offset 24
 2799 0004 0546     		mov	r5, r0
 2800 0006 0C46     		mov	r4, r1
1840:BMI088/Src/bmi08a.c **** 	uint8_t reg_data = BMI08X_ACCEL_POSITIVE_SELF_TEST;
 2801              		.loc 1 1840 2 is_stmt 1 view .LVU831
1841:BMI088/Src/bmi08a.c **** 
 2802              		.loc 1 1841 2 view .LVU832
1841:BMI088/Src/bmi08a.c **** 
 2803              		.loc 1 1841 10 is_stmt 0 view .LVU833
 2804 0008 0D23     		movs	r3, #13
 2805 000a 8DF80730 		strb	r3, [sp, #7]
1844:BMI088/Src/bmi08a.c **** 
 2806              		.loc 1 1844 2 is_stmt 1 view .LVU834
1844:BMI088/Src/bmi08a.c **** 
 2807              		.loc 1 1844 9 is_stmt 0 view .LVU835
 2808 000e 0B46     		mov	r3, r1
 2809 0010 0122     		movs	r2, #1
 2810 0012 0DF10701 		add	r1, sp, #7
 2811              	.LVL285:
1844:BMI088/Src/bmi08a.c **** 
 2812              		.loc 1 1844 9 view .LVU836
 2813 0016 6D20     		movs	r0, #109
 2814              	.LVL286:
1844:BMI088/Src/bmi08a.c **** 
 2815              		.loc 1 1844 9 view .LVU837
 2816 0018 FFF7FEFF 		bl	set_regs
 2817              	.LVL287:
1846:BMI088/Src/bmi08a.c **** 		/* Read accel data after 50ms delay */
 2818              		.loc 1 1846 2 is_stmt 1 view .LVU838
1846:BMI088/Src/bmi08a.c **** 		/* Read accel data after 50ms delay */
 2819              		.loc 1 1846 5 is_stmt 0 view .LVU839
ARM GAS  C:\Users\Lenovo\AppData\Local\Temp\ccWML6Ej.s 			page 97


 2820 001c 0346     		mov	r3, r0
 2821 001e 38B9     		cbnz	r0, .L173
1848:BMI088/Src/bmi08a.c **** 		rslt = bmi08a_get_data(accel_pos, dev);
 2822              		.loc 1 1848 3 is_stmt 1 view .LVU840
1848:BMI088/Src/bmi08a.c **** 		rslt = bmi08a_get_data(accel_pos, dev);
 2823              		.loc 1 1848 6 is_stmt 0 view .LVU841
 2824 0020 236A     		ldr	r3, [r4, #32]
1848:BMI088/Src/bmi08a.c **** 		rslt = bmi08a_get_data(accel_pos, dev);
 2825              		.loc 1 1848 3 view .LVU842
 2826 0022 3220     		movs	r0, #50
 2827              	.LVL288:
1848:BMI088/Src/bmi08a.c **** 		rslt = bmi08a_get_data(accel_pos, dev);
 2828              		.loc 1 1848 3 view .LVU843
 2829 0024 9847     		blx	r3
 2830              	.LVL289:
1849:BMI088/Src/bmi08a.c **** 	}
 2831              		.loc 1 1849 3 is_stmt 1 view .LVU844
1849:BMI088/Src/bmi08a.c **** 	}
 2832              		.loc 1 1849 10 is_stmt 0 view .LVU845
 2833 0026 2146     		mov	r1, r4
 2834 0028 2846     		mov	r0, r5
 2835 002a FFF7FEFF 		bl	bmi08a_get_data
 2836              	.LVL290:
 2837 002e 0346     		mov	r3, r0
 2838              	.LVL291:
 2839              	.L173:
1852:BMI088/Src/bmi08a.c **** }
 2840              		.loc 1 1852 2 is_stmt 1 view .LVU846
1853:BMI088/Src/bmi08a.c **** 
 2841              		.loc 1 1853 1 is_stmt 0 view .LVU847
 2842 0030 1846     		mov	r0, r3
 2843 0032 03B0     		add	sp, sp, #12
 2844              	.LCFI76:
 2845              		.cfi_def_cfa_offset 12
 2846              		@ sp needed
 2847 0034 30BD     		pop	{r4, r5, pc}
1853:BMI088/Src/bmi08a.c **** 
 2848              		.loc 1 1853 1 view .LVU848
 2849              		.cfi_endproc
 2850              	.LFE27:
 2852              		.section	.text.negative_excited_accel,"ax",%progbits
 2853              		.align	1
 2854              		.syntax unified
 2855              		.thumb
 2856              		.thumb_func
 2858              	negative_excited_accel:
 2859              	.LVL292:
 2860              	.LFB28:
1859:BMI088/Src/bmi08a.c **** 	int8_t rslt;
 2861              		.loc 1 1859 1 is_stmt 1 view -0
 2862              		.cfi_startproc
 2863              		@ args = 0, pretend = 0, frame = 8
 2864              		@ frame_needed = 0, uses_anonymous_args = 0
1859:BMI088/Src/bmi08a.c **** 	int8_t rslt;
 2865              		.loc 1 1859 1 is_stmt 0 view .LVU850
 2866 0000 30B5     		push	{r4, r5, lr}
 2867              	.LCFI77:
ARM GAS  C:\Users\Lenovo\AppData\Local\Temp\ccWML6Ej.s 			page 98


 2868              		.cfi_def_cfa_offset 12
 2869              		.cfi_offset 4, -12
 2870              		.cfi_offset 5, -8
 2871              		.cfi_offset 14, -4
 2872 0002 83B0     		sub	sp, sp, #12
 2873              	.LCFI78:
 2874              		.cfi_def_cfa_offset 24
 2875 0004 0546     		mov	r5, r0
 2876 0006 0C46     		mov	r4, r1
1860:BMI088/Src/bmi08a.c **** 	uint8_t reg_data = BMI08X_ACCEL_NEGATIVE_SELF_TEST;
 2877              		.loc 1 1860 2 is_stmt 1 view .LVU851
1861:BMI088/Src/bmi08a.c **** 
 2878              		.loc 1 1861 2 view .LVU852
1861:BMI088/Src/bmi08a.c **** 
 2879              		.loc 1 1861 10 is_stmt 0 view .LVU853
 2880 0008 0923     		movs	r3, #9
 2881 000a 8DF80730 		strb	r3, [sp, #7]
1864:BMI088/Src/bmi08a.c **** 
 2882              		.loc 1 1864 2 is_stmt 1 view .LVU854
1864:BMI088/Src/bmi08a.c **** 
 2883              		.loc 1 1864 9 is_stmt 0 view .LVU855
 2884 000e 0B46     		mov	r3, r1
 2885 0010 0122     		movs	r2, #1
 2886 0012 0DF10701 		add	r1, sp, #7
 2887              	.LVL293:
1864:BMI088/Src/bmi08a.c **** 
 2888              		.loc 1 1864 9 view .LVU856
 2889 0016 6D20     		movs	r0, #109
 2890              	.LVL294:
1864:BMI088/Src/bmi08a.c **** 
 2891              		.loc 1 1864 9 view .LVU857
 2892 0018 FFF7FEFF 		bl	set_regs
 2893              	.LVL295:
1866:BMI088/Src/bmi08a.c **** 		/* Read accel data after 50ms delay */
 2894              		.loc 1 1866 2 is_stmt 1 view .LVU858
1866:BMI088/Src/bmi08a.c **** 		/* Read accel data after 50ms delay */
 2895              		.loc 1 1866 5 is_stmt 0 view .LVU859
 2896 001c 38B9     		cbnz	r0, .L176
1868:BMI088/Src/bmi08a.c **** 		rslt = bmi08a_get_data(accel_neg, dev);
 2897              		.loc 1 1868 3 is_stmt 1 view .LVU860
1868:BMI088/Src/bmi08a.c **** 		rslt = bmi08a_get_data(accel_neg, dev);
 2898              		.loc 1 1868 6 is_stmt 0 view .LVU861
 2899 001e 236A     		ldr	r3, [r4, #32]
1868:BMI088/Src/bmi08a.c **** 		rslt = bmi08a_get_data(accel_neg, dev);
 2900              		.loc 1 1868 3 view .LVU862
 2901 0020 3220     		movs	r0, #50
 2902 0022 9847     		blx	r3
 2903              	.LVL296:
1869:BMI088/Src/bmi08a.c **** 
 2904              		.loc 1 1869 3 is_stmt 1 view .LVU863
1869:BMI088/Src/bmi08a.c **** 
 2905              		.loc 1 1869 10 is_stmt 0 view .LVU864
 2906 0024 2146     		mov	r1, r4
 2907 0026 2846     		mov	r0, r5
 2908 0028 FFF7FEFF 		bl	bmi08a_get_data
 2909              	.LVL297:
1871:BMI088/Src/bmi08a.c **** 			/* Disable self test */
ARM GAS  C:\Users\Lenovo\AppData\Local\Temp\ccWML6Ej.s 			page 99


 2910              		.loc 1 1871 3 is_stmt 1 view .LVU865
1871:BMI088/Src/bmi08a.c **** 			/* Disable self test */
 2911              		.loc 1 1871 6 is_stmt 0 view .LVU866
 2912 002c 08B1     		cbz	r0, .L178
 2913              	.LVL298:
 2914              	.L176:
1878:BMI088/Src/bmi08a.c **** }
 2915              		.loc 1 1878 2 is_stmt 1 view .LVU867
1879:BMI088/Src/bmi08a.c **** 
 2916              		.loc 1 1879 1 is_stmt 0 view .LVU868
 2917 002e 03B0     		add	sp, sp, #12
 2918              	.LCFI79:
 2919              		.cfi_remember_state
 2920              		.cfi_def_cfa_offset 12
 2921              		@ sp needed
 2922 0030 30BD     		pop	{r4, r5, pc}
 2923              	.LVL299:
 2924              	.L178:
 2925              	.LCFI80:
 2926              		.cfi_restore_state
1873:BMI088/Src/bmi08a.c **** 			rslt = set_regs(BMI08X_ACCEL_SELF_TEST_REG, &reg_data, 1, dev);
 2927              		.loc 1 1873 4 is_stmt 1 view .LVU869
1873:BMI088/Src/bmi08a.c **** 			rslt = set_regs(BMI08X_ACCEL_SELF_TEST_REG, &reg_data, 1, dev);
 2928              		.loc 1 1873 13 is_stmt 0 view .LVU870
 2929 0032 8DF80700 		strb	r0, [sp, #7]
1874:BMI088/Src/bmi08a.c **** 		}
 2930              		.loc 1 1874 4 is_stmt 1 view .LVU871
1874:BMI088/Src/bmi08a.c **** 		}
 2931              		.loc 1 1874 11 is_stmt 0 view .LVU872
 2932 0036 2346     		mov	r3, r4
 2933 0038 0122     		movs	r2, #1
 2934 003a 0DF10701 		add	r1, sp, #7
 2935 003e 6D20     		movs	r0, #109
 2936              	.LVL300:
1874:BMI088/Src/bmi08a.c **** 		}
 2937              		.loc 1 1874 11 view .LVU873
 2938 0040 FFF7FEFF 		bl	set_regs
 2939              	.LVL301:
1874:BMI088/Src/bmi08a.c **** 		}
 2940              		.loc 1 1874 11 view .LVU874
 2941 0044 F3E7     		b	.L176
 2942              		.cfi_endproc
 2943              	.LFE28:
 2945              		.section	.text.bmi08a_set_int_config,"ax",%progbits
 2946              		.align	1
 2947              		.global	bmi08a_set_int_config
 2948              		.syntax unified
 2949              		.thumb
 2950              		.thumb_func
 2952              	bmi08a_set_int_config:
 2953              	.LVL302:
 2954              	.LFB13:
1333:BMI088/Src/bmi08a.c **** 	int8_t rslt;
 2955              		.loc 1 1333 1 is_stmt 1 view -0
 2956              		.cfi_startproc
 2957              		@ args = 0, pretend = 0, frame = 0
 2958              		@ frame_needed = 0, uses_anonymous_args = 0
ARM GAS  C:\Users\Lenovo\AppData\Local\Temp\ccWML6Ej.s 			page 100


1333:BMI088/Src/bmi08a.c **** 	int8_t rslt;
 2959              		.loc 1 1333 1 is_stmt 0 view .LVU876
 2960 0000 38B5     		push	{r3, r4, r5, lr}
 2961              	.LCFI81:
 2962              		.cfi_def_cfa_offset 16
 2963              		.cfi_offset 3, -16
 2964              		.cfi_offset 4, -12
 2965              		.cfi_offset 5, -8
 2966              		.cfi_offset 14, -4
 2967 0002 0446     		mov	r4, r0
 2968 0004 0D46     		mov	r5, r1
1334:BMI088/Src/bmi08a.c **** 
 2969              		.loc 1 1334 2 is_stmt 1 view .LVU877
1337:BMI088/Src/bmi08a.c **** 	/* Proceed if null check is fine */
 2970              		.loc 1 1337 2 view .LVU878
1337:BMI088/Src/bmi08a.c **** 	/* Proceed if null check is fine */
 2971              		.loc 1 1337 9 is_stmt 0 view .LVU879
 2972 0006 0846     		mov	r0, r1
 2973              	.LVL303:
1337:BMI088/Src/bmi08a.c **** 	/* Proceed if null check is fine */
 2974              		.loc 1 1337 9 view .LVU880
 2975 0008 FFF7FEFF 		bl	null_ptr_check
 2976              	.LVL304:
1339:BMI088/Src/bmi08a.c **** 		switch (int_config->int_type) {
 2977              		.loc 1 1339 2 is_stmt 1 view .LVU881
1339:BMI088/Src/bmi08a.c **** 		switch (int_config->int_type) {
 2978              		.loc 1 1339 5 is_stmt 0 view .LVU882
 2979 000c D8B9     		cbnz	r0, .L186
1339:BMI088/Src/bmi08a.c **** 		switch (int_config->int_type) {
 2980              		.loc 1 1339 26 discriminator 1 view .LVU883
 2981 000e ECB1     		cbz	r4, .L187
1340:BMI088/Src/bmi08a.c **** 		case BMI08X_ACCEL_DATA_RDY_INT:
 2982              		.loc 1 1340 3 is_stmt 1 view .LVU884
1340:BMI088/Src/bmi08a.c **** 		case BMI08X_ACCEL_DATA_RDY_INT:
 2983              		.loc 1 1340 21 is_stmt 0 view .LVU885
 2984 0010 6378     		ldrb	r3, [r4, #1]	@ zero_extendqisi2
1340:BMI088/Src/bmi08a.c **** 		case BMI08X_ACCEL_DATA_RDY_INT:
 2985              		.loc 1 1340 3 view .LVU886
 2986 0012 032B     		cmp	r3, #3
 2987 0014 1DD8     		bhi	.L188
 2988 0016 DFE803F0 		tbb	[pc, r3]
 2989              	.L182:
 2990 001a 02       		.byte	(.L185-.L182)/2
 2991 001b 07       		.byte	(.L184-.L182)/2
 2992 001c 0C       		.byte	(.L183-.L182)/2
 2993 001d 11       		.byte	(.L181-.L182)/2
 2994              		.p2align 1
 2995              	.L185:
1343:BMI088/Src/bmi08a.c **** 			break;
 2996              		.loc 1 1343 4 is_stmt 1 view .LVU887
1343:BMI088/Src/bmi08a.c **** 			break;
 2997              		.loc 1 1343 11 is_stmt 0 view .LVU888
 2998 001e 2946     		mov	r1, r5
 2999 0020 2046     		mov	r0, r4
 3000              	.LVL305:
1343:BMI088/Src/bmi08a.c **** 			break;
 3001              		.loc 1 1343 11 view .LVU889
ARM GAS  C:\Users\Lenovo\AppData\Local\Temp\ccWML6Ej.s 			page 101


 3002 0022 FFF7FEFF 		bl	set_accel_data_ready_int
 3003              	.LVL306:
1344:BMI088/Src/bmi08a.c **** 		case BMI08X_ACCEL_SYNC_DATA_RDY_INT:
 3004              		.loc 1 1344 4 is_stmt 1 view .LVU890
 3005              	.L180:
1365:BMI088/Src/bmi08a.c **** }
 3006              		.loc 1 1365 2 view .LVU891
1366:BMI088/Src/bmi08a.c **** 
 3007              		.loc 1 1366 1 is_stmt 0 view .LVU892
 3008 0026 38BD     		pop	{r3, r4, r5, pc}
 3009              	.LVL307:
 3010              	.L184:
1347:BMI088/Src/bmi08a.c **** 			break;
 3011              		.loc 1 1347 4 is_stmt 1 view .LVU893
1347:BMI088/Src/bmi08a.c **** 			break;
 3012              		.loc 1 1347 11 is_stmt 0 view .LVU894
 3013 0028 2946     		mov	r1, r5
 3014 002a 2046     		mov	r0, r4
 3015              	.LVL308:
1347:BMI088/Src/bmi08a.c **** 			break;
 3016              		.loc 1 1347 11 view .LVU895
 3017 002c FFF7FEFF 		bl	set_accel_sync_data_ready_int
 3018              	.LVL309:
1348:BMI088/Src/bmi08a.c **** 		case BMI08X_ACCEL_SYNC_INPUT:
 3019              		.loc 1 1348 4 is_stmt 1 view .LVU896
 3020 0030 F9E7     		b	.L180
 3021              	.L183:
1351:BMI088/Src/bmi08a.c **** 			break;
 3022              		.loc 1 1351 4 view .LVU897
1351:BMI088/Src/bmi08a.c **** 			break;
 3023              		.loc 1 1351 11 is_stmt 0 view .LVU898
 3024 0032 2946     		mov	r1, r5
 3025 0034 2046     		mov	r0, r4
 3026              	.LVL310:
1351:BMI088/Src/bmi08a.c **** 			break;
 3027              		.loc 1 1351 11 view .LVU899
 3028 0036 FFF7FEFF 		bl	set_accel_sync_input
 3029              	.LVL311:
1352:BMI088/Src/bmi08a.c **** 		case BMI08X_ACCEL_ANYMOTION_INT:
 3030              		.loc 1 1352 4 is_stmt 1 view .LVU900
 3031 003a F4E7     		b	.L180
 3032              	.L181:
1355:BMI088/Src/bmi08a.c **** 			break;
 3033              		.loc 1 1355 4 view .LVU901
1355:BMI088/Src/bmi08a.c **** 			break;
 3034              		.loc 1 1355 11 is_stmt 0 view .LVU902
 3035 003c 2946     		mov	r1, r5
 3036 003e 2046     		mov	r0, r4
 3037              	.LVL312:
1355:BMI088/Src/bmi08a.c **** 			break;
 3038              		.loc 1 1355 11 view .LVU903
 3039 0040 FFF7FEFF 		bl	set_accel_anymotion_int
 3040              	.LVL313:
1356:BMI088/Src/bmi08a.c **** 		default:
 3041              		.loc 1 1356 4 is_stmt 1 view .LVU904
 3042 0044 EFE7     		b	.L180
 3043              	.L186:
ARM GAS  C:\Users\Lenovo\AppData\Local\Temp\ccWML6Ej.s 			page 102


1362:BMI088/Src/bmi08a.c **** 	}
 3044              		.loc 1 1362 8 is_stmt 0 view .LVU905
 3045 0046 4FF0FF30 		mov	r0, #-1
 3046              	.LVL314:
1362:BMI088/Src/bmi08a.c **** 	}
 3047              		.loc 1 1362 8 view .LVU906
 3048 004a ECE7     		b	.L180
 3049              	.LVL315:
 3050              	.L187:
1362:BMI088/Src/bmi08a.c **** 	}
 3051              		.loc 1 1362 8 view .LVU907
 3052 004c 4FF0FF30 		mov	r0, #-1
 3053              	.LVL316:
1362:BMI088/Src/bmi08a.c **** 	}
 3054              		.loc 1 1362 8 view .LVU908
 3055 0050 E9E7     		b	.L180
 3056              	.LVL317:
 3057              	.L188:
1340:BMI088/Src/bmi08a.c **** 		case BMI08X_ACCEL_DATA_RDY_INT:
 3058              		.loc 1 1340 3 view .LVU909
 3059 0052 6FF00700 		mvn	r0, #7
 3060              	.LVL318:
1340:BMI088/Src/bmi08a.c **** 		case BMI08X_ACCEL_DATA_RDY_INT:
 3061              		.loc 1 1340 3 view .LVU910
 3062 0056 E6E7     		b	.L180
 3063              		.cfi_endproc
 3064              	.LFE13:
 3066              		.section	.text.bmi08a_get_sensor_temperature,"ax",%progbits
 3067              		.align	1
 3068              		.global	bmi08a_get_sensor_temperature
 3069              		.syntax unified
 3070              		.thumb
 3071              		.thumb_func
 3073              	bmi08a_get_sensor_temperature:
 3074              	.LVL319:
 3075              	.LFB14:
1372:BMI088/Src/bmi08a.c **** 	int8_t rslt;
 3076              		.loc 1 1372 1 is_stmt 1 view -0
 3077              		.cfi_startproc
 3078              		@ args = 0, pretend = 0, frame = 8
 3079              		@ frame_needed = 0, uses_anonymous_args = 0
1372:BMI088/Src/bmi08a.c **** 	int8_t rslt;
 3080              		.loc 1 1372 1 is_stmt 0 view .LVU912
 3081 0000 30B5     		push	{r4, r5, lr}
 3082              	.LCFI82:
 3083              		.cfi_def_cfa_offset 12
 3084              		.cfi_offset 4, -12
 3085              		.cfi_offset 5, -8
 3086              		.cfi_offset 14, -4
 3087 0002 83B0     		sub	sp, sp, #12
 3088              	.LCFI83:
 3089              		.cfi_def_cfa_offset 24
 3090 0004 0546     		mov	r5, r0
 3091 0006 0C46     		mov	r4, r1
1373:BMI088/Src/bmi08a.c **** 	uint8_t data[2] = { 0 };
 3092              		.loc 1 1373 2 is_stmt 1 view .LVU913
1374:BMI088/Src/bmi08a.c **** 	uint16_t msb, lsb;
ARM GAS  C:\Users\Lenovo\AppData\Local\Temp\ccWML6Ej.s 			page 103


 3093              		.loc 1 1374 2 view .LVU914
1374:BMI088/Src/bmi08a.c **** 	uint16_t msb, lsb;
 3094              		.loc 1 1374 10 is_stmt 0 view .LVU915
 3095 0008 0023     		movs	r3, #0
 3096 000a ADF80430 		strh	r3, [sp, #4]	@ movhi
1375:BMI088/Src/bmi08a.c **** 	uint16_t msblsb;
 3097              		.loc 1 1375 2 is_stmt 1 view .LVU916
1376:BMI088/Src/bmi08a.c **** 	int16_t temp;
 3098              		.loc 1 1376 2 view .LVU917
1377:BMI088/Src/bmi08a.c **** 
 3099              		.loc 1 1377 2 view .LVU918
1380:BMI088/Src/bmi08a.c **** 
 3100              		.loc 1 1380 2 view .LVU919
1380:BMI088/Src/bmi08a.c **** 
 3101              		.loc 1 1380 9 is_stmt 0 view .LVU920
 3102 000e FFF7FEFF 		bl	null_ptr_check
 3103              	.LVL320:
1383:BMI088/Src/bmi08a.c **** 		/* Read sensor temperature */
 3104              		.loc 1 1383 2 is_stmt 1 view .LVU921
1383:BMI088/Src/bmi08a.c **** 		/* Read sensor temperature */
 3105              		.loc 1 1383 5 is_stmt 0 view .LVU922
 3106 0012 F8B9     		cbnz	r0, .L194
1383:BMI088/Src/bmi08a.c **** 		/* Read sensor temperature */
 3107              		.loc 1 1383 26 discriminator 1 view .LVU923
 3108 0014 0CB3     		cbz	r4, .L195
1385:BMI088/Src/bmi08a.c **** 
 3109              		.loc 1 1385 3 is_stmt 1 view .LVU924
1385:BMI088/Src/bmi08a.c **** 
 3110              		.loc 1 1385 10 is_stmt 0 view .LVU925
 3111 0016 2B46     		mov	r3, r5
 3112 0018 0222     		movs	r2, #2
 3113 001a 01A9     		add	r1, sp, #4
 3114 001c 2220     		movs	r0, #34
 3115              	.LVL321:
1385:BMI088/Src/bmi08a.c **** 
 3116              		.loc 1 1385 10 view .LVU926
 3117 001e FFF7FEFF 		bl	get_regs
 3118              	.LVL322:
1387:BMI088/Src/bmi08a.c **** 			msb = (data[0] << 3); /* MSB data */
 3119              		.loc 1 1387 3 is_stmt 1 view .LVU927
1387:BMI088/Src/bmi08a.c **** 			msb = (data[0] << 3); /* MSB data */
 3120              		.loc 1 1387 6 is_stmt 0 view .LVU928
 3121 0022 98B9     		cbnz	r0, .L191
1388:BMI088/Src/bmi08a.c **** 			lsb = (data[1] >> 5); /* LSB data */
 3122              		.loc 1 1388 4 is_stmt 1 view .LVU929
1388:BMI088/Src/bmi08a.c **** 			lsb = (data[1] >> 5); /* LSB data */
 3123              		.loc 1 1388 15 is_stmt 0 view .LVU930
 3124 0024 9DF80420 		ldrb	r2, [sp, #4]	@ zero_extendqisi2
 3125              	.LVL323:
1389:BMI088/Src/bmi08a.c **** 			msblsb = (uint16_t) (msb + lsb);
 3126              		.loc 1 1389 4 is_stmt 1 view .LVU931
1389:BMI088/Src/bmi08a.c **** 			msblsb = (uint16_t) (msb + lsb);
 3127              		.loc 1 1389 15 is_stmt 0 view .LVU932
 3128 0028 9DF80530 		ldrb	r3, [sp, #5]	@ zero_extendqisi2
1389:BMI088/Src/bmi08a.c **** 			msblsb = (uint16_t) (msb + lsb);
 3129              		.loc 1 1389 8 view .LVU933
 3130 002c 5B09     		lsrs	r3, r3, #5
ARM GAS  C:\Users\Lenovo\AppData\Local\Temp\ccWML6Ej.s 			page 104


 3131              	.LVL324:
1390:BMI088/Src/bmi08a.c **** 
 3132              		.loc 1 1390 4 is_stmt 1 view .LVU934
1390:BMI088/Src/bmi08a.c **** 
 3133              		.loc 1 1390 11 is_stmt 0 view .LVU935
 3134 002e 03EBC203 		add	r3, r3, r2, lsl #3
 3135              	.LVL325:
1392:BMI088/Src/bmi08a.c **** 				/* Updating the msblsb */
 3136              		.loc 1 1392 4 is_stmt 1 view .LVU936
1392:BMI088/Src/bmi08a.c **** 				/* Updating the msblsb */
 3137              		.loc 1 1392 7 is_stmt 0 view .LVU937
 3138 0032 B3F5806F 		cmp	r3, #1024
 3139 0036 0BD3     		bcc	.L192
1394:BMI088/Src/bmi08a.c **** 			} else {
 3140              		.loc 1 1394 5 is_stmt 1 view .LVU938
1394:BMI088/Src/bmi08a.c **** 			} else {
 3141              		.loc 1 1394 10 is_stmt 0 view .LVU939
 3142 0038 A3F50063 		sub	r3, r3, #2048
 3143              	.LVL326:
 3144              	.L193:
1399:BMI088/Src/bmi08a.c **** 		}
 3145              		.loc 1 1399 4 is_stmt 1 view .LVU940
1399:BMI088/Src/bmi08a.c **** 		}
 3146              		.loc 1 1399 25 is_stmt 0 view .LVU941
 3147 003c C3EB4312 		rsb	r2, r3, r3, lsl #5
 3148              	.LVL327:
1399:BMI088/Src/bmi08a.c **** 		}
 3149              		.loc 1 1399 25 view .LVU942
 3150 0040 03EB8203 		add	r3, r3, r2, lsl #2
 3151              	.LVL328:
1399:BMI088/Src/bmi08a.c **** 		}
 3152              		.loc 1 1399 32 view .LVU943
 3153 0044 03F5B343 		add	r3, r3, #22912
 3154 0048 5833     		adds	r3, r3, #88
1399:BMI088/Src/bmi08a.c **** 		}
 3155              		.loc 1 1399 17 view .LVU944
 3156 004a 2360     		str	r3, [r4]
 3157              	.LVL329:
 3158              	.L191:
1406:BMI088/Src/bmi08a.c **** 
 3159              		.loc 1 1406 2 is_stmt 1 view .LVU945
1408:BMI088/Src/bmi08a.c **** 
 3160              		.loc 1 1408 1 is_stmt 0 view .LVU946
 3161 004c 03B0     		add	sp, sp, #12
 3162              	.LCFI84:
 3163              		.cfi_remember_state
 3164              		.cfi_def_cfa_offset 12
 3165              		@ sp needed
 3166 004e 30BD     		pop	{r4, r5, pc}
 3167              	.LVL330:
 3168              	.L192:
 3169              	.LCFI85:
 3170              		.cfi_restore_state
1396:BMI088/Src/bmi08a.c **** 			}
 3171              		.loc 1 1396 5 is_stmt 1 view .LVU947
1396:BMI088/Src/bmi08a.c **** 			}
 3172              		.loc 1 1396 10 is_stmt 0 view .LVU948
ARM GAS  C:\Users\Lenovo\AppData\Local\Temp\ccWML6Ej.s 			page 105


 3173 0050 1BB2     		sxth	r3, r3
 3174              	.LVL331:
1396:BMI088/Src/bmi08a.c **** 			}
 3175              		.loc 1 1396 10 view .LVU949
 3176 0052 F3E7     		b	.L193
 3177              	.LVL332:
 3178              	.L194:
1403:BMI088/Src/bmi08a.c **** 	}
 3179              		.loc 1 1403 8 view .LVU950
 3180 0054 4FF0FF30 		mov	r0, #-1
 3181              	.LVL333:
1403:BMI088/Src/bmi08a.c **** 	}
 3182              		.loc 1 1403 8 view .LVU951
 3183 0058 F8E7     		b	.L191
 3184              	.LVL334:
 3185              	.L195:
1403:BMI088/Src/bmi08a.c **** 	}
 3186              		.loc 1 1403 8 view .LVU952
 3187 005a 4FF0FF30 		mov	r0, #-1
 3188              	.LVL335:
1403:BMI088/Src/bmi08a.c **** 	}
 3189              		.loc 1 1403 8 view .LVU953
 3190 005e F5E7     		b	.L191
 3191              		.cfi_endproc
 3192              	.LFE14:
 3194              		.section	.text.bmi08a_get_sensor_time,"ax",%progbits
 3195              		.align	1
 3196              		.global	bmi08a_get_sensor_time
 3197              		.syntax unified
 3198              		.thumb
 3199              		.thumb_func
 3201              	bmi08a_get_sensor_time:
 3202              	.LVL336:
 3203              	.LFB15:
1414:BMI088/Src/bmi08a.c **** 	int8_t rslt;
 3204              		.loc 1 1414 1 is_stmt 1 view -0
 3205              		.cfi_startproc
 3206              		@ args = 0, pretend = 0, frame = 8
 3207              		@ frame_needed = 0, uses_anonymous_args = 0
1414:BMI088/Src/bmi08a.c **** 	int8_t rslt;
 3208              		.loc 1 1414 1 is_stmt 0 view .LVU955
 3209 0000 30B5     		push	{r4, r5, lr}
 3210              	.LCFI86:
 3211              		.cfi_def_cfa_offset 12
 3212              		.cfi_offset 4, -12
 3213              		.cfi_offset 5, -8
 3214              		.cfi_offset 14, -4
 3215 0002 83B0     		sub	sp, sp, #12
 3216              	.LCFI87:
 3217              		.cfi_def_cfa_offset 24
 3218 0004 0546     		mov	r5, r0
 3219 0006 0C46     		mov	r4, r1
1415:BMI088/Src/bmi08a.c **** 	uint8_t data[3] = { 0 };
 3220              		.loc 1 1415 2 is_stmt 1 view .LVU956
1416:BMI088/Src/bmi08a.c **** 	uint32_t byte2, byte1, byte0;
 3221              		.loc 1 1416 2 view .LVU957
1416:BMI088/Src/bmi08a.c **** 	uint32_t byte2, byte1, byte0;
ARM GAS  C:\Users\Lenovo\AppData\Local\Temp\ccWML6Ej.s 			page 106


 3222              		.loc 1 1416 10 is_stmt 0 view .LVU958
 3223 0008 124B     		ldr	r3, .L202
 3224 000a 1B88     		ldrh	r3, [r3]
 3225 000c ADF80430 		strh	r3, [sp, #4]	@ movhi
 3226 0010 0023     		movs	r3, #0
 3227 0012 8DF80630 		strb	r3, [sp, #6]
1417:BMI088/Src/bmi08a.c **** 
 3228              		.loc 1 1417 2 is_stmt 1 view .LVU959
1420:BMI088/Src/bmi08a.c **** 
 3229              		.loc 1 1420 2 view .LVU960
1420:BMI088/Src/bmi08a.c **** 
 3230              		.loc 1 1420 9 is_stmt 0 view .LVU961
 3231 0016 FFF7FEFF 		bl	null_ptr_check
 3232              	.LVL337:
1423:BMI088/Src/bmi08a.c **** 		/* Read 3-byte sensor time */
 3233              		.loc 1 1423 2 is_stmt 1 view .LVU962
1423:BMI088/Src/bmi08a.c **** 		/* Read 3-byte sensor time */
 3234              		.loc 1 1423 5 is_stmt 0 view .LVU963
 3235 001a A0B9     		cbnz	r0, .L199
1423:BMI088/Src/bmi08a.c **** 		/* Read 3-byte sensor time */
 3236              		.loc 1 1423 26 discriminator 1 view .LVU964
 3237 001c B4B1     		cbz	r4, .L200
1425:BMI088/Src/bmi08a.c **** 
 3238              		.loc 1 1425 3 is_stmt 1 view .LVU965
1425:BMI088/Src/bmi08a.c **** 
 3239              		.loc 1 1425 10 is_stmt 0 view .LVU966
 3240 001e 2B46     		mov	r3, r5
 3241 0020 0322     		movs	r2, #3
 3242 0022 01A9     		add	r1, sp, #4
 3243 0024 1820     		movs	r0, #24
 3244              	.LVL338:
1425:BMI088/Src/bmi08a.c **** 
 3245              		.loc 1 1425 10 view .LVU967
 3246 0026 FFF7FEFF 		bl	get_regs
 3247              	.LVL339:
1427:BMI088/Src/bmi08a.c **** 			byte0 = data[0]; /* Lower byte */
 3248              		.loc 1 1427 3 is_stmt 1 view .LVU968
1427:BMI088/Src/bmi08a.c **** 			byte0 = data[0]; /* Lower byte */
 3249              		.loc 1 1427 6 is_stmt 0 view .LVU969
 3250 002a 50B9     		cbnz	r0, .L198
1428:BMI088/Src/bmi08a.c **** 			byte1 = (data[1] << 8); /* Middle byte */
 3251              		.loc 1 1428 4 is_stmt 1 view .LVU970
1428:BMI088/Src/bmi08a.c **** 			byte1 = (data[1] << 8); /* Middle byte */
 3252              		.loc 1 1428 16 is_stmt 0 view .LVU971
 3253 002c 9DF80420 		ldrb	r2, [sp, #4]	@ zero_extendqisi2
 3254              	.LVL340:
1429:BMI088/Src/bmi08a.c **** 			byte2 = (data[2] << 16); /* Higher byte */
 3255              		.loc 1 1429 4 is_stmt 1 view .LVU972
1429:BMI088/Src/bmi08a.c **** 			byte2 = (data[2] << 16); /* Higher byte */
 3256              		.loc 1 1429 17 is_stmt 0 view .LVU973
 3257 0030 9DF80510 		ldrb	r1, [sp, #5]	@ zero_extendqisi2
 3258              	.LVL341:
1430:BMI088/Src/bmi08a.c **** 
 3259              		.loc 1 1430 4 is_stmt 1 view .LVU974
1430:BMI088/Src/bmi08a.c **** 
 3260              		.loc 1 1430 17 is_stmt 0 view .LVU975
 3261 0034 9DF80630 		ldrb	r3, [sp, #6]	@ zero_extendqisi2
ARM GAS  C:\Users\Lenovo\AppData\Local\Temp\ccWML6Ej.s 			page 107


1430:BMI088/Src/bmi08a.c **** 
 3262              		.loc 1 1430 21 view .LVU976
 3263 0038 1B04     		lsls	r3, r3, #16
 3264              	.LVL342:
1433:BMI088/Src/bmi08a.c **** 		}
 3265              		.loc 1 1433 4 is_stmt 1 view .LVU977
1433:BMI088/Src/bmi08a.c **** 		}
 3266              		.loc 1 1433 26 is_stmt 0 view .LVU978
 3267 003a 43EA0123 		orr	r3, r3, r1, lsl #8
 3268              	.LVL343:
1433:BMI088/Src/bmi08a.c **** 		}
 3269              		.loc 1 1433 34 view .LVU979
 3270 003e 1343     		orrs	r3, r3, r2
1433:BMI088/Src/bmi08a.c **** 		}
 3271              		.loc 1 1433 17 view .LVU980
 3272 0040 2360     		str	r3, [r4]
 3273              	.LVL344:
 3274              	.L198:
1440:BMI088/Src/bmi08a.c **** }
 3275              		.loc 1 1440 2 is_stmt 1 view .LVU981
1441:BMI088/Src/bmi08a.c **** /*!
 3276              		.loc 1 1441 1 is_stmt 0 view .LVU982
 3277 0042 03B0     		add	sp, sp, #12
 3278              	.LCFI88:
 3279              		.cfi_remember_state
 3280              		.cfi_def_cfa_offset 12
 3281              		@ sp needed
 3282 0044 30BD     		pop	{r4, r5, pc}
 3283              	.LVL345:
 3284              	.L199:
 3285              	.LCFI89:
 3286              		.cfi_restore_state
1437:BMI088/Src/bmi08a.c **** 	}
 3287              		.loc 1 1437 8 view .LVU983
 3288 0046 4FF0FF30 		mov	r0, #-1
 3289              	.LVL346:
1437:BMI088/Src/bmi08a.c **** 	}
 3290              		.loc 1 1437 8 view .LVU984
 3291 004a FAE7     		b	.L198
 3292              	.LVL347:
 3293              	.L200:
1437:BMI088/Src/bmi08a.c **** 	}
 3294              		.loc 1 1437 8 view .LVU985
 3295 004c 4FF0FF30 		mov	r0, #-1
 3296              	.LVL348:
1437:BMI088/Src/bmi08a.c **** 	}
 3297              		.loc 1 1437 8 view .LVU986
 3298 0050 F7E7     		b	.L198
 3299              	.L203:
 3300 0052 00BF     		.align	2
 3301              	.L202:
 3302 0054 00000000 		.word	.LANCHOR0
 3303              		.cfi_endproc
 3304              	.LFE15:
 3306              		.section	.text.bmi08a_perform_selftest,"ax",%progbits
 3307              		.align	1
 3308              		.global	bmi08a_perform_selftest
ARM GAS  C:\Users\Lenovo\AppData\Local\Temp\ccWML6Ej.s 			page 108


 3309              		.syntax unified
 3310              		.thumb
 3311              		.thumb_func
 3313              	bmi08a_perform_selftest:
 3314              	.LVL349:
 3315              	.LFB16:
1447:BMI088/Src/bmi08a.c **** 	int8_t rslt;
 3316              		.loc 1 1447 1 is_stmt 1 view -0
 3317              		.cfi_startproc
 3318              		@ args = 0, pretend = 0, frame = 24
 3319              		@ frame_needed = 0, uses_anonymous_args = 0
1447:BMI088/Src/bmi08a.c **** 	int8_t rslt;
 3320              		.loc 1 1447 1 is_stmt 0 view .LVU988
 3321 0000 30B5     		push	{r4, r5, lr}
 3322              	.LCFI90:
 3323              		.cfi_def_cfa_offset 12
 3324              		.cfi_offset 4, -12
 3325              		.cfi_offset 5, -8
 3326              		.cfi_offset 14, -4
 3327 0002 87B0     		sub	sp, sp, #28
 3328              	.LCFI91:
 3329              		.cfi_def_cfa_offset 40
 3330 0004 0446     		mov	r4, r0
1448:BMI088/Src/bmi08a.c **** 	int8_t self_test_rslt = 0;
 3331              		.loc 1 1448 2 is_stmt 1 view .LVU989
1449:BMI088/Src/bmi08a.c **** 	struct bmi08x_sensor_data accel_pos, accel_neg;
 3332              		.loc 1 1449 2 view .LVU990
 3333              	.LVL350:
1450:BMI088/Src/bmi08a.c **** 
 3334              		.loc 1 1450 2 view .LVU991
1453:BMI088/Src/bmi08a.c **** 
 3335              		.loc 1 1453 2 view .LVU992
1453:BMI088/Src/bmi08a.c **** 
 3336              		.loc 1 1453 9 is_stmt 0 view .LVU993
 3337 0006 FFF7FEFF 		bl	null_ptr_check
 3338              	.LVL351:
1456:BMI088/Src/bmi08a.c **** 		/* pre-requisites for self test */
 3339              		.loc 1 1456 2 is_stmt 1 view .LVU994
1456:BMI088/Src/bmi08a.c **** 		/* pre-requisites for self test */
 3340              		.loc 1 1456 5 is_stmt 0 view .LVU995
 3341 000a 0546     		mov	r5, r0
 3342 000c 10B1     		cbz	r0, .L207
 3343              	.LVL352:
 3344              	.L205:
1486:BMI088/Src/bmi08a.c **** }
 3345              		.loc 1 1486 2 is_stmt 1 view .LVU996
1487:BMI088/Src/bmi08a.c **** 
 3346              		.loc 1 1487 1 is_stmt 0 view .LVU997
 3347 000e 2846     		mov	r0, r5
 3348 0010 07B0     		add	sp, sp, #28
 3349              	.LCFI92:
 3350              		.cfi_remember_state
 3351              		.cfi_def_cfa_offset 12
 3352              		@ sp needed
 3353 0012 30BD     		pop	{r4, r5, pc}
 3354              	.LVL353:
 3355              	.L207:
ARM GAS  C:\Users\Lenovo\AppData\Local\Temp\ccWML6Ej.s 			page 109


 3356              	.LCFI93:
 3357              		.cfi_restore_state
1458:BMI088/Src/bmi08a.c **** 
 3358              		.loc 1 1458 3 is_stmt 1 view .LVU998
1458:BMI088/Src/bmi08a.c **** 
 3359              		.loc 1 1458 10 is_stmt 0 view .LVU999
 3360 0014 2046     		mov	r0, r4
 3361              	.LVL354:
1458:BMI088/Src/bmi08a.c **** 
 3362              		.loc 1 1458 10 view .LVU1000
 3363 0016 FFF7FEFF 		bl	enable_self_test
 3364              	.LVL355:
1460:BMI088/Src/bmi08a.c **** 			rslt = positive_excited_accel(&accel_pos, dev);
 3365              		.loc 1 1460 3 is_stmt 1 view .LVU1001
1460:BMI088/Src/bmi08a.c **** 			rslt = positive_excited_accel(&accel_pos, dev);
 3366              		.loc 1 1460 6 is_stmt 0 view .LVU1002
 3367 001a 0546     		mov	r5, r0
 3368 001c 0028     		cmp	r0, #0
 3369 001e F6D1     		bne	.L205
1461:BMI088/Src/bmi08a.c **** 
 3370              		.loc 1 1461 4 is_stmt 1 view .LVU1003
1461:BMI088/Src/bmi08a.c **** 
 3371              		.loc 1 1461 11 is_stmt 0 view .LVU1004
 3372 0020 2146     		mov	r1, r4
 3373 0022 03A8     		add	r0, sp, #12
 3374              	.LVL356:
1461:BMI088/Src/bmi08a.c **** 
 3375              		.loc 1 1461 11 view .LVU1005
 3376 0024 FFF7FEFF 		bl	positive_excited_accel
 3377              	.LVL357:
1463:BMI088/Src/bmi08a.c **** 				rslt = negative_excited_accel(&accel_neg, dev);
 3378              		.loc 1 1463 4 is_stmt 1 view .LVU1006
1463:BMI088/Src/bmi08a.c **** 				rslt = negative_excited_accel(&accel_neg, dev);
 3379              		.loc 1 1463 7 is_stmt 0 view .LVU1007
 3380 0028 0546     		mov	r5, r0
 3381 002a 0028     		cmp	r0, #0
 3382 002c EFD1     		bne	.L205
1464:BMI088/Src/bmi08a.c **** 
 3383              		.loc 1 1464 5 is_stmt 1 view .LVU1008
1464:BMI088/Src/bmi08a.c **** 
 3384              		.loc 1 1464 12 is_stmt 0 view .LVU1009
 3385 002e 2146     		mov	r1, r4
 3386 0030 6846     		mov	r0, sp
 3387              	.LVL358:
1464:BMI088/Src/bmi08a.c **** 
 3388              		.loc 1 1464 12 view .LVU1010
 3389 0032 FFF7FEFF 		bl	negative_excited_accel
 3390              	.LVL359:
1466:BMI088/Src/bmi08a.c **** 					/* Validate the self test result */
 3391              		.loc 1 1466 5 is_stmt 1 view .LVU1011
1466:BMI088/Src/bmi08a.c **** 					/* Validate the self test result */
 3392              		.loc 1 1466 8 is_stmt 0 view .LVU1012
 3393 0036 0546     		mov	r5, r0
 3394 0038 0028     		cmp	r0, #0
 3395 003a E8D1     		bne	.L205
1468:BMI088/Src/bmi08a.c **** 					/* Store the status of self test result */
 3396              		.loc 1 1468 6 is_stmt 1 view .LVU1013
ARM GAS  C:\Users\Lenovo\AppData\Local\Temp\ccWML6Ej.s 			page 110


1468:BMI088/Src/bmi08a.c **** 					/* Store the status of self test result */
 3397              		.loc 1 1468 13 is_stmt 0 view .LVU1014
 3398 003c 6946     		mov	r1, sp
 3399 003e 03A8     		add	r0, sp, #12
 3400              	.LVL360:
1468:BMI088/Src/bmi08a.c **** 					/* Store the status of self test result */
 3401              		.loc 1 1468 13 view .LVU1015
 3402 0040 FFF7FEFF 		bl	validate_accel_self_test
 3403              	.LVL361:
 3404 0044 0546     		mov	r5, r0
 3405              	.LVL362:
1470:BMI088/Src/bmi08a.c **** 					/* Perform soft reset */
 3406              		.loc 1 1470 6 is_stmt 1 view .LVU1016
1472:BMI088/Src/bmi08a.c **** 					/* Check to ensure bus operations are success */
 3407              		.loc 1 1472 6 view .LVU1017
1472:BMI088/Src/bmi08a.c **** 					/* Check to ensure bus operations are success */
 3408              		.loc 1 1472 13 is_stmt 0 view .LVU1018
 3409 0046 2046     		mov	r0, r4
 3410 0048 FFF7FEFF 		bl	bmi08a_soft_reset
 3411              	.LVL363:
1474:BMI088/Src/bmi08a.c **** 						/* Restore self_test_rslt as return value */
 3412              		.loc 1 1474 6 is_stmt 1 view .LVU1019
1474:BMI088/Src/bmi08a.c **** 						/* Restore self_test_rslt as return value */
 3413              		.loc 1 1474 9 is_stmt 0 view .LVU1020
 3414 004c 0028     		cmp	r0, #0
 3415 004e DED0     		beq	.L205
1472:BMI088/Src/bmi08a.c **** 					/* Check to ensure bus operations are success */
 3416              		.loc 1 1472 13 view .LVU1021
 3417 0050 0546     		mov	r5, r0
 3418              	.LVL364:
1472:BMI088/Src/bmi08a.c **** 					/* Check to ensure bus operations are success */
 3419              		.loc 1 1472 13 view .LVU1022
 3420 0052 DCE7     		b	.L205
 3421              		.cfi_endproc
 3422              	.LFE16:
 3424              		.global	bmi08x_config_file
 3425              		.section	.rodata
 3426              		.align	2
 3427              		.set	.LANCHOR0,. + 0
 3428              	.LC0:
 3429 0000 0000     		.ascii	"\000\000"
 3430 0002 00       		.space	1
 3431              		.section	.rodata.bmi08x_config_file,"a"
 3432              		.align	2
 3435              	bmi08x_config_file:
 3436 0000 C82E002E 		.ascii	"\310.\000.\200.G\001\310.\000.\310.\000.\310.\000.\200"
 3436      802E4701 
 3436      C82E002E 
 3436      C82E002E 
 3436      C82E002E 
 3437 0015 2EA00080 		.ascii	".\240\000\200.|\000\200.\021\001P9!.\260\360\0200!."
 3437      2E7C0080 
 3437      2E110150 
 3437      39212EB0 
 3437      F0103021 
 3438 002a 16F0802E 		.ascii	"\026\360\200.\220\001\000\000\000\000\000\000\000\000"
 3438      90010000 
ARM GAS  C:\Users\Lenovo\AppData\Local\Temp\ccWML6Ej.s 			page 111


 3438      00000000 
 3438      0000
 3439 0038 00000000 		.ascii	"\000\000\000\000\000\000\000\000\000\000\000\000\000"
 3439      00000000 
 3439      00000000 
 3439      00
 3440 0045 00000000 		.ascii	"\000\000\000\000\000Z\276\200.\030\000\200.\030\000"
 3440      005ABE80 
 3440      2E180080 
 3440      2E1800
 3441 0054 802E1800 		.ascii	"\200.\030\000\200.\030\000\200.\030\000\200.\030\000"
 3441      802E1800 
 3441      802E1800 
 3441      802E1800 
 3442 0064 802E1800 		.ascii	"\200.\030\000\200.\030\000\200.\030\000\200.\030\000"
 3442      802E1800 
 3442      802E1800 
 3442      802E1800 
 3443 0074 802E1800 		.ascii	"\200.\030\000\200.\030\000\200.\030\000\200.\030\000"
 3443      802E1800 
 3443      802E1800 
 3443      802E1800 
 3444 0084 802E1800 		.ascii	"\200.\030\000\200.\030\000\200.\030\000\200.\030\000"
 3444      802E1800 
 3444      802E1800 
 3444      802E1800 
 3445 0094 00000000 		.ascii	"\000\000\000\000\000\000\000\000\000\000\000\000\000"
 3445      00000000 
 3445      00000000 
 3445      00
 3446 00a1 00000000 		.ascii	"\000\000\000\000\000\000\000\000\000\000\000\000\000"
 3446      00000000 
 3446      00000000 
 3446      00
 3447 00ae 00000000 		.ascii	"\000\000\000\000\000\000\000\000\000\000\000\000\000"
 3447      00000000 
 3447      00000000 
 3447      00
 3448 00bb 00000000 		.ascii	"\000\000\000\000\000\000\000\000\000\000\000\000\000"
 3448      00000000 
 3448      00000000 
 3448      00
 3449 00c8 00000000 		.ascii	"\000\000\000\000\000\000\000\000\000\000\000\000\000"
 3449      00000000 
 3449      00000000 
 3449      00
 3450 00d5 00000000 		.ascii	"\000\000\000\000\000\000\000\000\000\000\000\000\000"
 3450      00000000 
 3450      00000000 
 3450      00
 3451 00e2 00000000 		.ascii	"\000\000\000\000\000\000\000\000\000\000\000\000\000"
 3451      00000000 
 3451      00000000 
 3451      00
 3452 00ef 00000000 		.ascii	"\000\000\000\000\000\000\000\000\000\240P\200\177\347"
 3452      00000000 
 3452      00A05080 
ARM GAS  C:\Users\Lenovo\AppData\Local\Temp\ccWML6Ej.s 			page 112


 3452      7FE7
 3453 00fd 7FD57FC4 		.ascii	"\177\325\177\304\177\263\177\242\177\221\177\366\177"
 3453      7FB37FA2 
 3453      7F917FF6 
 3453      7F
 3454 010a 7B7F002E 		.ascii	"{\177\000.\001.C\360\010\274\017\270`\177\000.`o\000"
 3454      012E43F0 
 3454      08BC0FB8 
 3454      607F002E 
 3454      606F00
 3455 011d B2012F98 		.ascii	"\262\001/\230.\331\261@0!.\270\360\366o\221o\242o\263"
 3455      2ED9B140 
 3455      30212EB8 
 3455      F0F66F91 
 3455      6FA26FB3 
 3456 0131 6FC46FD5 		.ascii	"o\304o\325o\347o{o\200o`_\310.\240P\200\177\347\177"
 3456      6FE76F7B 
 3456      6F806F60 
 3456      5FC82EA0 
 3456      50807FE7 
 3457 0146 D57FC47F 		.ascii	"\325\177\304\177\263\177\242\177\221\177\366\177{\177"
 3457      B37FA27F 
 3457      917FF67F 
 3457      7B7F
 3458 0154 002E012E 		.ascii	"\000.\001.)\360\010\274\017\270`\177\000.`o\001\220"
 3458      29F008BC 
 3458      0FB8607F 
 3458      002E606F 
 3458      0190
 3459 0166 1B2F012E 		.ascii	"\033/\001.\002\001\016\274\016\270\000\220\005/\001"
 3459      02010EBC 
 3459      0EB80090 
 3459      052F01
 3460 0175 2E04010F 		.ascii	".\004\001\017\274\017\270\001\262\015/\001.c\000\001"
 3460      BC0FB801 
 3460      B20D2F01 
 3460      2E630001 
 3461 0185 90042F98 		.ascii	"\220\004/\230.m\262\0000!.c\000\001.7\360!.7\360\002"
 3461      2E6DB200 
 3461      30212E63 
 3461      00012E37 
 3461      F0212E37 
 3462 019b 2D982E45 		.ascii	"-\230.E\263\2000!.\270\360\366o\221o\242o\263o\304o"
 3462      B3803021 
 3462      2EB8F0F6 
 3462      6F916FA2 
 3462      6FB36FC4 
 3463 01b0 D56FE76F 		.ascii	"\325o\347o{o\200o`_\310.@0!.\272\360\270.\2000!.\272"
 3463      7B6F806F 
 3463      605FC82E 
 3463      4030212E 
 3463      BAF0B82E 
 3464 01c9 F0102480 		.ascii	"\360\020$\200\000\003.\006\360\010\012!.\006\360\000"
 3464      00032E06 
 3464      F0080A21 
 3464      2E06F000 
 3465 01d9 3E032E06 		.ascii	">\003.\006\360\010\010Q0\001\012!.\006\360\270.\000"
ARM GAS  C:\Users\Lenovo\AppData\Local\Temp\ccWML6Ej.s 			page 113


 3465      F0080851 
 3465      30010A21 
 3465      2E06F0B8 
 3465      2E00
 3466 01eb 31212EBA 		.ascii	"1!.\272\360\270.\0200!.\273\360\270.\200.\030\000\375"
 3466      F0B82E10 
 3466      30212EBB 
 3466      F0B82E80 
 3466      2E1800FD 
 3467 01ff 2DAA0005 		.ascii	"-\252\000\005\000\000\000\000\000\004\000\001\000\355"
 3467      00000000 
 3467      00040001 
 3467      00ED
 3468 020d 8FD931C6 		.ascii	"\217\3311\306\001\214\003\306\001\000\000\016\000\016"
 3468      018C03C6 
 3468      0100000E 
 3468      000E
 3469 021b 00100010 		.ascii	"\000\020\000\020\000\020\000`P\347\177\366\17760\017"
 3469      00100060 
 3469      50E77FF6 
 3469      7F36300F 
 3470 022b 2E01F0FE 		.ascii	".\001\360\376\277\376\273\267\005\246\177\323\177\304"
 3470      BFFEBBB7 
 3470      05A67FD3 
 3470      7FC4
 3471 0239 7FB57F14 		.ascii	"\177\265\177\024$\211\360?\213\003ADA\270\275\234\013"
 3471      2489F03F 
 3471      8B034144 
 3471      41B8BD9C 
 3471      0B
 3472 024a A36F1424 		.ascii	"\243o\024$\031\000\263\021C\213\026C\000.gAFA\370\277"
 3472      1900B311 
 3472      438B1643 
 3472      002E6741 
 3472      4641F8BF 
 3473 025e BE0BB311 		.ascii	"\276\013\263\021\026CC\215\000.\245A\206A\330\276n\013"
 3473      1643438D 
 3473      002EA541 
 3473      8641D8BE 
 3473      6E0B
 3474 0270 EB100343 		.ascii	"\353\020\003C\0230'.\030\000\0031'.\270\360\366o\347"
 3474      1330272E 
 3474      18000331 
 3474      272EB8F0 
 3474      F66FE7
 3475 0283 6FC46FB5 		.ascii	"o\304o\265o\323o\240_\310.\240P\200\177\221\177\347"
 3475      6FD36FA0 
 3475      5FC82EA0 
 3475      50807F91 
 3475      7FE7
 3476 0295 7FD57FC4 		.ascii	"\177\325\177\304\177\263\177\242\177\366\177{\177\000"
 3476      7FB37FA2 
 3476      7FF67F7B 
 3476      7F00
 3477 02a3 2E012EB9 		.ascii	".\001.\271\360`\177\0200ao\010\010\000\262\001/\230"
 3477      F0607F10 
 3477      30616F08 
ARM GAS  C:\Users\Lenovo\AppData\Local\Temp\ccWML6Ej.s 			page 114


 3477      0800B201 
 3477      2F98
 3478 02b5 2EE6B010 		.ascii	".\346\260\0200!.\271\360!._\360\366o\221o\242o\263o"
 3478      30212EB9 
 3478      F0212E5F 
 3478      F0F66F91 
 3478      6FA26FB3 
 3479 02ca C46FD56F 		.ascii	"\304o\325o\347o{o\200o`_\310.\230.\236\001 &\230.\336"
 3479      E76F7B6F 
 3479      806F605F 
 3479      C82E982E 
 3479      9E012026 
 3480 02e1 00982EF9 		.ascii	"\000\230.\371\000\230.\365\000\230.\342\000\0200!.Y"
 3480      00982EF5 
 3480      00982EE2 
 3480      00103021 
 3480      2E59
 3481 02f3 F0982E94 		.ascii	"\360\230.\224\001!0\020$\031\000\000.\000.\320.\005"
 3481      01213010 
 3481      24190000 
 3481      2E002ED0 
 3481      2E05
 3482 0305 2E180080 		.ascii	".\030\000\200\262\0020\005/#._\360%.\030\000\230.\000"
 3482      B2023005 
 3482      2F232E5F 
 3482      F0252E18 
 3482      00982E00 
 3483 0319 B0982E51 		.ascii	"\260\230.Q\262\354-\032$&\000\200.l\001\020P\001.U\360"
 3483      B2EC2D1A 
 3483      24260080 
 3483      2E6C0110 
 3483      50012E55 
 3484 032e F07F002E 		.ascii	"\360\177\000.\360o!.U\360\360_\270. P\0000\340\177\373"
 3484      F06F212E 
 3484      55F0F05F 
 3484      B82E2050 
 3484      0030E07F 
 3485 0343 7F1124B1 		.ascii	"\177\021$\261\360B@C0\223\012BBX\202\022$\257\000bB"
 3485      F0424043 
 3485      30930A42 
 3485      42588212 
 3485      24AF0062 
 3486 0358 1224FF00 		.ascii	"\022$\377\000BBi\202r<C@\232\010\2032\223\012BBB\202"
 3486      42426982 
 3486      723C4340 
 3486      9A088332 
 3486      930A4242 
 3487 036e 023F4340 		.ascii	"\002?C@\232\010RB\0131KB~\202\0221BB\021$\376\000\005"
 3487      9A085242 
 3487      0B314B42 
 3487      7E821231 
 3487      42421124 
 3488 0385 2E40F051 		.ascii	".@\360Q\010^\220'/\021$\000\002\022$\005\200\023$\377"
 3488      085E9027 
 3488      2F112400 
 3488      02122405 
 3488      801324FF 
ARM GAS  C:\Users\Lenovo\AppData\Local\Temp\ccWML6Ej.s 			page 115


 3489 0399 B71B2400 		.ascii	"\267\033$\000\260\0040\0050V2n\032\000/\2454i\032\001"
 3489      B0043005 
 3489      3056326E 
 3489      1A002FA5 
 3489      34691A01 
 3490 03ad 2F5B2500 		.ascii	"/[%\000.VA&\015\0060\317\273A\276\300\221\001/\000."
 3490      2E564126 
 3490      0D0630CF 
 3490      BB41BEC0 
 3490      91012F00 
 3491 03c2 012D220D 		.ascii	"\001-\"\015\201\215\220\241\365/\353\016\350/\001.%"
 3491      818D90A1 
 3491      F52FEB0E 
 3491      E82F012E 
 3491      25
 3492 03d3 00201A05 		.ascii	"\000 \032\005/ 0\340\177\003-00\340\177\000.\340o\000"
 3492      2F2030E0 
 3492      7F032D30 
 3492      30E07F00 
 3492      2EE06F00 
 3493 03e7 B2032F21 		.ascii	"\262\003/!.Y\360\230.\224\001\373o\340_\270.\200.\030"
 3493      2E59F098 
 3493      2E9401FB 
 3493      6FE05FB8 
 3493      2E802E18 
 3494 03fb 00802E18 		.ascii	"\000\200.\030\000\260P\360\177\000.\001.\001\001\002"
 3494      00B050F0 
 3494      7F002E01 
 3494      2E010102 
 3495 040b BC0FB8E0 		.ascii	"\274\017\270\340\177\000.\001.\001\001\001\274\017\270"
 3495      7F002E01 
 3495      2E010101 
 3495      BC0FB8
 3496 041a D07F002E 		.ascii	"\320\177\000.\001.\001\001\017\270\300\177\0020\346"
 3496      012E0101 
 3496      0FB8C07F 
 3496      0230E6
 3497 0429 6FD46FC3 		.ascii	"o\324o\303o\200\221\004/\000\221\002/\300\262\220.\342"
 3497      6F809104 
 3497      2F009102 
 3497      2FC0B290 
 3497      2EE2
 3498 043b B0F06F0B 		.ascii	"\260\360o\013.$\000\001\202@\221\024/A\207'.$\000\000"
 3498      2E240001 
 3498      82409114 
 3498      2F418727 
 3498      2E240000 
 3499 044f 40212E1F 		.ascii	"@!.\037\000S@\020$ \000\023B\000.A@\001B%.\034\000%"
 3499      00534010 
 3499      24200013 
 3499      42002E41 
 3499      40014225 
 3500 0467 2E1D0025 		.ascii	".\035\000%.\"\000P_\270.\013.\000\001\325\276\325\272"
 3500      2E220050 
 3500      5FB82E0B 
 3500      2E0001D5 
 3500      BED5BA
ARM GAS  C:\Users\Lenovo\AppData\Local\Temp\ccWML6Ej.s 			page 116


 3501 047a B57F002E 		.ascii	"\265\177\000.\013.\001\001\323\276\323\272\245\177\000"
 3501      0B2E0101 
 3501      D3BED3BA 
 3501      A57F00
 3502 0489 2E0B2E00 		.ascii	".\013.\000\001\324\276\337\272\225\177\000.\225o\017"
 3502      01D4BEDF 
 3502      BA957F00 
 3502      2E956F0F 
 3503 0499 2E1E003D 		.ascii	".\036\000=\032\005/%.\034\000%.\035\000+.\036\000\202"
 3503      1A052F25 
 3503      2E1C0025 
 3503      2E1D002B 
 3503      2E1E0082 
 3504 04ad 7F727F80 		.ascii	"\177r\177\200\221b\177\001/\0060\007-\006@\017.\037"
 3504      91627F01 
 3504      2F063007 
 3504      2D06400F 
 3504      2E1F
 3505 04bf 00B70580 		.ascii	"\000\267\005\200\251\326\005\267#\206\177\000\221\001"
 3505      A9D605B7 
 3505      23867F00 
 3505      9101
 3506 04cd 2F043007 		.ascii	"/\0040\007-D@\015. \000&\005\000\251\224\005&#t\177"
 3506      2D44400D 
 3506      2E200026 
 3506      0500A994 
 3506      05262374 
 3507 04e2 C090012F 		.ascii	"\300\220\001/\000.\011-\002\206\000.\303@\011.!\000"
 3507      002E092D 
 3507      0286002E 
 3507      C340092E 
 3507      2100
 3508 04f4 DC04C0A8 		.ascii	"\334\004\300\250\223\004\232\"b\177\0220\204o\263oc"
 3508      93049A22 
 3508      627F1230 
 3508      846FB36F 
 3508      63
 3509 0505 0F143008 		.ascii	"\017\0240\010/toc\017\0240\004/doc\017\0240\000/\004"
 3509      2F746F63 
 3509      0F143004 
 3509      2F646F63 
 3509      0F143000 
 3510 051b 30547F40 		.ascii	"0T\177@\221\013.\034\000To\243oj)\035/\000\221\0060"
 3510      910B2E1C 
 3510      00546FA3 
 3510      6F6A291D 
 3510      2F009106 
 3511 0530 14242000 		.ascii	"\024$ \000\015/-.\034\000\005.\035\000\201\204%.\035"
 3511      0D2F2D2E 
 3511      1C00052E 
 3511      1D008184 
 3511      252E1D
 3512 0543 00052E1D 		.ascii	"\000\005.\035\000S\016+/-.\"\000)-+.\034\000-.\035\000"
 3512      00530E2B 
 3512      2F2D2E22 
 3512      00292D2B 
 3512      2E1C002D 
ARM GAS  C:\Users\Lenovo\AppData\Local\Temp\ccWML6Ej.s 			page 117


 3513 055a 0B2E1C00 		.ascii	"\013.\034\000k\016 /%.\"\000\036-\000\263\005/\0020"
 3513      6B0E202F 
 3513      252E2200 
 3513      1E2D00B3 
 3513      052F0230 
 3514 056e 252E1C00 		.ascii	"%.\034\000%.\"\000\010-+.\034\000\011.\034\000c\016"
 3514      252E2200 
 3514      082D2B2E 
 3514      1C00092E 
 3514      1C00630E 
 3515 0582 012F252E 		.ascii	"\001/%.\"\000\002@%.\037\0001%\000.\325@\022$ \000B"
 3515      22000240 
 3515      252E1F00 
 3515      3125002E 
 3515      D5401224 
 3516 0599 25954200 		.ascii	"%\225B\000.\303@\203B\000.\005.\"\000\200\262\015/\000"
 3516      2EC34083 
 3516      42002E05 
 3516      2E220080 
 3516      B20D2F00 
 3517 05ad 40212E1F 		.ascii	"@!.\037\000P@\020C\000.@@\000C 0!.^\360\002-%.$\000"
 3517      00504010 
 3517      43002E40 
 3517      40004320 
 3517      30212E5E 
 3518 05c8 505FB82E 		.ascii	"P_\270.0P\373\177\230.#\262\023$O\000\320B\301B\372"
 3518      3050FB7F 
 3518      982E23B2 
 3518      13244F00 
 3518      D042C142 
 3519 05dd 82D17FE3 		.ascii	"\202\321\177\343\177\230.\215\261\321o\000.A@@\262m"
 3519      7F982E8D 
 3519      B1D16F00 
 3519      2E414040 
 3519      B26D
 3520 05ef 2FE16F44 		.ascii	"/\341oD\204\003.O\000\203@\267\204K\004\201B\000.\203"
 3520      84032E4F 
 3520      008340B7 
 3520      844B0481 
 3520      42002E83 
 3521 0603 40C0AC01 		.ascii	"@\300\254\001/#.K\000\022%\223@\202@\032\017\001/\300"
 3521      2F232E4B 
 3521      00122593 
 3521      4082401A 
 3521      0F012FC0 
 3522 0617 AC022F03 		.ascii	"\254\002/\0030'.K\000B\206\311\204\300@C@\030\016\202"
 3522      30272E4B 
 3522      004286C9 
 3522      84C04043 
 3522      40180E82 
 3523 062b 40252F12 		.ascii	"@%/\022%\022$Q\000\217\200\202@\340\177\230.i\261\341"
 3523      25122451 
 3523      008F8082 
 3523      40E07F98 
 3523      2E69B1E1 
 3524 063f 6F002E40 		.ascii	"o\000.@Bw\202{\204\271\206\326\200A@\202@\303@\340\177"
 3524      4277827B 
ARM GAS  C:\Users\Lenovo\AppData\Local\Temp\ccWML6Ej.s 			page 118


 3524      84B986D6 
 3524      80414082 
 3524      40C340E0 
 3525 0654 982E69B1 		.ascii	"\230.i\261\341o\000.@Bw\202{\204\270\206\327\200A@\202"
 3525      E16F002E 
 3525      40427782 
 3525      7B84B886 
 3525      D7804140 
 3526 0669 40C340E0 		.ascii	"@\303@\340\177\230.i\261\341o\000.@B$-\021$[\000E\200"
 3526      7F982E69 
 3526      B1E16F00 
 3526      2E404224 
 3526      2D11245B 
 3527 0680 4140E07F 		.ascii	"A@\340\177\230.{\261\341o\000.@B|\202{\204\264\206\326"
 3527      982E7BB1 
 3527      E16F002E 
 3527      40427C82 
 3527      7B84B486 
 3528 0695 80414082 		.ascii	"\200A@\202@\303@\340\177\230.{\261\341o\000.@B|\202"
 3528      40C340E0 
 3528      7F982E7B 
 3528      B1E16F00 
 3528      2E40427C 
 3529 06aa 7B84B386 		.ascii	"{\204\263\206\327\200A@\202@\303@\340\177\230.{\261"
 3529      D7804140 
 3529      8240C340 
 3529      E07F982E 
 3529      7BB1
 3530 06bc E16F002E 		.ascii	"\341o\000.@B\230.\305\261\0210#.^\360\373o\320_\270"
 3530      4042982E 
 3530      C5B11130 
 3530      232E5EF0 
 3530      FB6FD05F 
 3531 06d1 2E3050F3 		.ascii	".0P\363\177\342\177\321\177\023$N\000\321o\344o\342"
 3531      7FE27FD1 
 3531      7F13244E 
 3531      00D16FE4 
 3531      6FE2
 3532 06e3 40F06F21 		.ascii	"@\360o!\005\303@\242\020\003\004\020\030\320_\016\000"
 3532      05C340A2 
 3532      10030410 
 3532      18D05F0E 
 3532      00
 3533 06f4 B82E3050 		.ascii	"\270.0P\363\177\342\177\321\177\023$N\000\341o\324o"
 3533      F37FE27F 
 3533      D17F1324 
 3533      4E00E16F 
 3533      D46F
 3534 0706 E240F06F 		.ascii	"\342@\360o!\005\303@\242\020\030\004\020\030\320_\016"
 3534      2105C340 
 3534      A2101804 
 3534      1018D05F 
 3534      0E
 3535 0717 00B82E01 		.ascii	"\000\270.\001.\002\001\216\274\001.J\000\236\270\001"
 3535      2E02018E 
 3535      BC012E4A 
 3535      009EB801 
ARM GAS  C:\Users\Lenovo\AppData\Local\Temp\ccWML6Ej.s 			page 119


 3536 0727 1A2E2F01 		.ascii	"\032./\001.\002\001\016\274\016\270!.J\000\003.J\000"
 3536      2E02010E 
 3536      BC0EB821 
 3536      2E4A0003 
 3536      2E4A00
 3537 073a 43B21024 		.ascii	"C\262\020$M\000\033/B\262\021/A\262\006/\0010\021B\001"
 3537      4D001B2F 
 3537      42B2112F 
 3537      41B2062F 
 3537      01301142 
 3538 074f 423E8000 		.ascii	"B>\200\000.\001B\270.A3\021Ba0\001B>\200\021$\200\000"
 3538      2E0142B8 
 3538      2E413311 
 3538      42613001 
 3538      423E8011 
 3539 0766 0142B82E 		.ascii	"\001B\270.\0010\021BQ0\001B>\200A3\001B\270.q0\021B"
 3539      01301142 
 3539      51300142 
 3539      3E804133 
 3539      0142B82E 
 3540 077e 41300142 		.ascii	"A0\001B>\200\2011\001B\270.\020$`\000\021$R\360\022"
 3540      3E808131 
 3540      0142B82E 
 3540      10246000 
 3540      112452F0 
 3541 0793 40524228 		.ascii	"@RB(\265RB\000.\022@BBB\202\000@PB\010\264@B~\200\250"
 3541      B5524200 
 3541      2E124042 
 3541      42428200 
 3541      40504208 
 3542 07ad B40142B8 		.ascii	"\264\001B\270.\022$Y\000\220@\204\202 PPBw\200\202@"
 3542      2E122459 
 3542      00904084 
 3542      82205050 
 3542      42778082 
 3543 07c2 4242FB7F 		.ascii	"BB\373\177\005\202\000@@B|\200\005\202"
 3543      05820040 
 3543      40427C80 
 3543      0582
 3544 07d0 00404042 		.ascii	"\000@@B|\200\005\202\000@@Bw\204\000.\220@\204\202\202"
 3544      7C800582 
 3544      00404042 
 3544      7784002E 
 3544      90408482 
 3545 07e5 40504277 		.ascii	"@PBw\200BB\005\202\000@@B|\200\005\202\000@@B|\200\005"
 3545      80424205 
 3545      82004040 
 3545      427C8005 
 3545      82004040 
 3546 07fd 82004040 		.ascii	"\202\000@@B|\202\341\177\230.#\262\342o\000.\220B\201"
 3546      427C82E1 
 3546      7F982E23 
 3546      B2E26F00 
 3546      2E904281 
 3547 0811 42BC8210 		.ascii	"B\274\202\020$3\360#@\002@\270\275\232\012\003\200R"
 3547      2433F023 
 3547      400240B8 
ARM GAS  C:\Users\Lenovo\AppData\Local\Temp\ccWML6Ej.s 			page 120


 3547      BD9A0A03 
 3547      8052
 3548 0823 42002E23 		.ascii	"B\000.#@\002@\270\275\232\012\003\200RB\000.\"@\000"
 3548      400240B8 
 3548      BD9A0A03 
 3548      80524200 
 3548      2E224000 
 3549 0837 4028BD10 		.ascii	"@(\275\020\012@B\000.\373o\340_\270.\021$(\360PP`@\360"
 3549      0A404200 
 3549      2EFB6FE0 
 3549      5FB82E11 
 3549      2428F050 
 3550 084f 7F512560 		.ascii	"\177Q%`@\340\177\000.A@\321\177\000.\342o\320o\000\262"
 3550      40E07F00 
 3550      2E4140D1 
 3550      7F002EE2 
 3550      6FD06F00 
 3551 0864 F36FA8B8 		.ascii	"\363o\250\270(\276Y\012 \012\001/\260_\270.EA\305\177"
 3551      28BE590A 
 3551      200A012F 
 3551      B05FB82E 
 3551      4541C57F 
 3552 0878 002EC56F 		.ascii	"\000.\305o@\221\011/\005.(\360\262\177\000.\262o\032"
 3552      4091092F 
 3552      052E28F0 
 3552      B27F002E 
 3552      B26F1A
 3553 088b 1A072FF0 		.ascii	"\032\007/\360?\023%\005-\025\032\002/\020$\377\000 "
 3553      3F132505 
 3553      2D151A02 
 3553      2F1024FF 
 3553      0020
 3554 089d 0AB05FB8 		.ascii	"\012\260_\270.\001.\003\001\217\274\001.#\000\237\270"
 3554      2E012E03 
 3554      018FBC01 
 3554      2E23009F 
 3554      B8
 3555 08ae 011A122F 		.ascii	"\001\032\022/\001.\003\001\017\274\017\270!.#\000\021"
 3555      012E0301 
 3555      0FBC0FB8 
 3555      212E2300 
 3555      11
 3556 08bf 30052E23 		.ascii	"0\005.#\000Q\010\322?\001.\007\360\002\010\221\274\001"
 3556      005108D2 
 3556      3F012E07 
 3556      F0020891 
 3556      BC01
 3557 08d1 0A212E07 		.ascii	"\012!.\007\360\270.\270.\020P\022$m\000\0000\033-\361"
 3557      F0B82EB8 
 3557      2E105012 
 3557      246D0000 
 3557      301B2DF1 
 3558 08e5 6FD10000 		.ascii	"o\321\000\000.\300B\275\204\321\000\000.\300B\211\204"
 3558      2EC042BD 
 3558      84D10000 
 3558      2EC04289 
 3558      84
ARM GAS  C:\Users\Lenovo\AppData\Local\Temp\ccWML6Ej.s 			page 121


 3559 08f6 D100002E 		.ascii	"\321\000\000.\300B\275\204\321\000\000.\300B\211\204"
 3559      C042BD84 
 3559      D100002E 
 3559      C0428984 
 3560 0906 D100002E 		.ascii	"\321\000\000.\300B\275\204\321\000\000.\300BA\202\361"
 3560      C042BD84 
 3560      D100002E 
 3560      C0424182 
 3560      F1
 3561 0917 7FB784F1 		.ascii	"\177\267\204\361oB\242\341/\360_\270.\300P\222\177\373"
 3561      6F42A2E1 
 3561      2FF05FB8 
 3561      2EC05092 
 3561      7FFB
 3562 0929 7F817F00 		.ascii	"\177\201\177\0000`\177p\177P\177\000.\003.\004\001\235"
 3562      30607F70 
 3562      7F507F00 
 3562      2E032E04 
 3562      019D
 3563 093b BC9EB841 		.ascii	"\274\236\270A\177\000.BoR\177\342\177\000.\203o\303"
 3563      7F002E42 
 3563      6F527FE2 
 3563      7F002E83 
 3563      6FC3
 3564 094d 82D37F0C 		.ascii	"\202\323\177\014-Uo\177\211\334\001\235\001\313A\213"
 3564      2D556F7F 
 3564      89DC019D 
 3564      01CB418B 
 3565 095d 43CC014D 		.ascii	"C\314\001M\001\307AGCT\177\000.To\000\253\360/\233o"
 3565      01C74147 
 3565      43547F00 
 3565      2E546F00 
 3565      ABF02F9B 
 3566 0972 8A004B42 		.ascii	"\212\000KB\302\177\261\177P\177}\200\240\177\023$\010"
 3566      C27FB17F 
 3566      507F7D80 
 3566      A07F1324 
 3566      08
 3567 0983 013F2D50 		.ascii	"\001?-Po\030\001\306\204\310\000P\000\005A\307@D@ao"
 3567      6F1801C6 
 3567      84C80050 
 3567      000541C7 
 3567      40444061 
 3568 0998 736F2F18 		.ascii	"so/\030\000\263\013/\020\241\003/0\211\274\021\316\027"
 3568      00B30B2F 
 3568      10A1032F 
 3568      3089BC11 
 3568      CE17
 3569 09aa 062D7413 		.ascii	"\006-t\023\0061\264\005\276\025\374\021\256\013N\000"
 3569      0631B405 
 3569      BE15FC11 
 3569      AE0B4E00 
 3570 09ba DF02617F 		.ascii	"\337\002a\177s\177\267\204\001\202\321\000\206\200\242"
 3570      737FB784 
 3570      0182D100 
 3570      8680A2
 3571 09c9 6F110181 		.ascii	"o\021\001\201\000\303@\005A\204@\035\030ro\000\263c"
ARM GAS  C:\Users\Lenovo\AppData\Local\Temp\ccWML6Ej.s 			page 122


 3571      00C34005 
 3571      4184401D 
 3571      18726F00 
 3571      B363
 3572 09db 6F0B2F10 		.ascii	"o\013/\020\241\003/0\211\274\021\316\027\006-t\023\006"
 3572      A1032F30 
 3572      89BC11CE 
 3572      17062D74 
 3572      1306
 3573 09ed 31B405BE 		.ascii	"1\264\005\276\025\374\021\256\013\336\004\227\006c\177"
 3573      15FC11AE 
 3573      0BDE0497 
 3573      06637F
 3574 09fc 727F517F 		.ascii	"r\177Q\177=\206\261o\342oPoB\016\274/\340o\306\202\230"
 3574      3D86B16F 
 3574      E26F506F 
 3574      420EBC2F 
 3574      E06FC682 
 3575 0a11 004800C0 		.ascii	"\000H\000\300o\203@\004@B@aopo\200\262\034\030\013/"
 3575      6F834004 
 3575      40424061 
 3575      6F706F80 
 3575      B21C180B 
 3576 0a26 90A0032F 		.ascii	"\220\240\003/\260\204\272\021\316\027\006-\0031\332"
 3576      B084BA11 
 3576      CE17062D 
 3576      0331DA
 3577 0a35 04FB1432 		.ascii	"\004\373\0242\023\372\021\243\013N\000\007\002a\177"
 3577      13FA11A3 
 3577      0B4E0007 
 3577      02617F
 3578 0a44 707F002E 		.ascii	"p\177\000.ro\200\250`o\321o\023/\200\220\003/\023$\377"
 3578      726F80A8 
 3578      606FD16F 
 3578      132F8090 
 3578      032F1324 
 3579 0a59 7F430F0D 		.ascii	"\177C\017\015/\277\240\007/\277\220\003/\022$\000\200"
 3579      2FBFA007 
 3579      2FBF9003 
 3579      2F122400 
 3579      80
 3580 0a6a 420E012F 		.ascii	"B\016\001/@B\007-\020$\000\200@B\003-\020$\377\177@"
 3580      4042072D 
 3580      10240080 
 3580      4042032D 
 3580      1024FF7F 
 3581 0a7f 42002EFB 		.ascii	"B\000.\373o@_@@\270.\021$c\0000P\0200PB\373\177\020"
 3581      6F405F40 
 3581      40B82E11 
 3581      24630030 
 3581      50103050 
 3582 0a97 2433F023 		.ascii	"$3\360#@\002@\270\275\232\012\003\200RB\000.#@\002@"
 3582      400240B8 
 3582      BD9A0A03 
 3582      80524200 
 3582      2E234002 
 3583 0aac B8BD9A0A 		.ascii	"\270\275\232\012\003\200RB\000.#@\002@\270\275\232\012"
ARM GAS  C:\Users\Lenovo\AppData\Local\Temp\ccWML6Ej.s 			page 123


 3583      03805242 
 3583      002E2340 
 3583      0240B8BD 
 3583      9A0A
 3584 0abe 3C804242 		.ascii	"<\200BB~\204\340\177\206\202\321\177\000.\202@\230."
 3584      7E84E07F 
 3584      8682D17F 
 3584      002E8240 
 3584      982E
 3585 0ad0 92B2D16F 		.ascii	"\222\262\321o}\202\000.@B~\200\013\202\002@\321\177"
 3585      7D82002E 
 3585      40427E80 
 3585      0B820240 
 3585      D17F
 3586 0ae2 982E92B2 		.ascii	"\230.\222\262\321ox\202\000.@B~\200\020\202\002@\321"
 3586      D16F7882 
 3586      002E4042 
 3586      7E801082 
 3586      0240D1
 3587 0af5 7F982E92 		.ascii	"\177\230.\222\262\321os\202\000.@B~\200\341o\022@RB"
 3587      B2D16F73 
 3587      82002E40 
 3587      427E80E1 
 3587      6F124052 
 3588 0b0a 28B55242 		.ascii	"(\265RB\000.\022@RB(\265RB\000.\000@PB\010\264@B\000"
 3588      002E1240 
 3588      524228B5 
 3588      5242002E 
 3588      00405042 
 3589 0b23 2EFB6FD0 		.ascii	".\373o\320_\270.\200.\030\000\200.\030\000\200.\030"
 3589      5FB82E80 
 3589      2E180080 
 3589      2E180080 
 3589      2E18
 3590 0b35 00802E18 		.ascii	"\000\200.\030\000\200.\030\000\200.\030\000\200.\030"
 3590      00802E18 
 3590      00802E18 
 3590      00802E18 
 3591 0b45 00802E18 		.ascii	"\000\200.\030\000\200.\030\000\200.\030\000\200.\030"
 3591      00802E18 
 3591      00802E18 
 3591      00802E18 
 3592 0b55 00802E18 		.ascii	"\000\200.\030\000\200.\030\000\200.\030\000\200.\030"
 3592      00802E18 
 3592      00802E18 
 3592      00802E18 
 3593 0b65 00802E18 		.ascii	"\000\200.\030\000\200.\030\000\200.\030\000\200.\030"
 3593      00802E18 
 3593      00802E18 
 3593      00802E18 
 3594 0b75 00802E18 		.ascii	"\000\200.\030\000\200.\030\000\200.\030\000\200.\030"
 3594      00802E18 
 3594      00802E18 
 3594      00802E18 
 3595 0b85 00802E18 		.ascii	"\000\200.\030\000\200.\030\000\200.\030\000\200.\030"
 3595      00802E18 
 3595      00802E18 
ARM GAS  C:\Users\Lenovo\AppData\Local\Temp\ccWML6Ej.s 			page 124


 3595      00802E18 
 3596 0b95 00802E18 		.ascii	"\000\200.\030\000\200.\030\000\200.\030\000\200.\030"
 3596      00802E18 
 3596      00802E18 
 3596      00802E18 
 3597 0ba5 00802E18 		.ascii	"\000\200.\030\000\200.\030\000\200.\030\000\200.\030"
 3597      00802E18 
 3597      00802E18 
 3597      00802E18 
 3598 0bb5 00802E18 		.ascii	"\000\200.\030\000\200.\030\000\200.\030\000\200.\030"
 3598      00802E18 
 3598      00802E18 
 3598      00802E18 
 3599 0bc5 00802E18 		.ascii	"\000\200.\030\000\200.\030\000\200.\030\000\200.\030"
 3599      00802E18 
 3599      00802E18 
 3599      00802E18 
 3600 0bd5 00802E18 		.ascii	"\000\200.\030\000\200.\030\000\200.\030\000\200.\030"
 3600      00802E18 
 3600      00802E18 
 3600      00802E18 
 3601 0be5 00802E18 		.ascii	"\000\200.\030\000\200.\030\000\200.\030\000\200.\030"
 3601      00802E18 
 3601      00802E18 
 3601      00802E18 
 3602 0bf5 00802E18 		.ascii	"\000\200.\030\000\200.\030\000\200.\030\000\200.\030"
 3602      00802E18 
 3602      00802E18 
 3602      00802E18 
 3603 0c05 00802E18 		.ascii	"\000\200.\030\000\200.\030\000\200.\030\000\200.\030"
 3603      00802E18 
 3603      00802E18 
 3603      00802E18 
 3604 0c15 00802E18 		.ascii	"\000\200.\030\000\200.\030\000\200.\030\000\200.\030"
 3604      00802E18 
 3604      00802E18 
 3604      00802E18 
 3605 0c25 00802E18 		.ascii	"\000\200.\030\000\200.\030\000\200.\030\000\200.\030"
 3605      00802E18 
 3605      00802E18 
 3605      00802E18 
 3606 0c35 00802E18 		.ascii	"\000\200.\030\000\200.\030\000\200.\030\000\200.\030"
 3606      00802E18 
 3606      00802E18 
 3606      00802E18 
 3607 0c45 00802E18 		.ascii	"\000\200.\030\000\200.\030\000\200.\030\000\200.\030"
 3607      00802E18 
 3607      00802E18 
 3607      00802E18 
 3608 0c55 00802E18 		.ascii	"\000\200.\030\000\200.\030\000\200.\030\000\200.\030"
 3608      00802E18 
 3608      00802E18 
 3608      00802E18 
 3609 0c65 00802E18 		.ascii	"\000\200.\030\000\200.\030\000\200.\030\000\200.\030"
 3609      00802E18 
 3609      00802E18 
 3609      00802E18 
ARM GAS  C:\Users\Lenovo\AppData\Local\Temp\ccWML6Ej.s 			page 125


 3610 0c75 00802E18 		.ascii	"\000\200.\030\000\200.\030\000\200.\030\000\200.\030"
 3610      00802E18 
 3610      00802E18 
 3610      00802E18 
 3611 0c85 00802E18 		.ascii	"\000\200.\030\000\200.\030\000\200.\030\000\200.\030"
 3611      00802E18 
 3611      00802E18 
 3611      00802E18 
 3612 0c95 00802E18 		.ascii	"\000\200.\030\000\200.\030\000\200.\030\000\200.\030"
 3612      00802E18 
 3612      00802E18 
 3612      00802E18 
 3613 0ca5 00802E18 		.ascii	"\000\200.\030\000\200.\030\000\200.\030\000\200.\030"
 3613      00802E18 
 3613      00802E18 
 3613      00802E18 
 3614 0cb5 00802E18 		.ascii	"\000\200.\030\000\200.\030\000\200.\030\000\200.\030"
 3614      00802E18 
 3614      00802E18 
 3614      00802E18 
 3615 0cc5 00802E18 		.ascii	"\000\200.\030\000\200.\030\000\200.\030\000\200.\030"
 3615      00802E18 
 3615      00802E18 
 3615      00802E18 
 3616 0cd5 00802E18 		.ascii	"\000\200.\030\000\200.\030\000\200.\030\000\200.\030"
 3616      00802E18 
 3616      00802E18 
 3616      00802E18 
 3617 0ce5 00802E18 		.ascii	"\000\200.\030\000\200.\030\000\200.\030\000\200.\030"
 3617      00802E18 
 3617      00802E18 
 3617      00802E18 
 3618 0cf5 00802E18 		.ascii	"\000\200.\030\000\200.\030\000\200.\030\000\200.\030"
 3618      00802E18 
 3618      00802E18 
 3618      00802E18 
 3619 0d05 00802E18 		.ascii	"\000\200.\030\000\200.\030\000\200.\030\000\200.\030"
 3619      00802E18 
 3619      00802E18 
 3619      00802E18 
 3620 0d15 00802E18 		.ascii	"\000\200.\030\000\200.\030\000\200.\030\000\200.\030"
 3620      00802E18 
 3620      00802E18 
 3620      00802E18 
 3621 0d25 00802E18 		.ascii	"\000\200.\030\000\200.\030\000\200.\030\000\200.\030"
 3621      00802E18 
 3621      00802E18 
 3621      00802E18 
 3622 0d35 00802E18 		.ascii	"\000\200.\030\000\200.\030\000\200.\030\000\200.\030"
 3622      00802E18 
 3622      00802E18 
 3622      00802E18 
 3623 0d45 00802E18 		.ascii	"\000\200.\030\000\200.\030\000\200.\030\000\200.\030"
 3623      00802E18 
 3623      00802E18 
 3623      00802E18 
 3624 0d55 00802E18 		.ascii	"\000\200.\030\000\200.\030\000\200.\030\000\200.\030"
ARM GAS  C:\Users\Lenovo\AppData\Local\Temp\ccWML6Ej.s 			page 126


 3624      00802E18 
 3624      00802E18 
 3624      00802E18 
 3625 0d65 00802E18 		.ascii	"\000\200.\030\000\200.\030\000\200.\030\000\200.\030"
 3625      00802E18 
 3625      00802E18 
 3625      00802E18 
 3626 0d75 00802E18 		.ascii	"\000\200.\030\000\200.\030\000\200.\030\000\200.\030"
 3626      00802E18 
 3626      00802E18 
 3626      00802E18 
 3627 0d85 00802E18 		.ascii	"\000\200.\030\000\200.\030\000\200.\030\000\200.\030"
 3627      00802E18 
 3627      00802E18 
 3627      00802E18 
 3628 0d95 00802E18 		.ascii	"\000\200.\030\000\200.\030\000\200.\030\000\200.\030"
 3628      00802E18 
 3628      00802E18 
 3628      00802E18 
 3629 0da5 00802E18 		.ascii	"\000\200.\030\000\200.\030\000\200.\030\000\200.\030"
 3629      00802E18 
 3629      00802E18 
 3629      00802E18 
 3630 0db5 00802E18 		.ascii	"\000\200.\030\000\200.\030\000\200.\030\000\200.\030"
 3630      00802E18 
 3630      00802E18 
 3630      00802E18 
 3631 0dc5 00802E18 		.ascii	"\000\200.\030\000\200.\030\000\200.\030\000\200.\030"
 3631      00802E18 
 3631      00802E18 
 3631      00802E18 
 3632 0dd5 00802E18 		.ascii	"\000\200.\030\000\200.\030\000\200.\030\000\200.\030"
 3632      00802E18 
 3632      00802E18 
 3632      00802E18 
 3633 0de5 00802E18 		.ascii	"\000\200.\030\000\200.\030\000\200.\030\000\200.\030"
 3633      00802E18 
 3633      00802E18 
 3633      00802E18 
 3634 0df5 00802E18 		.ascii	"\000\200.\030\000\200.\030\000\200.\030\000\200.\030"
 3634      00802E18 
 3634      00802E18 
 3634      00802E18 
 3635 0e05 00802E18 		.ascii	"\000\200.\030\000\200.\030\000\200.\030\000\200.\030"
 3635      00802E18 
 3635      00802E18 
 3635      00802E18 
 3636 0e15 00802E18 		.ascii	"\000\200.\030\000\200.\030\000\200.\030\000\200.\030"
 3636      00802E18 
 3636      00802E18 
 3636      00802E18 
 3637 0e25 00802E18 		.ascii	"\000\200.\030\000\200.\030\000\200.\030\000\200.\030"
 3637      00802E18 
 3637      00802E18 
 3637      00802E18 
 3638 0e35 00802E18 		.ascii	"\000\200.\030\000\200.\030\000\200.\030\000\200.\030"
 3638      00802E18 
ARM GAS  C:\Users\Lenovo\AppData\Local\Temp\ccWML6Ej.s 			page 127


 3638      00802E18 
 3638      00802E18 
 3639 0e45 00802E18 		.ascii	"\000\200.\030\000\200.\030\000\200.\030\000\200.\030"
 3639      00802E18 
 3639      00802E18 
 3639      00802E18 
 3640 0e55 00802E18 		.ascii	"\000\200.\030\000\200.\030\000\200.\030\000\200.\030"
 3640      00802E18 
 3640      00802E18 
 3640      00802E18 
 3641 0e65 00802E18 		.ascii	"\000\200.\030\000\200.\030\000\200.\030\000\200.\030"
 3641      00802E18 
 3641      00802E18 
 3641      00802E18 
 3642 0e75 00802E18 		.ascii	"\000\200.\030\000\200.\030\000\200.\030\000\200.\030"
 3642      00802E18 
 3642      00802E18 
 3642      00802E18 
 3643 0e85 00802E18 		.ascii	"\000\200.\030\000\200.\030\000\200.\030\000\200.\030"
 3643      00802E18 
 3643      00802E18 
 3643      00802E18 
 3644 0e95 00802E18 		.ascii	"\000\200.\030\000\200.\030\000\200.\030\000\200.\030"
 3644      00802E18 
 3644      00802E18 
 3644      00802E18 
 3645 0ea5 00802E18 		.ascii	"\000\200.\030\000\200.\030\000\200.\030\000\200.\030"
 3645      00802E18 
 3645      00802E18 
 3645      00802E18 
 3646 0eb5 00802E18 		.ascii	"\000\200.\030\000\200.\030\000\200.\030\000\200.\030"
 3646      00802E18 
 3646      00802E18 
 3646      00802E18 
 3647 0ec5 00802E18 		.ascii	"\000\200.\030\000\200.\030\000\200.\030\000\200.\030"
 3647      00802E18 
 3647      00802E18 
 3647      00802E18 
 3648 0ed5 00802E18 		.ascii	"\000\200.\030\000\200.\030\000\200.\030\000\200.\030"
 3648      00802E18 
 3648      00802E18 
 3648      00802E18 
 3649 0ee5 00802E18 		.ascii	"\000\200.\030\000\200.\030\000\200.\030\000\200.\030"
 3649      00802E18 
 3649      00802E18 
 3649      00802E18 
 3650 0ef5 00802E18 		.ascii	"\000\200.\030\000\200.\030\000\200.\030\000\200.\030"
 3650      00802E18 
 3650      00802E18 
 3650      00802E18 
 3651 0f05 00802E18 		.ascii	"\000\200.\030\000\200.\030\000\200.\030\000\200.\030"
 3651      00802E18 
 3651      00802E18 
 3651      00802E18 
 3652 0f15 00802E18 		.ascii	"\000\200.\030\000\200.\030\000\200.\030\000\200.\030"
 3652      00802E18 
 3652      00802E18 
ARM GAS  C:\Users\Lenovo\AppData\Local\Temp\ccWML6Ej.s 			page 128


 3652      00802E18 
 3653 0f25 00802E18 		.ascii	"\000\200.\030\000\200.\030\000\200.\030\000\200.\030"
 3653      00802E18 
 3653      00802E18 
 3653      00802E18 
 3654 0f35 00802E18 		.ascii	"\000\200.\030\000\200.\030\000\200.\030\000\200.\030"
 3654      00802E18 
 3654      00802E18 
 3654      00802E18 
 3655 0f45 00802E18 		.ascii	"\000\200.\030\000\200.\030\000\200.\030\000\200.\030"
 3655      00802E18 
 3655      00802E18 
 3655      00802E18 
 3656 0f55 00802E18 		.ascii	"\000\200.\030\000\200.\030\000\200.\030\000\200.\030"
 3656      00802E18 
 3656      00802E18 
 3656      00802E18 
 3657 0f65 00802E18 		.ascii	"\000\200.\030\000\200.\030\000\200.\030\000\200.\030"
 3657      00802E18 
 3657      00802E18 
 3657      00802E18 
 3658 0f75 00802E18 		.ascii	"\000\200.\030\000\200.\030\000\200.\030\000\200.\030"
 3658      00802E18 
 3658      00802E18 
 3658      00802E18 
 3659 0f85 00802E18 		.ascii	"\000\200.\030\000\200.\030\000\200.\030\000\200.\030"
 3659      00802E18 
 3659      00802E18 
 3659      00802E18 
 3660 0f95 00802E18 		.ascii	"\000\200.\030\000\200.\030\000\200."
 3660      00802E18 
 3660      00802E
 3661 0fa0 1800802E 		.ascii	"\030\000\200.\030\000\200.\030\000\200.\030\000\200"
 3661      1800802E 
 3661      1800802E 
 3661      180080
 3662 0faf 2E180080 		.ascii	".\030\000\200.\030\000\200.\030\000\200.\030\000\200"
 3662      2E180080 
 3662      2E180080 
 3662      2E180080 
 3663 0fbf 2E180080 		.ascii	".\030\000\200.\030\000\200.\030\000\200.\030\000\200"
 3663      2E180080 
 3663      2E180080 
 3663      2E180080 
 3664 0fcf 2E180080 		.ascii	".\030\000\200.\030\000\200.\030\000\200.\030\000\200"
 3664      2E180080 
 3664      2E180080 
 3664      2E180080 
 3665 0fdf 2E180080 		.ascii	".\030\000\200.\030\000\200.\030\000\200.\030\000\200"
 3665      2E180080 
 3665      2E180080 
 3665      2E180080 
 3666 0fef 2E180080 		.ascii	".\030\000\200.\030\000\200.\030\000\200.\030\000\200"
 3666      2E180080 
 3666      2E180080 
 3666      2E180080 
 3667 0fff 2E180080 		.ascii	".\030\000\200.\030\000\200.\030\000\200.\030\000\200"
ARM GAS  C:\Users\Lenovo\AppData\Local\Temp\ccWML6Ej.s 			page 129


 3667      2E180080 
 3667      2E180080 
 3667      2E180080 
 3668 100f 2E180080 		.ascii	".\030\000\200.\030\000\200.\030\000\200.\030\000\200"
 3668      2E180080 
 3668      2E180080 
 3668      2E180080 
 3669 101f 2E180080 		.ascii	".\030\000\200.\030\000\200.\030\000\200.\030\000\200"
 3669      2E180080 
 3669      2E180080 
 3669      2E180080 
 3670 102f 2E180080 		.ascii	".\030\000\200.\030\000\200.\030\000\200.\030\000\200"
 3670      2E180080 
 3670      2E180080 
 3670      2E180080 
 3671 103f 2E180080 		.ascii	".\030\000\200.\030\000\200.\030\000\200.\030\000\200"
 3671      2E180080 
 3671      2E180080 
 3671      2E180080 
 3672 104f 2E180080 		.ascii	".\030\000\200.\030\000\200.\030\000\200.\030\000\200"
 3672      2E180080 
 3672      2E180080 
 3672      2E180080 
 3673 105f 2E180080 		.ascii	".\030\000\200.\030\000\200.\030\000\200.\030\000\200"
 3673      2E180080 
 3673      2E180080 
 3673      2E180080 
 3674 106f 2E180080 		.ascii	".\030\000\200.\030\000\200.\030\000\200.\030\000\200"
 3674      2E180080 
 3674      2E180080 
 3674      2E180080 
 3675 107f 2E180080 		.ascii	".\030\000\200.\030\000\200.\030\000\200.\030\000\200"
 3675      2E180080 
 3675      2E180080 
 3675      2E180080 
 3676 108f 2E180080 		.ascii	".\030\000\200.\030\000\200.\030\000\200.\030\000\200"
 3676      2E180080 
 3676      2E180080 
 3676      2E180080 
 3677 109f 2E180080 		.ascii	".\030\000\200.\030\000\200.\030\000\200.\030\000\200"
 3677      2E180080 
 3677      2E180080 
 3677      2E180080 
 3678 10af 2E180080 		.ascii	".\030\000\200.\030\000\200.\030\000\200.\030\000\200"
 3678      2E180080 
 3678      2E180080 
 3678      2E180080 
 3679 10bf 2E180080 		.ascii	".\030\000\200.\030\000\200.\030\000\200.\030\000\200"
 3679      2E180080 
 3679      2E180080 
 3679      2E180080 
 3680 10cf 2E180080 		.ascii	".\030\000\200.\030\000\200.\030\000\200.\030\000\200"
 3680      2E180080 
 3680      2E180080 
 3680      2E180080 
 3681 10df 2E180080 		.ascii	".\030\000\200.\030\000\200.\030\000\200.\030\000\200"
 3681      2E180080 
ARM GAS  C:\Users\Lenovo\AppData\Local\Temp\ccWML6Ej.s 			page 130


 3681      2E180080 
 3681      2E180080 
 3682 10ef 2E180080 		.ascii	".\030\000\200.\030\000\200.\030\000\200.\030\000\200"
 3682      2E180080 
 3682      2E180080 
 3682      2E180080 
 3683 10ff 2E180080 		.ascii	".\030\000\200.\030\000\200.\030\000\200.\030\000\200"
 3683      2E180080 
 3683      2E180080 
 3683      2E180080 
 3684 110f 2E180080 		.ascii	".\030\000\200.\030\000\200.\030\000\200.\030\000\200"
 3684      2E180080 
 3684      2E180080 
 3684      2E180080 
 3685 111f 2E180080 		.ascii	".\030\000\200.\030\000\200.\030\000\200.\030\000\200"
 3685      2E180080 
 3685      2E180080 
 3685      2E180080 
 3686 112f 2E180080 		.ascii	".\030\000\200.\030\000\200.\030\000\200.\030\000\200"
 3686      2E180080 
 3686      2E180080 
 3686      2E180080 
 3687 113f 2E180080 		.ascii	".\030\000\200.\030\000\200.\030\000\200.\030\000\200"
 3687      2E180080 
 3687      2E180080 
 3687      2E180080 
 3688 114f 2E180080 		.ascii	".\030\000\200.\030\000\200.\030\000\200.\030\000\200"
 3688      2E180080 
 3688      2E180080 
 3688      2E180080 
 3689 115f 2E180080 		.ascii	".\030\000\200.\030\000\200.\030\000\200.\030\000\200"
 3689      2E180080 
 3689      2E180080 
 3689      2E180080 
 3690 116f 2E180080 		.ascii	".\030\000\200.\030\000\200.\030\000\200.\030\000\200"
 3690      2E180080 
 3690      2E180080 
 3690      2E180080 
 3691 117f 2E180080 		.ascii	".\030\000\200.\030\000\200.\030\000\200.\030\000\200"
 3691      2E180080 
 3691      2E180080 
 3691      2E180080 
 3692 118f 2E180080 		.ascii	".\030\000\200.\030\000\200.\030\000\200.\030\000\200"
 3692      2E180080 
 3692      2E180080 
 3692      2E180080 
 3693 119f 2E180080 		.ascii	".\030\000\200.\030\000\200.\030\000\200.\030\000\200"
 3693      2E180080 
 3693      2E180080 
 3693      2E180080 
 3694 11af 2E180080 		.ascii	".\030\000\200.\030\000\200.\030\000\200.\030\000\200"
 3694      2E180080 
 3694      2E180080 
 3694      2E180080 
 3695 11bf 2E180080 		.ascii	".\030\000\200.\030\000\200.\030\000\200.\030\000\200"
 3695      2E180080 
 3695      2E180080 
ARM GAS  C:\Users\Lenovo\AppData\Local\Temp\ccWML6Ej.s 			page 131


 3695      2E180080 
 3696 11cf 2E180080 		.ascii	".\030\000\200.\030\000\200.\030\000\200.\030\000\200"
 3696      2E180080 
 3696      2E180080 
 3696      2E180080 
 3697 11df 2E180080 		.ascii	".\030\000\200.\030\000\200.\030\000\200.\030\000\200"
 3697      2E180080 
 3697      2E180080 
 3697      2E180080 
 3698 11ef 2E180080 		.ascii	".\030\000\200.\030\000\200.\030\000\200.\030\000\200"
 3698      2E180080 
 3698      2E180080 
 3698      2E180080 
 3699 11ff 2E180080 		.ascii	".\030\000\200.\030\000\200.\030\000\200.\030\000\200"
 3699      2E180080 
 3699      2E180080 
 3699      2E180080 
 3700 120f 2E180080 		.ascii	".\030\000\200.\030\000\200.\030\000\200.\030\000\200"
 3700      2E180080 
 3700      2E180080 
 3700      2E180080 
 3701 121f 2E180080 		.ascii	".\030\000\200.\030\000\200.\030\000\200.\030\000\200"
 3701      2E180080 
 3701      2E180080 
 3701      2E180080 
 3702 122f 2E180080 		.ascii	".\030\000\200.\030\000\200.\030\000\200.\030\000\200"
 3702      2E180080 
 3702      2E180080 
 3702      2E180080 
 3703 123f 2E180080 		.ascii	".\030\000\200.\030\000\200.\030\000\200.\030\000\200"
 3703      2E180080 
 3703      2E180080 
 3703      2E180080 
 3704 124f 2E180080 		.ascii	".\030\000\200.\030\000\200.\030\000\200.\030\000\200"
 3704      2E180080 
 3704      2E180080 
 3704      2E180080 
 3705 125f 2E180080 		.ascii	".\030\000\200.\030\000\200.\030\000\200.\030\000\200"
 3705      2E180080 
 3705      2E180080 
 3705      2E180080 
 3706 126f 2E180080 		.ascii	".\030\000\200.\030\000\200.\030\000\200.\030\000\200"
 3706      2E180080 
 3706      2E180080 
 3706      2E180080 
 3707 127f 2E180080 		.ascii	".\030\000\200.\030\000\200.\030\000\200.\030\000\200"
 3707      2E180080 
 3707      2E180080 
 3707      2E180080 
 3708 128f 2E180080 		.ascii	".\030\000\200.\030\000\200.\030\000\200.\030\000\200"
 3708      2E180080 
 3708      2E180080 
 3708      2E180080 
 3709 129f 2E180080 		.ascii	".\030\000\200.\030\000\200.\030\000\200.\030\000\200"
 3709      2E180080 
 3709      2E180080 
 3709      2E180080 
ARM GAS  C:\Users\Lenovo\AppData\Local\Temp\ccWML6Ej.s 			page 132


 3710 12af 2E180080 		.ascii	".\030\000\200.\030\000\200.\030\000\200.\030\000\200"
 3710      2E180080 
 3710      2E180080 
 3710      2E180080 
 3711 12bf 2E180080 		.ascii	".\030\000\200.\030\000\200.\030\000\200.\030\000\200"
 3711      2E180080 
 3711      2E180080 
 3711      2E180080 
 3712 12cf 2E180080 		.ascii	".\030\000\200.\030\000\200.\030\000\200.\030\000\200"
 3712      2E180080 
 3712      2E180080 
 3712      2E180080 
 3713 12df 2E180080 		.ascii	".\030\000\200.\030\000\200.\030\000\200.\030\000\200"
 3713      2E180080 
 3713      2E180080 
 3713      2E180080 
 3714 12ef 2E180080 		.ascii	".\030\000\200.\030\000\200.\030\000\200.\030\000\200"
 3714      2E180080 
 3714      2E180080 
 3714      2E180080 
 3715 12ff 2E180080 		.ascii	".\030\000\200.\030\000\200.\030\000\200.\030\000\200"
 3715      2E180080 
 3715      2E180080 
 3715      2E180080 
 3716 130f 2E180080 		.ascii	".\030\000\200.\030\000\200.\030\000\200.\030\000\200"
 3716      2E180080 
 3716      2E180080 
 3716      2E180080 
 3717 131f 2E180080 		.ascii	".\030\000\200.\030\000\200.\030\000\200.\030\000\200"
 3717      2E180080 
 3717      2E180080 
 3717      2E180080 
 3718 132f 2E180080 		.ascii	".\030\000\200.\030\000\200.\030\000\200.\030\000\200"
 3718      2E180080 
 3718      2E180080 
 3718      2E180080 
 3719 133f 2E180080 		.ascii	".\030\000\200.\030\000\200.\030\000\200.\030\000\200"
 3719      2E180080 
 3719      2E180080 
 3719      2E180080 
 3720 134f 2E180080 		.ascii	".\030\000\200.\030\000\200.\030\000\200.\030\000\200"
 3720      2E180080 
 3720      2E180080 
 3720      2E180080 
 3721 135f 2E180080 		.ascii	".\030\000\200.\030\000\200.\030\000\200.\030\000\200"
 3721      2E180080 
 3721      2E180080 
 3721      2E180080 
 3722 136f 2E180080 		.ascii	".\030\000\200.\030\000\200.\030\000\200.\030\000\200"
 3722      2E180080 
 3722      2E180080 
 3722      2E180080 
 3723 137f 2E180080 		.ascii	".\030\000\200.\030\000\200.\030\000\200.\030\000\200"
 3723      2E180080 
 3723      2E180080 
 3723      2E180080 
 3724 138f 2E180080 		.ascii	".\030\000\200.\030\000\200.\030\000\200.\030\000\200"
ARM GAS  C:\Users\Lenovo\AppData\Local\Temp\ccWML6Ej.s 			page 133


 3724      2E180080 
 3724      2E180080 
 3724      2E180080 
 3725 139f 2E180080 		.ascii	".\030\000\200.\030\000\200.\030\000\200.\030\000\200"
 3725      2E180080 
 3725      2E180080 
 3725      2E180080 
 3726 13af 2E180080 		.ascii	".\030\000\200.\030\000\200.\030\000\200.\030\000\200"
 3726      2E180080 
 3726      2E180080 
 3726      2E180080 
 3727 13bf 2E180080 		.ascii	".\030\000\200.\030\000\200.\030\000\200.\030\000\200"
 3727      2E180080 
 3727      2E180080 
 3727      2E180080 
 3728 13cf 2E180080 		.ascii	".\030\000\200.\030\000\200.\030\000\200.\030\000\200"
 3728      2E180080 
 3728      2E180080 
 3728      2E180080 
 3729 13df 2E180080 		.ascii	".\030\000\200.\030\000\200.\030\000\200.\030\000\200"
 3729      2E180080 
 3729      2E180080 
 3729      2E180080 
 3730 13ef 2E180080 		.ascii	".\030\000\200.\030\000\200.\030\000\200.\030\000\200"
 3730      2E180080 
 3730      2E180080 
 3730      2E180080 
 3731 13ff 2E180080 		.ascii	".\030\000\200.\030\000\200.\030\000\200.\030\000\200"
 3731      2E180080 
 3731      2E180080 
 3731      2E180080 
 3732 140f 2E180080 		.ascii	".\030\000\200.\030\000\200.\030\000\200.\030\000\200"
 3732      2E180080 
 3732      2E180080 
 3732      2E180080 
 3733 141f 2E180080 		.ascii	".\030\000\200.\030\000\200.\030\000\200.\030\000\200"
 3733      2E180080 
 3733      2E180080 
 3733      2E180080 
 3734 142f 2E180080 		.ascii	".\030\000\200.\030\000\200.\030\000\200.\030\000\200"
 3734      2E180080 
 3734      2E180080 
 3734      2E180080 
 3735 143f 2E180080 		.ascii	".\030\000\200.\030\000\200.\030\000\200.\030\000\200"
 3735      2E180080 
 3735      2E180080 
 3735      2E180080 
 3736 144f 2E180080 		.ascii	".\030\000\200.\030\000\200.\030\000\200.\030\000\200"
 3736      2E180080 
 3736      2E180080 
 3736      2E180080 
 3737 145f 2E180080 		.ascii	".\030\000\200.\030\000\200.\030\000\200.\030\000\200"
 3737      2E180080 
 3737      2E180080 
 3737      2E180080 
 3738 146f 2E180080 		.ascii	".\030\000\200.\030\000\200.\030\000\200.\030\000\200"
 3738      2E180080 
ARM GAS  C:\Users\Lenovo\AppData\Local\Temp\ccWML6Ej.s 			page 134


 3738      2E180080 
 3738      2E180080 
 3739 147f 2E180080 		.ascii	".\030\000\200.\030\000\200.\030\000\200.\030\000\200"
 3739      2E180080 
 3739      2E180080 
 3739      2E180080 
 3740 148f 2E180080 		.ascii	".\030\000\200.\030\000\200.\030\000\200.\030\000\200"
 3740      2E180080 
 3740      2E180080 
 3740      2E180080 
 3741 149f 2E180080 		.ascii	".\030\000\200.\030\000\200.\030\000\200.\030\000\200"
 3741      2E180080 
 3741      2E180080 
 3741      2E180080 
 3742 14af 2E180080 		.ascii	".\030\000\200.\030\000\200.\030\000\200.\030\000\200"
 3742      2E180080 
 3742      2E180080 
 3742      2E180080 
 3743 14bf 2E180080 		.ascii	".\030\000\200.\030\000\200.\030\000\200.\030\000\200"
 3743      2E180080 
 3743      2E180080 
 3743      2E180080 
 3744 14cf 2E180080 		.ascii	".\030\000\200.\030\000\200.\030\000\200.\030\000\200"
 3744      2E180080 
 3744      2E180080 
 3744      2E180080 
 3745 14df 2E180080 		.ascii	".\030\000\200.\030\000\200.\030\000\200.\030\000\200"
 3745      2E180080 
 3745      2E180080 
 3745      2E180080 
 3746 14ef 2E180080 		.ascii	".\030\000\200.\030\000\200.\030\000\200.\030\000\200"
 3746      2E180080 
 3746      2E180080 
 3746      2E180080 
 3747 14ff 2E180080 		.ascii	".\030\000\200.\030\000\200.\030\000\200.\030\000\200"
 3747      2E180080 
 3747      2E180080 
 3747      2E180080 
 3748 150f 2E180080 		.ascii	".\030\000\200.\030\000\200.\030\000\200.\030\000\200"
 3748      2E180080 
 3748      2E180080 
 3748      2E180080 
 3749 151f 2E180080 		.ascii	".\030\000\200.\030\000\200.\030\000\200.\030\000\200"
 3749      2E180080 
 3749      2E180080 
 3749      2E180080 
 3750 152f 2E180080 		.ascii	".\030\000\200.\030\000\200.\030\000\200.\030\000\200"
 3750      2E180080 
 3750      2E180080 
 3750      2E180080 
 3751 153f 2E180080 		.ascii	".\030\000\200.\030\000\200.\030\000\200.\030\000\200"
 3751      2E180080 
 3751      2E180080 
 3751      2E180080 
 3752 154f 2E180080 		.ascii	".\030\000\200.\030\000\200.\030\000\200.\030\000\200"
 3752      2E180080 
 3752      2E180080 
ARM GAS  C:\Users\Lenovo\AppData\Local\Temp\ccWML6Ej.s 			page 135


 3752      2E180080 
 3753 155f 2E180080 		.ascii	".\030\000\200.\030\000\200.\030\000\200.\030\000\200"
 3753      2E180080 
 3753      2E180080 
 3753      2E180080 
 3754 156f 2E180080 		.ascii	".\030\000\200.\030\000\200.\030\000\200.\030\000\200"
 3754      2E180080 
 3754      2E180080 
 3754      2E180080 
 3755 157f 2E180080 		.ascii	".\030\000\200.\030\000\200.\030\000\200.\030\000\200"
 3755      2E180080 
 3755      2E180080 
 3755      2E180080 
 3756 158f 2E180080 		.ascii	".\030\000\200.\030\000\200.\030\000\200.\030\000\200"
 3756      2E180080 
 3756      2E180080 
 3756      2E180080 
 3757 159f 2E180080 		.ascii	".\030\000\200.\030\000\200.\030\000\200.\030\000\200"
 3757      2E180080 
 3757      2E180080 
 3757      2E180080 
 3758 15af 2E180080 		.ascii	".\030\000\200.\030\000\200.\030\000\200.\030\000\200"
 3758      2E180080 
 3758      2E180080 
 3758      2E180080 
 3759 15bf 2E180080 		.ascii	".\030\000\200.\030\000\200.\030\000\200.\030\000\200"
 3759      2E180080 
 3759      2E180080 
 3759      2E180080 
 3760 15cf 2E180080 		.ascii	".\030\000\200.\030\000\200.\030\000\200.\030\000\200"
 3760      2E180080 
 3760      2E180080 
 3760      2E180080 
 3761 15df 2E180080 		.ascii	".\030\000\200.\030\000\200.\030\000\200.\030\000\200"
 3761      2E180080 
 3761      2E180080 
 3761      2E180080 
 3762 15ef 2E180080 		.ascii	".\030\000\200.\030\000\200.\030\000\200.\030\000\200"
 3762      2E180080 
 3762      2E180080 
 3762      2E180080 
 3763 15ff 2E180080 		.ascii	".\030\000\200.\030\000\200.\030\000\200.\030\000\200"
 3763      2E180080 
 3763      2E180080 
 3763      2E180080 
 3764 160f 2E180080 		.ascii	".\030\000\200.\030\000\200.\030\000\200.\030\000\200"
 3764      2E180080 
 3764      2E180080 
 3764      2E180080 
 3765 161f 2E180080 		.ascii	".\030\000\200.\030\000\200.\030\000\200.\030\000\200"
 3765      2E180080 
 3765      2E180080 
 3765      2E180080 
 3766 162f 2E180080 		.ascii	".\030\000\200.\030\000\200.\030\000\200.\030\000\200"
 3766      2E180080 
 3766      2E180080 
 3766      2E180080 
ARM GAS  C:\Users\Lenovo\AppData\Local\Temp\ccWML6Ej.s 			page 136


 3767 163f 2E180080 		.ascii	".\030\000\200.\030\000\200.\030\000\200.\030\000\200"
 3767      2E180080 
 3767      2E180080 
 3767      2E180080 
 3768 164f 2E180080 		.ascii	".\030\000\200.\030\000\200.\030\000\200.\030\000\200"
 3768      2E180080 
 3768      2E180080 
 3768      2E180080 
 3769 165f 2E180080 		.ascii	".\030\000\200.\030\000\200.\030\000\200.\030\000\200"
 3769      2E180080 
 3769      2E180080 
 3769      2E180080 
 3770 166f 2E180080 		.ascii	".\030\000\200.\030\000\200.\030\000\200.\030\000\200"
 3770      2E180080 
 3770      2E180080 
 3770      2E180080 
 3771 167f 2E180080 		.ascii	".\030\000\200.\030\000\200.\030\000\200.\030\000\200"
 3771      2E180080 
 3771      2E180080 
 3771      2E180080 
 3772 168f 2E180080 		.ascii	".\030\000\200.\030\000\200.\030\000\200.\030\000\200"
 3772      2E180080 
 3772      2E180080 
 3772      2E180080 
 3773 169f 2E180080 		.ascii	".\030\000\200.\030\000\200.\030\000\200.\030\000\200"
 3773      2E180080 
 3773      2E180080 
 3773      2E180080 
 3774 16af 2E180080 		.ascii	".\030\000\200.\030\000\200.\030\000\200.\030\000\200"
 3774      2E180080 
 3774      2E180080 
 3774      2E180080 
 3775 16bf 2E180080 		.ascii	".\030\000\200.\030\000\200.\030\000\200.\030\000\200"
 3775      2E180080 
 3775      2E180080 
 3775      2E180080 
 3776 16cf 2E180080 		.ascii	".\030\000\200.\030\000\200.\030\000\200.\030\000\200"
 3776      2E180080 
 3776      2E180080 
 3776      2E180080 
 3777 16df 2E180080 		.ascii	".\030\000\200.\030\000\200.\030\000\200.\030\000\200"
 3777      2E180080 
 3777      2E180080 
 3777      2E180080 
 3778 16ef 2E180080 		.ascii	".\030\000\200.\030\000\200.\030\000\200.\030\000\200"
 3778      2E180080 
 3778      2E180080 
 3778      2E180080 
 3779 16ff 2E180080 		.ascii	".\030\000\200.\030\000\200.\030\000\200.\030\000\200"
 3779      2E180080 
 3779      2E180080 
 3779      2E180080 
 3780 170f 2E180080 		.ascii	".\030\000\200.\030\000\200.\030\000\200.\030\000\200"
 3780      2E180080 
 3780      2E180080 
 3780      2E180080 
 3781 171f 2E180080 		.ascii	".\030\000\200.\030\000\200.\030\000\200.\030\000\200"
ARM GAS  C:\Users\Lenovo\AppData\Local\Temp\ccWML6Ej.s 			page 137


 3781      2E180080 
 3781      2E180080 
 3781      2E180080 
 3782 172f 2E180080 		.ascii	".\030\000\200.\030\000\200.\030\000\200.\030\000\200"
 3782      2E180080 
 3782      2E180080 
 3782      2E180080 
 3783 173f 2E180080 		.ascii	".\030\000\200.\030\000\200.\030\000\200.\030\000\200"
 3783      2E180080 
 3783      2E180080 
 3783      2E180080 
 3784 174f 2E180080 		.ascii	".\030\000\200.\030\000\200.\030\000\200.\030\000\200"
 3784      2E180080 
 3784      2E180080 
 3784      2E180080 
 3785 175f 2E180080 		.ascii	".\030\000\200.\030\000\200.\030\000\200.\030\000\200"
 3785      2E180080 
 3785      2E180080 
 3785      2E180080 
 3786 176f 2E       		.ascii	"."
 3787 1770 1800802E 		.ascii	"\030\000\200.\030\000\200.\030\000\200.\030\000\200"
 3787      1800802E 
 3787      1800802E 
 3787      180080
 3788 177f 2E180080 		.ascii	".\030\000\200.\030\000\200.\030\000\200.\030\000\200"
 3788      2E180080 
 3788      2E180080 
 3788      2E180080 
 3789 178f 2E180080 		.ascii	".\030\000\200.\030\000\200.\030\000\200.\030\000\200"
 3789      2E180080 
 3789      2E180080 
 3789      2E180080 
 3790 179f 2E180080 		.ascii	".\030\000\200.\030\000\200.\030\000\200.\030\000\200"
 3790      2E180080 
 3790      2E180080 
 3790      2E180080 
 3791 17af 2E180080 		.ascii	".\030\000\200.\030\000\200.\030\000\200.\030\000\200"
 3791      2E180080 
 3791      2E180080 
 3791      2E180080 
 3792 17bf 2E180080 		.ascii	".\030\000\200.\030\000\200.\030\000\200.\030\000\200"
 3792      2E180080 
 3792      2E180080 
 3792      2E180080 
 3793 17cf 2E180080 		.ascii	".\030\000\200.\030\000\200.\030\000\200.\030\000\200"
 3793      2E180080 
 3793      2E180080 
 3793      2E180080 
 3794 17df 2E180080 		.ascii	".\030\000\200.\030\000\200.\030\000\200.\030\000\200"
 3794      2E180080 
 3794      2E180080 
 3794      2E180080 
 3795 17ef 2E180080 		.ascii	".\030\000\200.\030\000\200.\030\000\200.\030\000\375"
 3795      2E180080 
 3795      2E180080 
 3795      2E1800FD 
 3796 17ff 2D       		.ascii	"-"
ARM GAS  C:\Users\Lenovo\AppData\Local\Temp\ccWML6Ej.s 			page 138


 3797              		.text
 3798              	.Letext0:
 3799              		.file 2 "d:\\gnu arm embedded toolchain\\10 2021.10\\arm-none-eabi\\include\\machine\\_default_typ
 3800              		.file 3 "d:\\gnu arm embedded toolchain\\10 2021.10\\arm-none-eabi\\include\\sys\\_stdint.h"
 3801              		.file 4 "BMI088/Inc/bmi08x_defs.h"
ARM GAS  C:\Users\Lenovo\AppData\Local\Temp\ccWML6Ej.s 			page 139


DEFINED SYMBOLS
                            *ABS*:00000000 bmi08a.c
C:\Users\Lenovo\AppData\Local\Temp\ccWML6Ej.s:18     .text.null_ptr_check:00000000 $t
C:\Users\Lenovo\AppData\Local\Temp\ccWML6Ej.s:23     .text.null_ptr_check:00000000 null_ptr_check
C:\Users\Lenovo\AppData\Local\Temp\ccWML6Ej.s:86     .text.set_regs:00000000 $t
C:\Users\Lenovo\AppData\Local\Temp\ccWML6Ej.s:91     .text.set_regs:00000000 set_regs
C:\Users\Lenovo\AppData\Local\Temp\ccWML6Ej.s:157    .text.stream_transfer_write:00000000 $t
C:\Users\Lenovo\AppData\Local\Temp\ccWML6Ej.s:162    .text.stream_transfer_write:00000000 stream_transfer_write
C:\Users\Lenovo\AppData\Local\Temp\ccWML6Ej.s:250    .text.convert_lsb_g:00000000 $t
C:\Users\Lenovo\AppData\Local\Temp\ccWML6Ej.s:255    .text.convert_lsb_g:00000000 convert_lsb_g
C:\Users\Lenovo\AppData\Local\Temp\ccWML6Ej.s:314    .text.convert_lsb_g:00000060 $d
C:\Users\Lenovo\AppData\Local\Temp\ccWML6Ej.s:319    .text.validate_accel_self_test:00000000 $t
C:\Users\Lenovo\AppData\Local\Temp\ccWML6Ej.s:324    .text.validate_accel_self_test:00000000 validate_accel_self_test
C:\Users\Lenovo\AppData\Local\Temp\ccWML6Ej.s:500    .text.get_regs:00000000 $t
C:\Users\Lenovo\AppData\Local\Temp\ccWML6Ej.s:505    .text.get_regs:00000000 get_regs
C:\Users\Lenovo\AppData\Local\Temp\ccWML6Ej.s:627    .text.set_int_pin_config:00000000 $t
C:\Users\Lenovo\AppData\Local\Temp\ccWML6Ej.s:632    .text.set_int_pin_config:00000000 set_int_pin_config
C:\Users\Lenovo\AppData\Local\Temp\ccWML6Ej.s:780    .text.set_accel_sync_data_ready_int:00000000 $t
C:\Users\Lenovo\AppData\Local\Temp\ccWML6Ej.s:785    .text.set_accel_sync_data_ready_int:00000000 set_accel_sync_data_ready_int
C:\Users\Lenovo\AppData\Local\Temp\ccWML6Ej.s:884    .text.set_accel_sync_input:00000000 $t
C:\Users\Lenovo\AppData\Local\Temp\ccWML6Ej.s:889    .text.set_accel_sync_input:00000000 set_accel_sync_input
C:\Users\Lenovo\AppData\Local\Temp\ccWML6Ej.s:936    .text.set_accel_anymotion_int:00000000 $t
C:\Users\Lenovo\AppData\Local\Temp\ccWML6Ej.s:941    .text.set_accel_anymotion_int:00000000 set_accel_anymotion_int
C:\Users\Lenovo\AppData\Local\Temp\ccWML6Ej.s:1040   .text.set_accel_data_ready_int:00000000 $t
C:\Users\Lenovo\AppData\Local\Temp\ccWML6Ej.s:1045   .text.set_accel_data_ready_int:00000000 set_accel_data_ready_int
C:\Users\Lenovo\AppData\Local\Temp\ccWML6Ej.s:1160   .text.bmi08a_init:00000000 $t
C:\Users\Lenovo\AppData\Local\Temp\ccWML6Ej.s:1166   .text.bmi08a_init:00000000 bmi08a_init
C:\Users\Lenovo\AppData\Local\Temp\ccWML6Ej.s:1273   .text.bmi08a_write_config_file:00000000 $t
C:\Users\Lenovo\AppData\Local\Temp\ccWML6Ej.s:1279   .text.bmi08a_write_config_file:00000000 bmi08a_write_config_file
C:\Users\Lenovo\AppData\Local\Temp\ccWML6Ej.s:1518   .text.bmi08a_get_regs:00000000 $t
C:\Users\Lenovo\AppData\Local\Temp\ccWML6Ej.s:1524   .text.bmi08a_get_regs:00000000 bmi08a_get_regs
C:\Users\Lenovo\AppData\Local\Temp\ccWML6Ej.s:1600   .text.bmi08a_set_regs:00000000 $t
C:\Users\Lenovo\AppData\Local\Temp\ccWML6Ej.s:1606   .text.bmi08a_set_regs:00000000 bmi08a_set_regs
C:\Users\Lenovo\AppData\Local\Temp\ccWML6Ej.s:1682   .text.bmi08a_write_feature_config:00000000 $t
C:\Users\Lenovo\AppData\Local\Temp\ccWML6Ej.s:1688   .text.bmi08a_write_feature_config:00000000 bmi08a_write_feature_config
C:\Users\Lenovo\AppData\Local\Temp\ccWML6Ej.s:1813   .text.bmi08a_get_error_status:00000000 $t
C:\Users\Lenovo\AppData\Local\Temp\ccWML6Ej.s:1819   .text.bmi08a_get_error_status:00000000 bmi08a_get_error_status
C:\Users\Lenovo\AppData\Local\Temp\ccWML6Ej.s:1899   .text.bmi08a_get_status:00000000 $t
C:\Users\Lenovo\AppData\Local\Temp\ccWML6Ej.s:1905   .text.bmi08a_get_status:00000000 bmi08a_get_status
C:\Users\Lenovo\AppData\Local\Temp\ccWML6Ej.s:1990   .text.bmi08a_soft_reset:00000000 $t
C:\Users\Lenovo\AppData\Local\Temp\ccWML6Ej.s:1996   .text.bmi08a_soft_reset:00000000 bmi08a_soft_reset
C:\Users\Lenovo\AppData\Local\Temp\ccWML6Ej.s:2089   .text.bmi08a_get_meas_conf:00000000 $t
C:\Users\Lenovo\AppData\Local\Temp\ccWML6Ej.s:2095   .text.bmi08a_get_meas_conf:00000000 bmi08a_get_meas_conf
C:\Users\Lenovo\AppData\Local\Temp\ccWML6Ej.s:2171   .text.bmi08a_set_meas_conf:00000000 $t
C:\Users\Lenovo\AppData\Local\Temp\ccWML6Ej.s:2177   .text.bmi08a_set_meas_conf:00000000 bmi08a_set_meas_conf
C:\Users\Lenovo\AppData\Local\Temp\ccWML6Ej.s:2361   .text.bmi08a_get_power_mode:00000000 $t
C:\Users\Lenovo\AppData\Local\Temp\ccWML6Ej.s:2367   .text.bmi08a_get_power_mode:00000000 bmi08a_get_power_mode
C:\Users\Lenovo\AppData\Local\Temp\ccWML6Ej.s:2428   .text.bmi08a_set_power_mode:00000000 $t
C:\Users\Lenovo\AppData\Local\Temp\ccWML6Ej.s:2434   .text.bmi08a_set_power_mode:00000000 bmi08a_set_power_mode
C:\Users\Lenovo\AppData\Local\Temp\ccWML6Ej.s:2558   .text.enable_self_test:00000000 $t
C:\Users\Lenovo\AppData\Local\Temp\ccWML6Ej.s:2563   .text.enable_self_test:00000000 enable_self_test
C:\Users\Lenovo\AppData\Local\Temp\ccWML6Ej.s:2638   .text.bmi08a_get_data:00000000 $t
C:\Users\Lenovo\AppData\Local\Temp\ccWML6Ej.s:2644   .text.bmi08a_get_data:00000000 bmi08a_get_data
C:\Users\Lenovo\AppData\Local\Temp\ccWML6Ej.s:2777   .text.positive_excited_accel:00000000 $t
C:\Users\Lenovo\AppData\Local\Temp\ccWML6Ej.s:2782   .text.positive_excited_accel:00000000 positive_excited_accel
C:\Users\Lenovo\AppData\Local\Temp\ccWML6Ej.s:2853   .text.negative_excited_accel:00000000 $t
C:\Users\Lenovo\AppData\Local\Temp\ccWML6Ej.s:2858   .text.negative_excited_accel:00000000 negative_excited_accel
ARM GAS  C:\Users\Lenovo\AppData\Local\Temp\ccWML6Ej.s 			page 140


C:\Users\Lenovo\AppData\Local\Temp\ccWML6Ej.s:2946   .text.bmi08a_set_int_config:00000000 $t
C:\Users\Lenovo\AppData\Local\Temp\ccWML6Ej.s:2952   .text.bmi08a_set_int_config:00000000 bmi08a_set_int_config
C:\Users\Lenovo\AppData\Local\Temp\ccWML6Ej.s:2990   .text.bmi08a_set_int_config:0000001a $d
C:\Users\Lenovo\AppData\Local\Temp\ccWML6Ej.s:2994   .text.bmi08a_set_int_config:0000001e $t
C:\Users\Lenovo\AppData\Local\Temp\ccWML6Ej.s:3067   .text.bmi08a_get_sensor_temperature:00000000 $t
C:\Users\Lenovo\AppData\Local\Temp\ccWML6Ej.s:3073   .text.bmi08a_get_sensor_temperature:00000000 bmi08a_get_sensor_temperature
C:\Users\Lenovo\AppData\Local\Temp\ccWML6Ej.s:3195   .text.bmi08a_get_sensor_time:00000000 $t
C:\Users\Lenovo\AppData\Local\Temp\ccWML6Ej.s:3201   .text.bmi08a_get_sensor_time:00000000 bmi08a_get_sensor_time
C:\Users\Lenovo\AppData\Local\Temp\ccWML6Ej.s:3302   .text.bmi08a_get_sensor_time:00000054 $d
C:\Users\Lenovo\AppData\Local\Temp\ccWML6Ej.s:3307   .text.bmi08a_perform_selftest:00000000 $t
C:\Users\Lenovo\AppData\Local\Temp\ccWML6Ej.s:3313   .text.bmi08a_perform_selftest:00000000 bmi08a_perform_selftest
C:\Users\Lenovo\AppData\Local\Temp\ccWML6Ej.s:3435   .rodata.bmi08x_config_file:00000000 bmi08x_config_file
C:\Users\Lenovo\AppData\Local\Temp\ccWML6Ej.s:3426   .rodata:00000000 $d
C:\Users\Lenovo\AppData\Local\Temp\ccWML6Ej.s:3432   .rodata.bmi08x_config_file:00000000 $d

NO UNDEFINED SYMBOLS
