ARM GAS  C:\Users\Lenovo\AppData\Local\Temp\ccDzQdsW.s 			page 1


   1              		.cpu cortex-m3
   2              		.arch armv7-m
   3              		.fpu softvfp
   4              		.eabi_attribute 20, 1
   5              		.eabi_attribute 21, 1
   6              		.eabi_attribute 23, 3
   7              		.eabi_attribute 24, 1
   8              		.eabi_attribute 25, 1
   9              		.eabi_attribute 26, 1
  10              		.eabi_attribute 30, 1
  11              		.eabi_attribute 34, 1
  12              		.eabi_attribute 18, 4
  13              		.file	"data_pool.c"
  14              		.text
  15              	.Ltext0:
  16              		.cfi_sections	.debug_frame
  17              		.section	.text.DataPool_Init,"ax",%progbits
  18              		.align	1
  19              		.global	DataPool_Init
  20              		.syntax unified
  21              		.thumb
  22              		.thumb_func
  24              	DataPool_Init:
  25              	.LFB126:
  26              		.file 1 "application/data_pool.c"
   1:application/data_pool.c **** 
   2:application/data_pool.c **** #include "data_pool.h"
   3:application/data_pool.c **** #include "command.h"
   4:application/data_pool.c **** QueueHandle_t IMU_RxPort;
   5:application/data_pool.c **** QueueHandle_t UWB_RxPort;
   6:application/data_pool.c **** QueueHandle_t UART_TxPort;
   7:application/data_pool.c **** QueueHandle_t HIGH_RxPort;
   8:application/data_pool.c **** 
   9:application/data_pool.c **** 
  10:application/data_pool.c **** uint8_t Height[8];
  11:application/data_pool.c **** float h;
  12:application/data_pool.c **** void DataPool_Init(void)
  13:application/data_pool.c **** {
  27              		.loc 1 13 1 view -0
  28              		.cfi_startproc
  29              		@ args = 0, pretend = 0, frame = 0
  30              		@ frame_needed = 0, uses_anonymous_args = 0
  31 0000 08B5     		push	{r3, lr}
  32              	.LCFI0:
  33              		.cfi_def_cfa_offset 8
  34              		.cfi_offset 3, -8
  35              		.cfi_offset 14, -4
  14:application/data_pool.c ****     IMU_RxPort = xQueueCreate(1, sizeof(INS_t));
  36              		.loc 1 14 5 view .LVU1
  37              		.loc 1 14 18 is_stmt 0 view .LVU2
  38 0002 0022     		movs	r2, #0
  39 0004 7C21     		movs	r1, #124
  40 0006 0120     		movs	r0, #1
  41 0008 FFF7FEFF 		bl	xQueueGenericCreate
  42              	.LVL0:
  43              		.loc 1 14 16 view .LVU3
  44 000c 0B4B     		ldr	r3, .L3
ARM GAS  C:\Users\Lenovo\AppData\Local\Temp\ccDzQdsW.s 			page 2


  45 000e 1860     		str	r0, [r3]
  15:application/data_pool.c ****     UWB_RxPort = xQueueCreate(1, sizeof(UWB_Data));
  46              		.loc 1 15 5 is_stmt 1 view .LVU4
  47              		.loc 1 15 18 is_stmt 0 view .LVU5
  48 0010 0022     		movs	r2, #0
  49 0012 1821     		movs	r1, #24
  50 0014 0120     		movs	r0, #1
  51 0016 FFF7FEFF 		bl	xQueueGenericCreate
  52              	.LVL1:
  53              		.loc 1 15 16 view .LVU6
  54 001a 094B     		ldr	r3, .L3+4
  55 001c 1860     		str	r0, [r3]
  16:application/data_pool.c ****     UART_TxPort = xQueueCreate(1, sizeof(Height));
  56              		.loc 1 16 5 is_stmt 1 view .LVU7
  57              		.loc 1 16 19 is_stmt 0 view .LVU8
  58 001e 0022     		movs	r2, #0
  59 0020 0821     		movs	r1, #8
  60 0022 0120     		movs	r0, #1
  61 0024 FFF7FEFF 		bl	xQueueGenericCreate
  62              	.LVL2:
  63              		.loc 1 16 17 view .LVU9
  64 0028 064B     		ldr	r3, .L3+8
  65 002a 1860     		str	r0, [r3]
  17:application/data_pool.c ****     HIGH_RxPort = xQueueCreate(1, sizeof(float));
  66              		.loc 1 17 5 is_stmt 1 view .LVU10
  67              		.loc 1 17 19 is_stmt 0 view .LVU11
  68 002c 0022     		movs	r2, #0
  69 002e 0421     		movs	r1, #4
  70 0030 0120     		movs	r0, #1
  71 0032 FFF7FEFF 		bl	xQueueGenericCreate
  72              	.LVL3:
  73              		.loc 1 17 17 view .LVU12
  74 0036 044B     		ldr	r3, .L3+12
  75 0038 1860     		str	r0, [r3]
  18:application/data_pool.c **** }
  76              		.loc 1 18 1 view .LVU13
  77 003a 08BD     		pop	{r3, pc}
  78              	.L4:
  79              		.align	2
  80              	.L3:
  81 003c 00000000 		.word	.LANCHOR0
  82 0040 00000000 		.word	.LANCHOR1
  83 0044 00000000 		.word	.LANCHOR2
  84 0048 00000000 		.word	.LANCHOR3
  85              		.cfi_endproc
  86              	.LFE126:
  88              		.global	h
  89              		.global	Height
  90              		.global	HIGH_RxPort
  91              		.global	UART_TxPort
  92              		.global	UWB_RxPort
  93              		.global	IMU_RxPort
  94              		.section	.bss.HIGH_RxPort,"aw",%nobits
  95              		.align	2
  96              		.set	.LANCHOR3,. + 0
  99              	HIGH_RxPort:
 100 0000 00000000 		.space	4
ARM GAS  C:\Users\Lenovo\AppData\Local\Temp\ccDzQdsW.s 			page 3


 101              		.section	.bss.Height,"aw",%nobits
 102              		.align	2
 105              	Height:
 106 0000 00000000 		.space	8
 106      00000000 
 107              		.section	.bss.IMU_RxPort,"aw",%nobits
 108              		.align	2
 109              		.set	.LANCHOR0,. + 0
 112              	IMU_RxPort:
 113 0000 00000000 		.space	4
 114              		.section	.bss.UART_TxPort,"aw",%nobits
 115              		.align	2
 116              		.set	.LANCHOR2,. + 0
 119              	UART_TxPort:
 120 0000 00000000 		.space	4
 121              		.section	.bss.UWB_RxPort,"aw",%nobits
 122              		.align	2
 123              		.set	.LANCHOR1,. + 0
 126              	UWB_RxPort:
 127 0000 00000000 		.space	4
 128              		.section	.bss.h,"aw",%nobits
 129              		.align	2
 132              	h:
 133 0000 00000000 		.space	4
 134              		.text
 135              	.Letext0:
 136              		.file 2 "d:\\gnu arm embedded toolchain\\10 2021.10\\arm-none-eabi\\include\\machine\\_default_typ
 137              		.file 3 "d:\\gnu arm embedded toolchain\\10 2021.10\\arm-none-eabi\\include\\sys\\_stdint.h"
 138              		.file 4 "Middlewares/Third_Party/FreeRTOS/Source/include/queue.h"
 139              		.file 5 "application/data_pool.h"
ARM GAS  C:\Users\Lenovo\AppData\Local\Temp\ccDzQdsW.s 			page 4


DEFINED SYMBOLS
                            *ABS*:00000000 data_pool.c
C:\Users\Lenovo\AppData\Local\Temp\ccDzQdsW.s:18     .text.DataPool_Init:00000000 $t
C:\Users\Lenovo\AppData\Local\Temp\ccDzQdsW.s:24     .text.DataPool_Init:00000000 DataPool_Init
C:\Users\Lenovo\AppData\Local\Temp\ccDzQdsW.s:81     .text.DataPool_Init:0000003c $d
C:\Users\Lenovo\AppData\Local\Temp\ccDzQdsW.s:132    .bss.h:00000000 h
C:\Users\Lenovo\AppData\Local\Temp\ccDzQdsW.s:105    .bss.Height:00000000 Height
C:\Users\Lenovo\AppData\Local\Temp\ccDzQdsW.s:99     .bss.HIGH_RxPort:00000000 HIGH_RxPort
C:\Users\Lenovo\AppData\Local\Temp\ccDzQdsW.s:119    .bss.UART_TxPort:00000000 UART_TxPort
C:\Users\Lenovo\AppData\Local\Temp\ccDzQdsW.s:126    .bss.UWB_RxPort:00000000 UWB_RxPort
C:\Users\Lenovo\AppData\Local\Temp\ccDzQdsW.s:112    .bss.IMU_RxPort:00000000 IMU_RxPort
C:\Users\Lenovo\AppData\Local\Temp\ccDzQdsW.s:95     .bss.HIGH_RxPort:00000000 $d
C:\Users\Lenovo\AppData\Local\Temp\ccDzQdsW.s:102    .bss.Height:00000000 $d
C:\Users\Lenovo\AppData\Local\Temp\ccDzQdsW.s:108    .bss.IMU_RxPort:00000000 $d
C:\Users\Lenovo\AppData\Local\Temp\ccDzQdsW.s:115    .bss.UART_TxPort:00000000 $d
C:\Users\Lenovo\AppData\Local\Temp\ccDzQdsW.s:122    .bss.UWB_RxPort:00000000 $d
C:\Users\Lenovo\AppData\Local\Temp\ccDzQdsW.s:129    .bss.h:00000000 $d

UNDEFINED SYMBOLS
xQueueGenericCreate
