ARM GAS  C:\Users\Lenovo\AppData\Local\Temp\ccLh213n.s 			page 1


   1              		.cpu cortex-m3
   2              		.arch armv7-m
   3              		.fpu softvfp
   4              		.eabi_attribute 20, 1
   5              		.eabi_attribute 21, 1
   6              		.eabi_attribute 23, 3
   7              		.eabi_attribute 24, 1
   8              		.eabi_attribute 25, 1
   9              		.eabi_attribute 26, 1
  10              		.eabi_attribute 30, 1
  11              		.eabi_attribute 34, 1
  12              		.eabi_attribute 18, 4
  13              		.file	"deca_spi.c"
  14              		.text
  15              	.Ltext0:
  16              		.cfi_sections	.debug_frame
  17              		.section	.text.openspi,"ax",%progbits
  18              		.align	1
  19              		.p2align 2,,3
  20              		.global	openspi
  21              		.syntax unified
  22              		.thumb
  23              		.thumb_func
  25              	openspi:
  26              	.LFB68:
  27              		.file 1 "Drivers/platform/deca_spi.c"
   1:Drivers/platform/deca_spi.c **** /*! ----------------------------------------------------------------------------
   2:Drivers/platform/deca_spi.c ****  * @file    deca_spi.c
   3:Drivers/platform/deca_spi.c ****  * @brief   SPI access functions
   4:Drivers/platform/deca_spi.c ****  *
   5:Drivers/platform/deca_spi.c ****  * @attention
   6:Drivers/platform/deca_spi.c ****  *
   7:Drivers/platform/deca_spi.c ****  * Copyright 2015 (c) DecaWave Ltd, Dublin, Ireland.
   8:Drivers/platform/deca_spi.c ****  *
   9:Drivers/platform/deca_spi.c ****  * All rights reserved.
  10:Drivers/platform/deca_spi.c ****  *
  11:Drivers/platform/deca_spi.c ****  * @author DecaWave
  12:Drivers/platform/deca_spi.c ****  */
  13:Drivers/platform/deca_spi.c **** 
  14:Drivers/platform/deca_spi.c **** #include "deca_spi.h"
  15:Drivers/platform/deca_spi.c **** #include "deca_device_api.h"
  16:Drivers/platform/deca_spi.c **** #include "DWMport.h"
  17:Drivers/platform/deca_spi.c **** #include "stm32f1xx_hal_def.h"
  18:Drivers/platform/deca_spi.c **** #include "main.h"
  19:Drivers/platform/deca_spi.c **** 
  20:Drivers/platform/deca_spi.c **** 
  21:Drivers/platform/deca_spi.c **** extern  SPI_HandleTypeDef hspi1;    /*clocked from 72MHz*/
  22:Drivers/platform/deca_spi.c **** 
  23:Drivers/platform/deca_spi.c **** /****************************************************************************//**
  24:Drivers/platform/deca_spi.c ****  *
  25:Drivers/platform/deca_spi.c ****  *                              DW1000 SPI section
  26:Drivers/platform/deca_spi.c ****  *
  27:Drivers/platform/deca_spi.c ****  *******************************************************************************/
  28:Drivers/platform/deca_spi.c **** /*! -----------------------------------------------------------------------------------------------
  29:Drivers/platform/deca_spi.c ****  * Function: openspi()
  30:Drivers/platform/deca_spi.c ****  *
  31:Drivers/platform/deca_spi.c ****  * Low level abstract function to open and initialise access to the SPI device.
ARM GAS  C:\Users\Lenovo\AppData\Local\Temp\ccLh213n.s 			page 2


  32:Drivers/platform/deca_spi.c ****  * returns 0 for success, or -1 for error
  33:Drivers/platform/deca_spi.c ****  */
  34:Drivers/platform/deca_spi.c **** int openspi(/*SPI_TypeDef* SPIx*/)
  35:Drivers/platform/deca_spi.c **** {
  28              		.loc 1 35 1 view -0
  29              		.cfi_startproc
  30              		@ args = 0, pretend = 0, frame = 0
  31              		@ frame_needed = 0, uses_anonymous_args = 0
  32              		@ link register save eliminated.
  36:Drivers/platform/deca_spi.c ****     return 0;
  33              		.loc 1 36 5 view .LVU1
  37:Drivers/platform/deca_spi.c **** } // end openspi()
  34              		.loc 1 37 1 is_stmt 0 view .LVU2
  35 0000 0020     		movs	r0, #0
  36 0002 7047     		bx	lr
  37              		.cfi_endproc
  38              	.LFE68:
  40              		.section	.text.closespi,"ax",%progbits
  41              		.align	1
  42              		.p2align 2,,3
  43              		.global	closespi
  44              		.syntax unified
  45              		.thumb
  46              		.thumb_func
  48              	closespi:
  49              	.LFB69:
  38:Drivers/platform/deca_spi.c **** 
  39:Drivers/platform/deca_spi.c **** /*! -----------------------------------------------------------------------------------------------
  40:Drivers/platform/deca_spi.c ****  * Function: closespi()
  41:Drivers/platform/deca_spi.c ****  *
  42:Drivers/platform/deca_spi.c ****  * Low level abstract function to close the the SPI device.
  43:Drivers/platform/deca_spi.c ****  * returns 0 for success, or -1 for error
  44:Drivers/platform/deca_spi.c ****  */
  45:Drivers/platform/deca_spi.c **** int closespi(void)
  46:Drivers/platform/deca_spi.c **** {
  50              		.loc 1 46 1 is_stmt 1 view -0
  51              		.cfi_startproc
  52              		@ args = 0, pretend = 0, frame = 0
  53              		@ frame_needed = 0, uses_anonymous_args = 0
  54              		@ link register save eliminated.
  47:Drivers/platform/deca_spi.c ****     return 0;
  55              		.loc 1 47 5 view .LVU4
  48:Drivers/platform/deca_spi.c **** } // end closespi()
  56              		.loc 1 48 1 is_stmt 0 view .LVU5
  57 0000 0020     		movs	r0, #0
  58 0002 7047     		bx	lr
  59              		.cfi_endproc
  60              	.LFE69:
  62              		.section	.text.writetospi,"ax",%progbits
  63              		.align	1
  64              		.p2align 2,,3
  65              		.global	writetospi
  66              		.syntax unified
  67              		.thumb
  68              		.thumb_func
  70              	writetospi:
  71              	.LVL0:
ARM GAS  C:\Users\Lenovo\AppData\Local\Temp\ccLh213n.s 			page 3


  72              	.LFB70:
  49:Drivers/platform/deca_spi.c **** 
  50:Drivers/platform/deca_spi.c **** /*! -----------------------------------------------------------------------------------------------
  51:Drivers/platform/deca_spi.c ****  * Function: writetospi()
  52:Drivers/platform/deca_spi.c ****  *
  53:Drivers/platform/deca_spi.c ****  * Low level abstract function to write to the SPI
  54:Drivers/platform/deca_spi.c ****  * Takes two separate byte buffers for write header and write data
  55:Drivers/platform/deca_spi.c ****  * returns 0 for success
  56:Drivers/platform/deca_spi.c ****  */
  57:Drivers/platform/deca_spi.c **** #pragma GCC optimize ("O3")
  58:Drivers/platform/deca_spi.c **** int writetospi(uint16_t headerLength,
  59:Drivers/platform/deca_spi.c ****                const    uint8_t *headerBuffer,
  60:Drivers/platform/deca_spi.c ****                uint32_t bodyLength,
  61:Drivers/platform/deca_spi.c ****                const    uint8_t *bodyBuffer)
  62:Drivers/platform/deca_spi.c **** {
  73              		.loc 1 62 1 is_stmt 1 view -0
  74              		.cfi_startproc
  75              		@ args = 0, pretend = 0, frame = 0
  76              		@ frame_needed = 0, uses_anonymous_args = 0
  63:Drivers/platform/deca_spi.c ****     decaIrqStatus_t  stat ;
  77              		.loc 1 63 5 view .LVU7
  64:Drivers/platform/deca_spi.c ****     stat = decamutexon() ;
  78              		.loc 1 64 5 view .LVU8
  62:Drivers/platform/deca_spi.c ****     decaIrqStatus_t  stat ;
  79              		.loc 1 62 1 is_stmt 0 view .LVU9
  80 0000 2DE9F047 		push	{r4, r5, r6, r7, r8, r9, r10, lr}
  81              	.LCFI0:
  82              		.cfi_def_cfa_offset 32
  83              		.cfi_offset 4, -32
  84              		.cfi_offset 5, -28
  85              		.cfi_offset 6, -24
  86              		.cfi_offset 7, -20
  87              		.cfi_offset 8, -16
  88              		.cfi_offset 9, -12
  89              		.cfi_offset 10, -8
  90              		.cfi_offset 14, -4
  62:Drivers/platform/deca_spi.c ****     decaIrqStatus_t  stat ;
  91              		.loc 1 62 1 view .LVU10
  92 0004 8246     		mov	r10, r0
  93 0006 8946     		mov	r9, r1
  94 0008 1746     		mov	r7, r2
  95 000a 9846     		mov	r8, r3
  96              		.loc 1 64 12 view .LVU11
  97 000c FFF7FEFF 		bl	decamutexon
  98              	.LVL1:
  99              		.loc 1 64 12 view .LVU12
 100 0010 0646     		mov	r6, r0
 101              	.LVL2:
  65:Drivers/platform/deca_spi.c **** 
  66:Drivers/platform/deca_spi.c ****     while (HAL_SPI_GetState(&hspi1) != HAL_SPI_STATE_READY);
 102              		.loc 1 66 5 is_stmt 1 view .LVU13
 103              		.loc 1 66 12 is_stmt 0 view .LVU14
 104 0012 124D     		ldr	r5, .L8
 105              	.LVL3:
 106              	.L4:
 107              		.loc 1 66 60 is_stmt 1 discriminator 1 view .LVU15
 108              		.loc 1 66 11 discriminator 1 view .LVU16
ARM GAS  C:\Users\Lenovo\AppData\Local\Temp\ccLh213n.s 			page 4


 109              		.loc 1 66 12 is_stmt 0 discriminator 1 view .LVU17
 110 0014 2846     		mov	r0, r5
 111 0016 FFF7FEFF 		bl	HAL_SPI_GetState
 112              	.LVL4:
 113              		.loc 1 66 11 discriminator 1 view .LVU18
 114 001a 0128     		cmp	r0, #1
 115              		.loc 1 66 12 discriminator 1 view .LVU19
 116 001c 0446     		mov	r4, r0
 117              		.loc 1 66 11 discriminator 1 view .LVU20
 118 001e F9D1     		bne	.L4
  67:Drivers/platform/deca_spi.c **** 
  68:Drivers/platform/deca_spi.c ****     HAL_GPIO_WritePin(DW_NSS_GPIO_Port, DW_NSS_Pin, GPIO_PIN_RESET); /**< Put chip select line low 
 119              		.loc 1 68 5 is_stmt 1 view .LVU21
 120 0020 0022     		movs	r2, #0
 121 0022 0421     		movs	r1, #4
 122 0024 0E48     		ldr	r0, .L8+4
 123 0026 FFF7FEFF 		bl	HAL_GPIO_WritePin
 124              	.LVL5:
  69:Drivers/platform/deca_spi.c **** 
  70:Drivers/platform/deca_spi.c ****     HAL_SPI_Transmit(&hspi1, (uint8_t *)&headerBuffer[0], headerLength, HAL_MAX_DELAY);    /* Send 
 125              		.loc 1 70 5 view .LVU22
 126 002a 5246     		mov	r2, r10
 127 002c 4946     		mov	r1, r9
 128 002e 4FF0FF33 		mov	r3, #-1
 129 0032 0A48     		ldr	r0, .L8
 130 0034 FFF7FEFF 		bl	HAL_SPI_Transmit
 131              	.LVL6:
  71:Drivers/platform/deca_spi.c ****     HAL_SPI_Transmit(&hspi1, (uint8_t *)&bodyBuffer[0], bodyLength, HAL_MAX_DELAY);        /* Send 
 132              		.loc 1 71 5 view .LVU23
 133 0038 4FF0FF33 		mov	r3, #-1
 134 003c 4146     		mov	r1, r8
 135 003e BAB2     		uxth	r2, r7
 136 0040 0648     		ldr	r0, .L8
 137 0042 FFF7FEFF 		bl	HAL_SPI_Transmit
 138              	.LVL7:
  72:Drivers/platform/deca_spi.c **** 
  73:Drivers/platform/deca_spi.c ****     HAL_GPIO_WritePin(DW_NSS_GPIO_Port, DW_NSS_Pin, GPIO_PIN_SET); /**< Put chip select line high *
 139              		.loc 1 73 5 view .LVU24
 140 0046 2246     		mov	r2, r4
 141 0048 0421     		movs	r1, #4
 142 004a 0548     		ldr	r0, .L8+4
 143 004c FFF7FEFF 		bl	HAL_GPIO_WritePin
 144              	.LVL8:
  74:Drivers/platform/deca_spi.c **** 
  75:Drivers/platform/deca_spi.c ****     decamutexoff(stat);
 145              		.loc 1 75 5 view .LVU25
 146 0050 3046     		mov	r0, r6
 147 0052 FFF7FEFF 		bl	decamutexoff
 148              	.LVL9:
  76:Drivers/platform/deca_spi.c **** 
  77:Drivers/platform/deca_spi.c ****     return 0;
 149              		.loc 1 77 5 view .LVU26
  78:Drivers/platform/deca_spi.c **** } // end writetospi()
 150              		.loc 1 78 1 is_stmt 0 view .LVU27
 151 0056 0020     		movs	r0, #0
 152 0058 BDE8F087 		pop	{r4, r5, r6, r7, r8, r9, r10, pc}
 153              	.LVL10:
ARM GAS  C:\Users\Lenovo\AppData\Local\Temp\ccLh213n.s 			page 5


 154              	.L9:
 155              		.loc 1 78 1 view .LVU28
 156              		.align	2
 157              	.L8:
 158 005c 00000000 		.word	hspi1
 159 0060 00080140 		.word	1073809408
 160              		.cfi_endproc
 161              	.LFE70:
 163              		.section	.text.readfromspi,"ax",%progbits
 164              		.align	1
 165              		.p2align 2,,3
 166              		.global	readfromspi
 167              		.syntax unified
 168              		.thumb
 169              		.thumb_func
 171              	readfromspi:
 172              	.LVL11:
 173              	.LFB71:
  79:Drivers/platform/deca_spi.c **** 
  80:Drivers/platform/deca_spi.c **** 
  81:Drivers/platform/deca_spi.c **** /*! -----------------------------------------------------------------------------------------------
  82:Drivers/platform/deca_spi.c ****  * Function: readfromspi()
  83:Drivers/platform/deca_spi.c ****  *
  84:Drivers/platform/deca_spi.c ****  * Low level abstract function to read from the SPI
  85:Drivers/platform/deca_spi.c ****  * Takes two separate byte buffers for write header and read data
  86:Drivers/platform/deca_spi.c ****  * returns the offset into read buffer where first byte of read data may be found,
  87:Drivers/platform/deca_spi.c ****  * or returns 0
  88:Drivers/platform/deca_spi.c ****  */
  89:Drivers/platform/deca_spi.c **** #pragma GCC optimize ("O3")
  90:Drivers/platform/deca_spi.c **** int readfromspi(uint16_t headerLength,
  91:Drivers/platform/deca_spi.c ****                 const uint8_t *headerBuffer,
  92:Drivers/platform/deca_spi.c ****                 uint32_t readlength,
  93:Drivers/platform/deca_spi.c ****                 uint8_t *readBuffer)
  94:Drivers/platform/deca_spi.c **** {
 174              		.loc 1 94 1 is_stmt 1 view -0
 175              		.cfi_startproc
 176              		@ args = 0, pretend = 0, frame = 0
 177              		@ frame_needed = 0, uses_anonymous_args = 0
 178              		.loc 1 94 1 is_stmt 0 view .LVU30
 179 0000 2DE9F843 		push	{r3, r4, r5, r6, r7, r8, r9, lr}
 180              	.LCFI1:
 181              		.cfi_def_cfa_offset 32
 182              		.cfi_offset 3, -32
 183              		.cfi_offset 4, -28
 184              		.cfi_offset 5, -24
 185              		.cfi_offset 6, -20
 186              		.cfi_offset 7, -16
 187              		.cfi_offset 8, -12
 188              		.cfi_offset 9, -8
 189              		.cfi_offset 14, -4
 190              		.loc 1 94 1 view .LVU31
 191 0004 8046     		mov	r8, r0
 192 0006 0C46     		mov	r4, r1
  95:Drivers/platform/deca_spi.c ****     int i;
 193              		.loc 1 95 5 is_stmt 1 view .LVU32
  96:Drivers/platform/deca_spi.c ****     decaIrqStatus_t  stat ;
 194              		.loc 1 96 5 view .LVU33
ARM GAS  C:\Users\Lenovo\AppData\Local\Temp\ccLh213n.s 			page 6


  97:Drivers/platform/deca_spi.c ****     stat = decamutexon() ;
 195              		.loc 1 97 5 view .LVU34
  94:Drivers/platform/deca_spi.c ****     int i;
 196              		.loc 1 94 1 is_stmt 0 view .LVU35
 197 0008 1746     		mov	r7, r2
 198 000a 1D46     		mov	r5, r3
 199              		.loc 1 97 12 view .LVU36
 200 000c FFF7FEFF 		bl	decamutexon
 201              	.LVL12:
 202              		.loc 1 97 12 view .LVU37
 203 0010 0646     		mov	r6, r0
 204              	.LVL13:
  98:Drivers/platform/deca_spi.c **** 
  99:Drivers/platform/deca_spi.c ****     /* Blocking: Check whether previous transfer has been finished */
 100:Drivers/platform/deca_spi.c ****     while (HAL_SPI_GetState(&hspi1) != HAL_SPI_STATE_READY);
 205              		.loc 1 100 5 is_stmt 1 view .LVU38
 206              		.loc 1 100 12 is_stmt 0 view .LVU39
 207 0012 DFF87490 		ldr	r9, .L32
 208              	.LVL14:
 209              	.L11:
 210              		.loc 1 100 60 is_stmt 1 discriminator 1 view .LVU40
 211              		.loc 1 100 11 discriminator 1 view .LVU41
 212              		.loc 1 100 12 is_stmt 0 discriminator 1 view .LVU42
 213 0016 4846     		mov	r0, r9
 214 0018 FFF7FEFF 		bl	HAL_SPI_GetState
 215              	.LVL15:
 216              		.loc 1 100 11 discriminator 1 view .LVU43
 217 001c 0128     		cmp	r0, #1
 218 001e FAD1     		bne	.L11
 101:Drivers/platform/deca_spi.c **** 
 102:Drivers/platform/deca_spi.c ****     HAL_GPIO_WritePin(DW_NSS_GPIO_Port, DW_NSS_Pin, GPIO_PIN_RESET); /**< Put chip select line low 
 219              		.loc 1 102 5 is_stmt 1 view .LVU44
 220 0020 0022     		movs	r2, #0
 221 0022 0421     		movs	r1, #4
 222 0024 1948     		ldr	r0, .L32+4
 223 0026 FFF7FEFF 		bl	HAL_GPIO_WritePin
 224              	.LVL16:
 103:Drivers/platform/deca_spi.c **** 
 104:Drivers/platform/deca_spi.c ****     /* Send header */
 105:Drivers/platform/deca_spi.c ****     for(i=0; i<headerLength; i++)
 225              		.loc 1 105 5 view .LVU45
 226              		.loc 1 105 14 view .LVU46
 227              		.loc 1 105 5 is_stmt 0 view .LVU47
 228 002a B8F1000F 		cmp	r8, #0
 229 002e 0CD0     		beq	.L12
 106:Drivers/platform/deca_spi.c ****     {
 107:Drivers/platform/deca_spi.c ****         HAL_SPI_Transmit(&hspi1, &headerBuffer[i], 1, HAL_MAX_DELAY); //No timeout
 230              		.loc 1 107 9 view .LVU48
 231 0030 DFF85490 		ldr	r9, .L32
 232 0034 A044     		add	r8, r8, r4
 233              	.LVL17:
 234              	.L13:
 235              		.loc 1 107 9 is_stmt 1 discriminator 3 view .LVU49
 236 0036 0122     		movs	r2, #1
 237 0038 2146     		mov	r1, r4
 238 003a 4FF0FF33 		mov	r3, #-1
 105:Drivers/platform/deca_spi.c ****     {
ARM GAS  C:\Users\Lenovo\AppData\Local\Temp\ccLh213n.s 			page 7


 239              		.loc 1 105 5 is_stmt 0 discriminator 3 view .LVU50
 240 003e 1444     		add	r4, r4, r2
 241              	.LVL18:
 242              		.loc 1 107 9 discriminator 3 view .LVU51
 243 0040 4846     		mov	r0, r9
 244 0042 FFF7FEFF 		bl	HAL_SPI_Transmit
 245              	.LVL19:
 105:Drivers/platform/deca_spi.c ****     {
 246              		.loc 1 105 30 is_stmt 1 discriminator 3 view .LVU52
 105:Drivers/platform/deca_spi.c ****     {
 247              		.loc 1 105 14 discriminator 3 view .LVU53
 105:Drivers/platform/deca_spi.c ****     {
 248              		.loc 1 105 5 is_stmt 0 discriminator 3 view .LVU54
 249 0046 4445     		cmp	r4, r8
 250 0048 F5D1     		bne	.L13
 251              	.L12:
 108:Drivers/platform/deca_spi.c ****     }
 109:Drivers/platform/deca_spi.c **** 
 110:Drivers/platform/deca_spi.c ****     /* for the data buffer use LL functions directly as the HAL SPI read function
 111:Drivers/platform/deca_spi.c ****      * has issue reading single bytes */
 112:Drivers/platform/deca_spi.c ****     while(readlength-- > 0)
 252              		.loc 1 112 10 is_stmt 1 view .LVU55
 253              	.LVL20:
 254              		.loc 1 112 10 is_stmt 0 view .LVU56
 255 004a 8FB1     		cbz	r7, .L14
 113:Drivers/platform/deca_spi.c ****     {
 114:Drivers/platform/deca_spi.c ****         /* Wait until TXE flag is set to send data */
 115:Drivers/platform/deca_spi.c ****         while(__HAL_SPI_GET_FLAG(&hspi1, SPI_FLAG_TXE) == RESET)
 116:Drivers/platform/deca_spi.c ****         {
 117:Drivers/platform/deca_spi.c ****         }
 118:Drivers/platform/deca_spi.c **** 
 119:Drivers/platform/deca_spi.c ****         hspi1.Instance->DR = 0; /* set output to 0 (MOSI), this is necessary for
 256              		.loc 1 119 28 view .LVU57
 257 004c 4FF0000C 		mov	ip, #0
 258 0050 0D4C     		ldr	r4, .L32
 259 0052 E819     		adds	r0, r5, r7
 260              	.LVL21:
 261              	.L17:
 115:Drivers/platform/deca_spi.c ****         {
 262              		.loc 1 115 15 view .LVU58
 263 0054 2268     		ldr	r2, [r4]
 264              	.L15:
 117:Drivers/platform/deca_spi.c **** 
 265              		.loc 1 117 9 is_stmt 1 discriminator 1 view .LVU59
 115:Drivers/platform/deca_spi.c ****         {
 266              		.loc 1 115 14 discriminator 1 view .LVU60
 115:Drivers/platform/deca_spi.c ****         {
 267              		.loc 1 115 15 is_stmt 0 discriminator 1 view .LVU61
 268 0056 9168     		ldr	r1, [r2, #8]
 115:Drivers/platform/deca_spi.c ****         {
 269              		.loc 1 115 14 discriminator 1 view .LVU62
 270 0058 8907     		lsls	r1, r1, #30
 271 005a FCD5     		bpl	.L15
 272              		.loc 1 119 9 is_stmt 1 view .LVU63
 273              		.loc 1 119 28 is_stmt 0 view .LVU64
 274 005c C2F80CC0 		str	ip, [r2, #12]
 120:Drivers/platform/deca_spi.c ****         e.g. when waking up DW1000 from DEEPSLEEP via dwt_spicswakeup() function.
ARM GAS  C:\Users\Lenovo\AppData\Local\Temp\ccLh213n.s 			page 8


 121:Drivers/platform/deca_spi.c ****         */
 122:Drivers/platform/deca_spi.c **** 
 123:Drivers/platform/deca_spi.c ****         /* Wait until RXNE flag is set to read data */
 124:Drivers/platform/deca_spi.c ****         while(__HAL_SPI_GET_FLAG(&hspi1, SPI_FLAG_RXNE) == RESET)
 275              		.loc 1 124 9 is_stmt 1 view .LVU65
 276              	.L16:
 125:Drivers/platform/deca_spi.c ****         {
 126:Drivers/platform/deca_spi.c ****         }
 277              		.loc 1 126 9 discriminator 1 view .LVU66
 124:Drivers/platform/deca_spi.c ****         {
 278              		.loc 1 124 14 discriminator 1 view .LVU67
 124:Drivers/platform/deca_spi.c ****         {
 279              		.loc 1 124 15 is_stmt 0 discriminator 1 view .LVU68
 280 0060 9168     		ldr	r1, [r2, #8]
 124:Drivers/platform/deca_spi.c ****         {
 281              		.loc 1 124 14 discriminator 1 view .LVU69
 282 0062 CB07     		lsls	r3, r1, #31
 283 0064 FCD5     		bpl	.L16
 127:Drivers/platform/deca_spi.c **** 
 128:Drivers/platform/deca_spi.c ****         (*readBuffer++) = hspi1.Instance->DR;  //copy data read form (MISO)
 284              		.loc 1 128 9 is_stmt 1 view .LVU70
 285              		.loc 1 128 41 is_stmt 0 view .LVU71
 286 0066 D368     		ldr	r3, [r2, #12]
 287              	.LVL22:
 288              		.loc 1 128 25 view .LVU72
 289 0068 05F8013B 		strb	r3, [r5], #1
 290              	.LVL23:
 112:Drivers/platform/deca_spi.c ****     {
 291              		.loc 1 112 10 is_stmt 1 view .LVU73
 112:Drivers/platform/deca_spi.c ****     {
 292              		.loc 1 112 10 is_stmt 0 view .LVU74
 293 006c 8542     		cmp	r5, r0
 294 006e F1D1     		bne	.L17
 295              	.LVL24:
 296              	.L14:
 129:Drivers/platform/deca_spi.c ****     }
 130:Drivers/platform/deca_spi.c **** 
 131:Drivers/platform/deca_spi.c ****     HAL_GPIO_WritePin(DW_NSS_GPIO_Port, DW_NSS_Pin, GPIO_PIN_SET); /**< Put chip select line high *
 297              		.loc 1 131 5 is_stmt 1 view .LVU75
 298 0070 0122     		movs	r2, #1
 299 0072 0421     		movs	r1, #4
 300 0074 0548     		ldr	r0, .L32+4
 301 0076 FFF7FEFF 		bl	HAL_GPIO_WritePin
 302              	.LVL25:
 132:Drivers/platform/deca_spi.c **** 
 133:Drivers/platform/deca_spi.c ****     decamutexoff(stat);
 303              		.loc 1 133 5 view .LVU76
 304 007a 3046     		mov	r0, r6
 305 007c FFF7FEFF 		bl	decamutexoff
 306              	.LVL26:
 134:Drivers/platform/deca_spi.c **** 
 135:Drivers/platform/deca_spi.c ****     return 0;
 307              		.loc 1 135 5 view .LVU77
 136:Drivers/platform/deca_spi.c **** } // end readfromspi()
 308              		.loc 1 136 1 is_stmt 0 view .LVU78
 309 0080 0020     		movs	r0, #0
 310 0082 BDE8F883 		pop	{r3, r4, r5, r6, r7, r8, r9, pc}
ARM GAS  C:\Users\Lenovo\AppData\Local\Temp\ccLh213n.s 			page 9


 311              	.LVL27:
 312              	.L33:
 313              		.loc 1 136 1 view .LVU79
 314 0086 00BF     		.align	2
 315              	.L32:
 316 0088 00000000 		.word	hspi1
 317 008c 00080140 		.word	1073809408
 318              		.cfi_endproc
 319              	.LFE71:
 321              		.text
 322              	.Letext0:
 323              		.file 2 "d:\\gnu arm embedded toolchain\\10 2021.10\\arm-none-eabi\\include\\machine\\_default_typ
 324              		.file 3 "d:\\gnu arm embedded toolchain\\10 2021.10\\arm-none-eabi\\include\\sys\\_stdint.h"
 325              		.file 4 "Drivers/CMSIS/Device/ST/STM32F1xx/Include/stm32f103xb.h"
 326              		.file 5 "Drivers/CMSIS/Device/ST/STM32F1xx/Include/stm32f1xx.h"
 327              		.file 6 "Drivers/STM32F1xx_HAL_Driver/Inc/stm32f1xx_hal_def.h"
 328              		.file 7 "Drivers/STM32F1xx_HAL_Driver/Inc/stm32f1xx_hal_gpio.h"
 329              		.file 8 "Drivers/STM32F1xx_HAL_Driver/Inc/stm32f1xx_hal_dma.h"
 330              		.file 9 "Drivers/STM32F1xx_HAL_Driver/Inc/stm32f1xx_hal_spi.h"
 331              		.file 10 "Drivers/decadriver/deca_device_api.h"
ARM GAS  C:\Users\Lenovo\AppData\Local\Temp\ccLh213n.s 			page 10

