ARM GAS  C:\Users\Lenovo\AppData\Local\Temp\ccECE13t.s 			page 1


   1              		.cpu cortex-m3
   2              		.arch armv7-m
   3              		.fpu softvfp
   4              		.eabi_attribute 20, 1
   5              		.eabi_attribute 21, 1
   6              		.eabi_attribute 23, 3
   7              		.eabi_attribute 24, 1
   8              		.eabi_attribute 25, 1
   9              		.eabi_attribute 26, 1
  10              		.eabi_attribute 30, 1
  11              		.eabi_attribute 34, 1
  12              		.eabi_attribute 18, 4
  13              		.file	"freertos.c"
  14              		.section	.rodata.str1.4,"aMS",%progbits,1
  15              		.align	2
  16              	.LC0:
  17 0000 64656661 		.ascii	"defaultTask\000"
  17      756C7454 
  17      61736B00 
  18              		.text
  19              	.Ltext0:
  20              		.cfi_sections	.debug_frame
  21              		.section	.text.StartDefaultTask,"ax",%progbits
  22              		.align	1
  23              		.global	StartDefaultTask
  24              		.syntax unified
  25              		.thumb
  26              		.thumb_func
  28              	StartDefaultTask:
  29              	.LFB72:
  30              		.file 1 "Core/Src/freertos.c"
   1:Core/Src/freertos.c **** /* USER CODE BEGIN Header */
   2:Core/Src/freertos.c **** /**
   3:Core/Src/freertos.c ****   ******************************************************************************
   4:Core/Src/freertos.c ****   * File Name          : freertos.c
   5:Core/Src/freertos.c ****   * Description        : Code for freertos applications
   6:Core/Src/freertos.c ****   ******************************************************************************
   7:Core/Src/freertos.c ****   * @attention
   8:Core/Src/freertos.c ****   *
   9:Core/Src/freertos.c ****   * Copyright (c) 2024 STMicroelectronics.
  10:Core/Src/freertos.c ****   * All rights reserved.
  11:Core/Src/freertos.c ****   *
  12:Core/Src/freertos.c ****   * This software is licensed under terms that can be found in the LICENSE file
  13:Core/Src/freertos.c ****   * in the root directory of this software component.
  14:Core/Src/freertos.c ****   * If no LICENSE file comes with this software, it is provided AS-IS.
  15:Core/Src/freertos.c ****   *
  16:Core/Src/freertos.c ****   ******************************************************************************
  17:Core/Src/freertos.c ****   */
  18:Core/Src/freertos.c **** /* USER CODE END Header */
  19:Core/Src/freertos.c **** 
  20:Core/Src/freertos.c **** /* Includes ------------------------------------------------------------------*/
  21:Core/Src/freertos.c **** #include "FreeRTOS.h"
  22:Core/Src/freertos.c **** #include "task.h"
  23:Core/Src/freertos.c **** #include "main.h"
  24:Core/Src/freertos.c **** #include "cmsis_os.h"
  25:Core/Src/freertos.c **** 
  26:Core/Src/freertos.c **** /* Private includes ----------------------------------------------------------*/
ARM GAS  C:\Users\Lenovo\AppData\Local\Temp\ccECE13t.s 			page 2


  27:Core/Src/freertos.c **** /* USER CODE BEGIN Includes */
  28:Core/Src/freertos.c **** 
  29:Core/Src/freertos.c **** /* USER CODE END Includes */
  30:Core/Src/freertos.c **** 
  31:Core/Src/freertos.c **** /* Private typedef -----------------------------------------------------------*/
  32:Core/Src/freertos.c **** /* USER CODE BEGIN PTD */
  33:Core/Src/freertos.c **** 
  34:Core/Src/freertos.c **** /* USER CODE END PTD */
  35:Core/Src/freertos.c **** 
  36:Core/Src/freertos.c **** /* Private define ------------------------------------------------------------*/
  37:Core/Src/freertos.c **** /* USER CODE BEGIN PD */
  38:Core/Src/freertos.c **** 
  39:Core/Src/freertos.c **** /* USER CODE END PD */
  40:Core/Src/freertos.c **** 
  41:Core/Src/freertos.c **** /* Private macro -------------------------------------------------------------*/
  42:Core/Src/freertos.c **** /* USER CODE BEGIN PM */
  43:Core/Src/freertos.c **** 
  44:Core/Src/freertos.c **** /* USER CODE END PM */
  45:Core/Src/freertos.c **** 
  46:Core/Src/freertos.c **** /* Private variables ---------------------------------------------------------*/
  47:Core/Src/freertos.c **** /* USER CODE BEGIN Variables */
  48:Core/Src/freertos.c **** 
  49:Core/Src/freertos.c **** /* USER CODE END Variables */
  50:Core/Src/freertos.c **** osThreadId defaultTaskHandle;
  51:Core/Src/freertos.c **** 
  52:Core/Src/freertos.c **** /* Private function prototypes -----------------------------------------------*/
  53:Core/Src/freertos.c **** /* USER CODE BEGIN FunctionPrototypes */
  54:Core/Src/freertos.c **** 
  55:Core/Src/freertos.c **** /* USER CODE END FunctionPrototypes */
  56:Core/Src/freertos.c **** 
  57:Core/Src/freertos.c **** void StartDefaultTask(void const * argument);
  58:Core/Src/freertos.c **** 
  59:Core/Src/freertos.c **** void MX_FREERTOS_Init(void); /* (MISRA C 2004 rule 8.1) */
  60:Core/Src/freertos.c **** 
  61:Core/Src/freertos.c **** /* GetIdleTaskMemory prototype (linked to static allocation support) */
  62:Core/Src/freertos.c **** void vApplicationGetIdleTaskMemory( StaticTask_t **ppxIdleTaskTCBBuffer, StackType_t **ppxIdleTaskS
  63:Core/Src/freertos.c **** 
  64:Core/Src/freertos.c **** /* USER CODE BEGIN GET_IDLE_TASK_MEMORY */
  65:Core/Src/freertos.c **** static StaticTask_t xIdleTaskTCBBuffer;
  66:Core/Src/freertos.c **** static StackType_t xIdleStack[configMINIMAL_STACK_SIZE];
  67:Core/Src/freertos.c **** 
  68:Core/Src/freertos.c **** void vApplicationGetIdleTaskMemory( StaticTask_t **ppxIdleTaskTCBBuffer, StackType_t **ppxIdleTaskS
  69:Core/Src/freertos.c **** {
  70:Core/Src/freertos.c ****   *ppxIdleTaskTCBBuffer = &xIdleTaskTCBBuffer;
  71:Core/Src/freertos.c ****   *ppxIdleTaskStackBuffer = &xIdleStack[0];
  72:Core/Src/freertos.c ****   *pulIdleTaskStackSize = configMINIMAL_STACK_SIZE;
  73:Core/Src/freertos.c ****   /* place for user code */
  74:Core/Src/freertos.c **** }
  75:Core/Src/freertos.c **** /* USER CODE END GET_IDLE_TASK_MEMORY */
  76:Core/Src/freertos.c **** 
  77:Core/Src/freertos.c **** /**
  78:Core/Src/freertos.c ****   * @brief  FreeRTOS initialization
  79:Core/Src/freertos.c ****   * @param  None
  80:Core/Src/freertos.c ****   * @retval None
  81:Core/Src/freertos.c ****   */
  82:Core/Src/freertos.c **** void MX_FREERTOS_Init(void) {
  83:Core/Src/freertos.c ****   /* USER CODE BEGIN Init */
ARM GAS  C:\Users\Lenovo\AppData\Local\Temp\ccECE13t.s 			page 3


  84:Core/Src/freertos.c **** 
  85:Core/Src/freertos.c ****   /* USER CODE END Init */
  86:Core/Src/freertos.c **** 
  87:Core/Src/freertos.c ****   /* USER CODE BEGIN RTOS_MUTEX */
  88:Core/Src/freertos.c ****   /* add mutexes, ... */
  89:Core/Src/freertos.c ****   /* USER CODE END RTOS_MUTEX */
  90:Core/Src/freertos.c **** 
  91:Core/Src/freertos.c ****   /* USER CODE BEGIN RTOS_SEMAPHORES */
  92:Core/Src/freertos.c ****   /* add semaphores, ... */
  93:Core/Src/freertos.c ****   /* USER CODE END RTOS_SEMAPHORES */
  94:Core/Src/freertos.c **** 
  95:Core/Src/freertos.c ****   /* USER CODE BEGIN RTOS_TIMERS */
  96:Core/Src/freertos.c ****   /* start timers, add new ones, ... */
  97:Core/Src/freertos.c ****   /* USER CODE END RTOS_TIMERS */
  98:Core/Src/freertos.c **** 
  99:Core/Src/freertos.c ****   /* USER CODE BEGIN RTOS_QUEUES */
 100:Core/Src/freertos.c ****   /* add queues, ... */
 101:Core/Src/freertos.c ****   /* USER CODE END RTOS_QUEUES */
 102:Core/Src/freertos.c **** 
 103:Core/Src/freertos.c ****   /* Create the thread(s) */
 104:Core/Src/freertos.c ****   /* definition and creation of defaultTask */
 105:Core/Src/freertos.c ****   osThreadDef(defaultTask, StartDefaultTask, osPriorityNormal, 0, 128);
 106:Core/Src/freertos.c ****   defaultTaskHandle = osThreadCreate(osThread(defaultTask), NULL);
 107:Core/Src/freertos.c **** 
 108:Core/Src/freertos.c ****   /* USER CODE BEGIN RTOS_THREADS */
 109:Core/Src/freertos.c ****   /* add threads, ... */
 110:Core/Src/freertos.c ****   /* USER CODE END RTOS_THREADS */
 111:Core/Src/freertos.c **** 
 112:Core/Src/freertos.c **** }
 113:Core/Src/freertos.c **** 
 114:Core/Src/freertos.c **** /* USER CODE BEGIN Header_StartDefaultTask */
 115:Core/Src/freertos.c **** /**
 116:Core/Src/freertos.c ****   * @brief  Function implementing the defaultTask thread.
 117:Core/Src/freertos.c ****   * @param  argument: Not used
 118:Core/Src/freertos.c ****   * @retval None
 119:Core/Src/freertos.c ****   */
 120:Core/Src/freertos.c **** /* USER CODE END Header_StartDefaultTask */
 121:Core/Src/freertos.c **** void StartDefaultTask(void const * argument)
 122:Core/Src/freertos.c **** {
  31              		.loc 1 122 1 view -0
  32              		.cfi_startproc
  33              		@ Volatile: function does not return.
  34              		@ args = 0, pretend = 0, frame = 0
  35              		@ frame_needed = 0, uses_anonymous_args = 0
  36              	.LVL0:
  37              		.loc 1 122 1 is_stmt 0 view .LVU1
  38 0000 08B5     		push	{r3, lr}
  39              	.LCFI0:
  40              		.cfi_def_cfa_offset 8
  41              		.cfi_offset 3, -8
  42              		.cfi_offset 14, -4
  43              	.LVL1:
  44              	.L2:
 123:Core/Src/freertos.c ****   /* USER CODE BEGIN StartDefaultTask */
 124:Core/Src/freertos.c ****   /* Infinite loop */
 125:Core/Src/freertos.c ****   for(;;)
  45              		.loc 1 125 3 is_stmt 1 discriminator 1 view .LVU2
ARM GAS  C:\Users\Lenovo\AppData\Local\Temp\ccECE13t.s 			page 4


 126:Core/Src/freertos.c ****   {
 127:Core/Src/freertos.c ****     osThreadTerminate(defaultTaskHandle);
  46              		.loc 1 127 5 discriminator 1 view .LVU3
  47 0002 044B     		ldr	r3, .L4
  48 0004 1868     		ldr	r0, [r3]
  49 0006 FFF7FEFF 		bl	osThreadTerminate
  50              	.LVL2:
 128:Core/Src/freertos.c **** 
 129:Core/Src/freertos.c ****     osDelay(100);
  51              		.loc 1 129 5 discriminator 1 view .LVU4
  52 000a 6420     		movs	r0, #100
  53 000c FFF7FEFF 		bl	osDelay
  54              	.LVL3:
 125:Core/Src/freertos.c ****   {
  55              		.loc 1 125 8 discriminator 1 view .LVU5
  56 0010 F7E7     		b	.L2
  57              	.L5:
  58 0012 00BF     		.align	2
  59              	.L4:
  60 0014 00000000 		.word	.LANCHOR0
  61              		.cfi_endproc
  62              	.LFE72:
  64              		.section	.text.vApplicationGetIdleTaskMemory,"ax",%progbits
  65              		.align	1
  66              		.global	vApplicationGetIdleTaskMemory
  67              		.syntax unified
  68              		.thumb
  69              		.thumb_func
  71              	vApplicationGetIdleTaskMemory:
  72              	.LVL4:
  73              	.LFB70:
  69:Core/Src/freertos.c ****   *ppxIdleTaskTCBBuffer = &xIdleTaskTCBBuffer;
  74              		.loc 1 69 1 view -0
  75              		.cfi_startproc
  76              		@ args = 0, pretend = 0, frame = 0
  77              		@ frame_needed = 0, uses_anonymous_args = 0
  78              		@ link register save eliminated.
  70:Core/Src/freertos.c ****   *ppxIdleTaskStackBuffer = &xIdleStack[0];
  79              		.loc 1 70 3 view .LVU7
  70:Core/Src/freertos.c ****   *ppxIdleTaskStackBuffer = &xIdleStack[0];
  80              		.loc 1 70 25 is_stmt 0 view .LVU8
  81 0000 034B     		ldr	r3, .L7
  82 0002 0360     		str	r3, [r0]
  71:Core/Src/freertos.c ****   *pulIdleTaskStackSize = configMINIMAL_STACK_SIZE;
  83              		.loc 1 71 3 is_stmt 1 view .LVU9
  71:Core/Src/freertos.c ****   *pulIdleTaskStackSize = configMINIMAL_STACK_SIZE;
  84              		.loc 1 71 27 is_stmt 0 view .LVU10
  85 0004 034B     		ldr	r3, .L7+4
  86 0006 0B60     		str	r3, [r1]
  72:Core/Src/freertos.c ****   /* place for user code */
  87              		.loc 1 72 3 is_stmt 1 view .LVU11
  72:Core/Src/freertos.c ****   /* place for user code */
  88              		.loc 1 72 25 is_stmt 0 view .LVU12
  89 0008 8023     		movs	r3, #128
  90 000a 1360     		str	r3, [r2]
  74:Core/Src/freertos.c **** /* USER CODE END GET_IDLE_TASK_MEMORY */
  91              		.loc 1 74 1 view .LVU13
ARM GAS  C:\Users\Lenovo\AppData\Local\Temp\ccECE13t.s 			page 5


  92 000c 7047     		bx	lr
  93              	.L8:
  94 000e 00BF     		.align	2
  95              	.L7:
  96 0010 00000000 		.word	.LANCHOR1
  97 0014 00000000 		.word	.LANCHOR2
  98              		.cfi_endproc
  99              	.LFE70:
 101              		.section	.text.MX_FREERTOS_Init,"ax",%progbits
 102              		.align	1
 103              		.global	MX_FREERTOS_Init
 104              		.syntax unified
 105              		.thumb
 106              		.thumb_func
 108              	MX_FREERTOS_Init:
 109              	.LFB71:
  82:Core/Src/freertos.c ****   /* USER CODE BEGIN Init */
 110              		.loc 1 82 29 is_stmt 1 view -0
 111              		.cfi_startproc
 112              		@ args = 0, pretend = 0, frame = 32
 113              		@ frame_needed = 0, uses_anonymous_args = 0
 114 0000 10B5     		push	{r4, lr}
 115              	.LCFI1:
 116              		.cfi_def_cfa_offset 8
 117              		.cfi_offset 4, -8
 118              		.cfi_offset 14, -4
 119 0002 88B0     		sub	sp, sp, #32
 120              	.LCFI2:
 121              		.cfi_def_cfa_offset 40
 105:Core/Src/freertos.c ****   defaultTaskHandle = osThreadCreate(osThread(defaultTask), NULL);
 122              		.loc 1 105 3 view .LVU15
 123 0004 0DF1040C 		add	ip, sp, #4
 124 0008 074C     		ldr	r4, .L11
 125 000a 0FCC     		ldmia	r4!, {r0, r1, r2, r3}
 126 000c ACE80F00 		stmia	ip!, {r0, r1, r2, r3}
 127 0010 94E80700 		ldm	r4, {r0, r1, r2}
 128 0014 8CE80700 		stm	ip, {r0, r1, r2}
 106:Core/Src/freertos.c **** 
 129              		.loc 1 106 3 view .LVU16
 106:Core/Src/freertos.c **** 
 130              		.loc 1 106 23 is_stmt 0 view .LVU17
 131 0018 0021     		movs	r1, #0
 132 001a 01A8     		add	r0, sp, #4
 133 001c FFF7FEFF 		bl	osThreadCreate
 134              	.LVL5:
 106:Core/Src/freertos.c **** 
 135              		.loc 1 106 21 view .LVU18
 136 0020 024B     		ldr	r3, .L11+4
 137 0022 1860     		str	r0, [r3]
 112:Core/Src/freertos.c **** 
 138              		.loc 1 112 1 view .LVU19
 139 0024 08B0     		add	sp, sp, #32
 140              	.LCFI3:
 141              		.cfi_def_cfa_offset 8
 142              		@ sp needed
 143 0026 10BD     		pop	{r4, pc}
 144              	.L12:
ARM GAS  C:\Users\Lenovo\AppData\Local\Temp\ccECE13t.s 			page 6


 145              		.align	2
 146              	.L11:
 147 0028 00000000 		.word	.LANCHOR3
 148 002c 00000000 		.word	.LANCHOR0
 149              		.cfi_endproc
 150              	.LFE71:
 152              		.global	defaultTaskHandle
 153              		.section	.rodata
 154              		.align	2
 155              		.set	.LANCHOR3,. + 0
 156              	.LC2:
 157 0000 00000000 		.word	.LC0
 158 0004 00000000 		.word	StartDefaultTask
 159 0008 0000     		.short	0
 160 000a 0000     		.space	2
 161 000c 00000000 		.word	0
 162 0010 80000000 		.word	128
 163 0014 00000000 		.word	0
 164 0018 00000000 		.word	0
 165              		.section	.bss.defaultTaskHandle,"aw",%nobits
 166              		.align	2
 167              		.set	.LANCHOR0,. + 0
 170              	defaultTaskHandle:
 171 0000 00000000 		.space	4
 172              		.section	.bss.xIdleStack,"aw",%nobits
 173              		.align	2
 174              		.set	.LANCHOR2,. + 0
 177              	xIdleStack:
 178 0000 00000000 		.space	512
 178      00000000 
 178      00000000 
 178      00000000 
 178      00000000 
 179              		.section	.bss.xIdleTaskTCBBuffer,"aw",%nobits
 180              		.align	2
 181              		.set	.LANCHOR1,. + 0
 184              	xIdleTaskTCBBuffer:
 185 0000 00000000 		.space	84
 185      00000000 
 185      00000000 
 185      00000000 
 185      00000000 
 186              		.text
 187              	.Letext0:
 188              		.file 2 "d:\\gnu arm embedded toolchain\\10 2021.10\\arm-none-eabi\\include\\machine\\_default_typ
 189              		.file 3 "d:\\gnu arm embedded toolchain\\10 2021.10\\arm-none-eabi\\include\\sys\\_stdint.h"
 190              		.file 4 "Middlewares/Third_Party/FreeRTOS/Source/portable/GCC/ARM_CM3/portmacro.h"
 191              		.file 5 "Middlewares/Third_Party/FreeRTOS/Source/include/FreeRTOS.h"
 192              		.file 6 "Middlewares/Third_Party/FreeRTOS/Source/include/task.h"
 193              		.file 7 "Middlewares/Third_Party/FreeRTOS/Source/CMSIS_RTOS/cmsis_os.h"
ARM GAS  C:\Users\Lenovo\AppData\Local\Temp\ccECE13t.s 			page 7

