ARM GAS  C:\Users\Lenovo\AppData\Local\Temp\cc90KSaB.s 			page 1


   1              		.cpu cortex-m3
   2              		.arch armv7-m
   3              		.fpu softvfp
   4              		.eabi_attribute 20, 1
   5              		.eabi_attribute 21, 1
   6              		.eabi_attribute 23, 3
   7              		.eabi_attribute 24, 1
   8              		.eabi_attribute 25, 1
   9              		.eabi_attribute 26, 1
  10              		.eabi_attribute 30, 1
  11              		.eabi_attribute 34, 1
  12              		.eabi_attribute 18, 4
  13              		.file	"pid.c"
  14              		.text
  15              	.Ltext0:
  16              		.cfi_sections	.debug_frame
  17              		.global	__aeabi_fcmpgt
  18              		.section	.text.PID_abs_limit,"ax",%progbits
  19              		.align	1
  20              		.global	PID_abs_limit
  21              		.syntax unified
  22              		.thumb
  23              		.thumb_func
  25              	PID_abs_limit:
  26              	.LVL0:
  27              	.LFB65:
  28              		.file 1 "algorithm/pid.c"
   1:algorithm/pid.c **** 
   2:algorithm/pid.c **** #include "pid.h"
   3:algorithm/pid.c **** #include "Movebase.h"
   4:algorithm/pid.c **** 
   5:algorithm/pid.c **** // 对变量进行范围限制
   6:algorithm/pid.c **** float PID_abs_limit(float a, float ABS_MAX)
   7:algorithm/pid.c **** {
  29              		.loc 1 7 1 view -0
  30              		.cfi_startproc
  31              		@ args = 0, pretend = 0, frame = 0
  32              		@ frame_needed = 0, uses_anonymous_args = 0
  33              		.loc 1 7 1 is_stmt 0 view .LVU1
  34 0000 38B5     		push	{r3, r4, r5, lr}
  35              	.LCFI0:
  36              		.cfi_def_cfa_offset 16
  37              		.cfi_offset 3, -16
  38              		.cfi_offset 4, -12
  39              		.cfi_offset 5, -8
  40              		.cfi_offset 14, -4
  41 0002 0546     		mov	r5, r0
  42 0004 0C46     		mov	r4, r1
   8:algorithm/pid.c ****     if(a > ABS_MAX)
  43              		.loc 1 8 5 is_stmt 1 view .LVU2
  44              		.loc 1 8 7 is_stmt 0 view .LVU3
  45 0006 FFF7FEFF 		bl	__aeabi_fcmpgt
  46              	.LVL1:
  47              		.loc 1 8 7 view .LVU4
  48 000a 00B1     		cbz	r0, .L2
   9:algorithm/pid.c ****         a = ABS_MAX;
  49              		.loc 1 9 11 view .LVU5
ARM GAS  C:\Users\Lenovo\AppData\Local\Temp\cc90KSaB.s 			page 2


  50 000c 2546     		mov	r5, r4
  51              	.LVL2:
  52              	.L2:
  10:algorithm/pid.c **** 		
  11:algorithm/pid.c ****     if(a < -ABS_MAX)
  53              		.loc 1 11 5 is_stmt 1 view .LVU6
  54              		.loc 1 11 12 is_stmt 0 view .LVU7
  55 000e 04F10044 		add	r4, r4, #-2147483648
  56              	.LVL3:
  57              		.loc 1 11 7 view .LVU8
  58 0012 2946     		mov	r1, r5
  59 0014 2046     		mov	r0, r4
  60 0016 FFF7FEFF 		bl	__aeabi_fcmpgt
  61              	.LVL4:
  62 001a 00B9     		cbnz	r0, .L1
  63 001c 2C46     		mov	r4, r5
  12:algorithm/pid.c ****         a = -ABS_MAX;
  13:algorithm/pid.c **** 		return a;
  64              		.loc 1 13 3 is_stmt 1 view .LVU9
  65              	.LVL5:
  66              	.L1:
  14:algorithm/pid.c **** }
  67              		.loc 1 14 1 is_stmt 0 view .LVU10
  68 001e 2046     		mov	r0, r4
  69 0020 38BD     		pop	{r3, r4, r5, pc}
  70              		.cfi_endproc
  71              	.LFE65:
  73              		.section	.text.PID_parameter_init,"ax",%progbits
  74              		.align	1
  75              		.global	PID_parameter_init
  76              		.syntax unified
  77              		.thumb
  78              		.thumb_func
  80              	PID_parameter_init:
  81              	.LVL6:
  82              	.LFB66:
  15:algorithm/pid.c **** 
  16:algorithm/pid.c **** void PID_parameter_init(pid *pp, float Kp, float Ki, float Kd, float outputmax, float Integralmax, 
  17:algorithm/pid.c **** {  
  83              		.loc 1 17 1 is_stmt 1 view -0
  84              		.cfi_startproc
  85              		@ args = 12, pretend = 0, frame = 0
  86              		@ frame_needed = 0, uses_anonymous_args = 0
  87              		@ link register save eliminated.
  18:algorithm/pid.c **** 	pp->Integralmax = Integralmax;
  88              		.loc 1 18 2 view .LVU12
  89              		.loc 1 18 18 is_stmt 0 view .LVU13
  90 0000 DDF804C0 		ldr	ip, [sp, #4]	@ float
  91 0004 C0F820C0 		str	ip, [r0, #32]	@ float
  19:algorithm/pid.c **** 	pp->outputmax = outputmax;
  92              		.loc 1 19 2 is_stmt 1 view .LVU14
  93              		.loc 1 19 16 is_stmt 0 view .LVU15
  94 0008 DDF800C0 		ldr	ip, [sp]	@ float
  95 000c C0F828C0 		str	ip, [r0, #40]	@ float
  20:algorithm/pid.c ****     pp->Proportion = Kp;
  96              		.loc 1 20 5 is_stmt 1 view .LVU16
  97              		.loc 1 20 20 is_stmt 0 view .LVU17
ARM GAS  C:\Users\Lenovo\AppData\Local\Temp\cc90KSaB.s 			page 3


  98 0010 0160     		str	r1, [r0]	@ float
  21:algorithm/pid.c **** 	pp->Integral   = Ki;
  99              		.loc 1 21 2 is_stmt 1 view .LVU18
 100              		.loc 1 21 17 is_stmt 0 view .LVU19
 101 0012 4260     		str	r2, [r0, #4]	@ float
  22:algorithm/pid.c **** 	pp->Derivative = Kd;
 102              		.loc 1 22 2 is_stmt 1 view .LVU20
 103              		.loc 1 22 17 is_stmt 0 view .LVU21
 104 0014 8360     		str	r3, [r0, #8]	@ float
  23:algorithm/pid.c ****     pp->DError = pp->Error = pp->SumError = pp->output = pp->LastError = pp->PrevError = pp->errorm
 105              		.loc 1 23 5 is_stmt 1 view .LVU22
 106              		.loc 1 23 103 is_stmt 0 view .LVU23
 107 0016 0023     		movs	r3, #0
 108              	.LVL7:
 109              		.loc 1 23 103 view .LVU24
 110 0018 C362     		str	r3, [r0, #44]	@ float
 111              		.loc 1 23 88 view .LVU25
 112 001a C360     		str	r3, [r0, #12]	@ float
 113              		.loc 1 23 72 view .LVU26
 114 001c 0361     		str	r3, [r0, #16]	@ float
 115              		.loc 1 23 56 view .LVU27
 116 001e 4362     		str	r3, [r0, #36]	@ float
 117              		.loc 1 23 43 view .LVU28
 118 0020 C361     		str	r3, [r0, #28]	@ float
 119              		.loc 1 23 28 view .LVU29
 120 0022 4361     		str	r3, [r0, #20]	@ float
 121              		.loc 1 23 16 view .LVU30
 122 0024 8361     		str	r3, [r0, #24]	@ float
  24:algorithm/pid.c **** 	pp->first_flag = 1;
 123              		.loc 1 24 2 is_stmt 1 view .LVU31
 124              		.loc 1 24 17 is_stmt 0 view .LVU32
 125 0026 0123     		movs	r3, #1
 126 0028 80F83030 		strb	r3, [r0, #48]
  25:algorithm/pid.c **** 	pp->deadzone = deadzone;
 127              		.loc 1 25 2 is_stmt 1 view .LVU33
 128              		.loc 1 25 15 is_stmt 0 view .LVU34
 129 002c 029B     		ldr	r3, [sp, #8]	@ float
 130 002e 4363     		str	r3, [r0, #52]	@ float
  26:algorithm/pid.c **** } 
 131              		.loc 1 26 1 view .LVU35
 132 0030 7047     		bx	lr
 133              		.cfi_endproc
 134              	.LFE66:
 136              		.global	__aeabi_fadd
 137              		.global	__aeabi_fsub
 138              		.global	__aeabi_fmul
 139              		.global	__aeabi_fcmplt
 140              		.section	.text.PID_position_PID_calculation_by_error,"ax",%progbits
 141              		.align	1
 142              		.global	PID_position_PID_calculation_by_error
 143              		.syntax unified
 144              		.thumb
 145              		.thumb_func
 147              	PID_position_PID_calculation_by_error:
 148              	.LVL8:
 149              	.LFB67:
  27:algorithm/pid.c **** 
ARM GAS  C:\Users\Lenovo\AppData\Local\Temp\cc90KSaB.s 			page 4


  28:algorithm/pid.c **** // 位置式PID,直接传入误差
  29:algorithm/pid.c **** void PID_position_PID_calculation_by_error(pid *pp, float error)  
  30:algorithm/pid.c **** {   
 150              		.loc 1 30 1 is_stmt 1 view -0
 151              		.cfi_startproc
 152              		@ args = 0, pretend = 0, frame = 0
 153              		@ frame_needed = 0, uses_anonymous_args = 0
 154              		.loc 1 30 1 is_stmt 0 view .LVU37
 155 0000 2DE9F843 		push	{r3, r4, r5, r6, r7, r8, r9, lr}
 156              	.LCFI1:
 157              		.cfi_def_cfa_offset 32
 158              		.cfi_offset 3, -32
 159              		.cfi_offset 4, -28
 160              		.cfi_offset 5, -24
 161              		.cfi_offset 6, -20
 162              		.cfi_offset 7, -16
 163              		.cfi_offset 8, -12
 164              		.cfi_offset 9, -8
 165              		.cfi_offset 14, -4
 166 0004 0446     		mov	r4, r0
 167 0006 0D46     		mov	r5, r1
  31:algorithm/pid.c **** 	if(pp->first_flag == 1)
 168              		.loc 1 31 2 is_stmt 1 view .LVU38
 169              		.loc 1 31 7 is_stmt 0 view .LVU39
 170 0008 90F83030 		ldrb	r3, [r0, #48]	@ zero_extendqisi2
 171              		.loc 1 31 4 view .LVU40
 172 000c 012B     		cmp	r3, #1
 173 000e 42D0     		beq	.L19
 174              	.L8:
  32:algorithm/pid.c **** 	{
  33:algorithm/pid.c **** 		pp->LastError = error;
  34:algorithm/pid.c **** 		pp->PrevError = error;
  35:algorithm/pid.c **** 		pp->first_flag = 0;
  36:algorithm/pid.c **** 	}	
  37:algorithm/pid.c **** 	
  38:algorithm/pid.c **** 	pp->Error =  error;          
 175              		.loc 1 38 2 is_stmt 1 view .LVU41
 176              		.loc 1 38 12 is_stmt 0 view .LVU42
 177 0010 6561     		str	r5, [r4, #20]	@ float
  39:algorithm/pid.c **** 	pp->SumError += pp->Error;                      
 178              		.loc 1 39 2 is_stmt 1 view .LVU43
 179              		.loc 1 39 15 is_stmt 0 view .LVU44
 180 0012 E169     		ldr	r1, [r4, #28]	@ float
 181              	.LVL9:
 182              		.loc 1 39 15 view .LVU45
 183 0014 2846     		mov	r0, r5
 184              	.LVL10:
 185              		.loc 1 39 15 view .LVU46
 186 0016 FFF7FEFF 		bl	__aeabi_fadd
 187              	.LVL11:
 188 001a 0746     		mov	r7, r0
 189 001c E061     		str	r0, [r4, #28]	@ float
  40:algorithm/pid.c **** 	pp->DError = pp->Error - pp->LastError;
 190              		.loc 1 40 2 is_stmt 1 view .LVU47
 191              		.loc 1 40 25 is_stmt 0 view .LVU48
 192 001e 2169     		ldr	r1, [r4, #16]	@ float
 193 0020 2846     		mov	r0, r5
ARM GAS  C:\Users\Lenovo\AppData\Local\Temp\cc90KSaB.s 			page 5


 194 0022 FFF7FEFF 		bl	__aeabi_fsub
 195              	.LVL12:
 196 0026 0646     		mov	r6, r0
 197              		.loc 1 40 13 view .LVU49
 198 0028 A061     		str	r0, [r4, #24]	@ float
  41:algorithm/pid.c **** 	
  42:algorithm/pid.c **** 	pp->output =  pp->Proportion * pp->Error +   \
 199              		.loc 1 42 2 is_stmt 1 view .LVU50
 200              		.loc 1 42 31 is_stmt 0 view .LVU51
 201 002a 2946     		mov	r1, r5
 202 002c 2068     		ldr	r0, [r4]	@ float
 203 002e FFF7FEFF 		bl	__aeabi_fmul
 204              	.LVL13:
 205 0032 8046     		mov	r8, r0
  43:algorithm/pid.c **** 								PID_abs_limit(pp->Integral * pp->SumError, pp->Integralmax ) +   \
 206              		.loc 1 43 9 view .LVU52
 207 0034 D4F82090 		ldr	r9, [r4, #32]	@ float
 208 0038 6168     		ldr	r1, [r4, #4]	@ float
 209 003a 3846     		mov	r0, r7
 210 003c FFF7FEFF 		bl	__aeabi_fmul
 211              	.LVL14:
 212 0040 4946     		mov	r1, r9
 213 0042 FFF7FEFF 		bl	PID_abs_limit
 214              	.LVL15:
 215 0046 0146     		mov	r1, r0
  42:algorithm/pid.c **** 								PID_abs_limit(pp->Integral * pp->SumError, pp->Integralmax ) +   \
 216              		.loc 1 42 43 view .LVU53
 217 0048 4046     		mov	r0, r8
 218 004a FFF7FEFF 		bl	__aeabi_fadd
 219              	.LVL16:
 220 004e 0746     		mov	r7, r0
  44:algorithm/pid.c **** 								pp->Derivative * pp->DError ;  
 221              		.loc 1 44 24 view .LVU54
 222 0050 A168     		ldr	r1, [r4, #8]	@ float
 223 0052 3046     		mov	r0, r6
 224 0054 FFF7FEFF 		bl	__aeabi_fmul
 225              	.LVL17:
 226 0058 0146     		mov	r1, r0
  43:algorithm/pid.c **** 								PID_abs_limit(pp->Integral * pp->SumError, pp->Integralmax ) +   \
 227              		.loc 1 43 70 view .LVU55
 228 005a 3846     		mov	r0, r7
 229 005c FFF7FEFF 		bl	__aeabi_fadd
 230              	.LVL18:
  42:algorithm/pid.c **** 								PID_abs_limit(pp->Integral * pp->SumError, pp->Integralmax ) +   \
 231              		.loc 1 42 13 view .LVU56
 232 0060 6062     		str	r0, [r4, #36]	@ float
  45:algorithm/pid.c **** 
  46:algorithm/pid.c **** 	if(pp->output > pp->outputmax )  pp->output = pp->outputmax;
 233              		.loc 1 46 2 is_stmt 1 view .LVU57
 234              		.loc 1 46 20 is_stmt 0 view .LVU58
 235 0062 A66A     		ldr	r6, [r4, #40]	@ float
 236              		.loc 1 46 4 view .LVU59
 237 0064 3146     		mov	r1, r6
 238 0066 FFF7FEFF 		bl	__aeabi_fcmpgt
 239              	.LVL19:
 240 006a 00B1     		cbz	r0, .L9
 241              		.loc 1 46 35 is_stmt 1 discriminator 1 view .LVU60
ARM GAS  C:\Users\Lenovo\AppData\Local\Temp\cc90KSaB.s 			page 6


 242              		.loc 1 46 46 is_stmt 0 discriminator 1 view .LVU61
 243 006c 6662     		str	r6, [r4, #36]	@ float
 244              	.L9:
  47:algorithm/pid.c **** 	if(pp->output < - pp->outputmax )  pp->output = -pp->outputmax; 
 245              		.loc 1 47 2 is_stmt 1 view .LVU62
 246              		.loc 1 47 18 is_stmt 0 view .LVU63
 247 006e 06F10046 		add	r6, r6, #-2147483648
 248              		.loc 1 47 4 view .LVU64
 249 0072 3146     		mov	r1, r6
 250 0074 606A     		ldr	r0, [r4, #36]	@ float
 251 0076 FFF7FEFF 		bl	__aeabi_fcmplt
 252              	.LVL20:
 253 007a 00B1     		cbz	r0, .L11
 254              		.loc 1 47 37 is_stmt 1 discriminator 1 view .LVU65
 255              		.loc 1 47 48 is_stmt 0 discriminator 1 view .LVU66
 256 007c 6662     		str	r6, [r4, #36]	@ float
 257              	.L11:
  48:algorithm/pid.c **** 	pp->LastError = pp->Error;
 258              		.loc 1 48 2 is_stmt 1 view .LVU67
 259              		.loc 1 48 16 is_stmt 0 view .LVU68
 260 007e 2561     		str	r5, [r4, #16]	@ float
  49:algorithm/pid.c **** 	
  50:algorithm/pid.c **** 	if(ABS(pp->Error) < pp->deadzone)
 261              		.loc 1 50 2 is_stmt 1 view .LVU69
 262              		.loc 1 50 5 is_stmt 0 view .LVU70
 263 0080 2846     		mov	r0, r5
 264 0082 FFF7FEFF 		bl	ABS
 265              	.LVL21:
 266              		.loc 1 50 4 view .LVU71
 267 0086 616B     		ldr	r1, [r4, #52]	@ float
 268 0088 FFF7FEFF 		bl	__aeabi_fcmplt
 269              	.LVL22:
 270 008c 08B1     		cbz	r0, .L7
  51:algorithm/pid.c **** 	{
  52:algorithm/pid.c **** 		pp->output = 0;
 271              		.loc 1 52 3 is_stmt 1 view .LVU72
 272              		.loc 1 52 14 is_stmt 0 view .LVU73
 273 008e 0023     		movs	r3, #0
 274 0090 6362     		str	r3, [r4, #36]	@ float
 275              	.L7:
  53:algorithm/pid.c **** 	}
  54:algorithm/pid.c **** 
  55:algorithm/pid.c **** 	// last_out=pp->output;
  56:algorithm/pid.c **** }
 276              		.loc 1 56 1 view .LVU74
 277 0092 BDE8F883 		pop	{r3, r4, r5, r6, r7, r8, r9, pc}
 278              	.LVL23:
 279              	.L19:
  33:algorithm/pid.c **** 		pp->PrevError = error;
 280              		.loc 1 33 3 is_stmt 1 view .LVU75
  33:algorithm/pid.c **** 		pp->PrevError = error;
 281              		.loc 1 33 17 is_stmt 0 view .LVU76
 282 0096 2161     		str	r1, [r4, #16]	@ float
  34:algorithm/pid.c **** 		pp->first_flag = 0;
 283              		.loc 1 34 3 is_stmt 1 view .LVU77
  34:algorithm/pid.c **** 		pp->first_flag = 0;
 284              		.loc 1 34 17 is_stmt 0 view .LVU78
ARM GAS  C:\Users\Lenovo\AppData\Local\Temp\cc90KSaB.s 			page 7


 285 0098 E160     		str	r1, [r4, #12]	@ float
  35:algorithm/pid.c **** 	}	
 286              		.loc 1 35 3 is_stmt 1 view .LVU79
  35:algorithm/pid.c **** 	}	
 287              		.loc 1 35 18 is_stmt 0 view .LVU80
 288 009a 0023     		movs	r3, #0
 289 009c 80F83030 		strb	r3, [r0, #48]
 290 00a0 B6E7     		b	.L8
 291              		.cfi_endproc
 292              	.LFE67:
 294              		.text
 295              	.Letext0:
 296              		.file 2 "d:\\gnu arm embedded toolchain\\10 2021.10\\arm-none-eabi\\include\\machine\\_default_typ
 297              		.file 3 "d:\\gnu arm embedded toolchain\\10 2021.10\\arm-none-eabi\\include\\sys\\_stdint.h"
 298              		.file 4 "algorithm/pid.h"
 299              		.file 5 "move/Inc/Movebase.h"
ARM GAS  C:\Users\Lenovo\AppData\Local\Temp\cc90KSaB.s 			page 8

