ARM GAS  C:\Users\Lenovo\AppData\Local\Temp\ccjBtyZh.s 			page 1


   1              		.cpu cortex-m3
   2              		.arch armv7-m
   3              		.fpu softvfp
   4              		.eabi_attribute 20, 1
   5              		.eabi_attribute 21, 1
   6              		.eabi_attribute 23, 3
   7              		.eabi_attribute 24, 1
   8              		.eabi_attribute 25, 1
   9              		.eabi_attribute 26, 1
  10              		.eabi_attribute 30, 1
  11              		.eabi_attribute 34, 1
  12              		.eabi_attribute 18, 4
  13              		.file	"plane.c"
  14              		.section	.rodata.str1.4,"aMS",%progbits,1
  15              		.align	2
  16              	.LC0:
  17 0000 696E7374 		.ascii	"instask\000"
  17      61736B00 
  18              		.align	2
  19              	.LC2:
  20 0008 666C7974 		.ascii	"flytask\000"
  20      61736B00 
  21              		.text
  22              	.Ltext0:
  23              		.cfi_sections	.debug_frame
  24              		.section	.text.StartINSTASK,"ax",%progbits
  25              		.align	1
  26              		.global	StartINSTASK
  27              		.syntax unified
  28              		.thumb
  29              		.thumb_func
  31              	StartINSTASK:
  32              	.LVL0:
  33              	.LFB130:
  34              		.file 1 "application/plane_task.h"
   1:application/plane_task.h **** #pragma once
   2:application/plane_task.h **** 
   3:application/plane_task.h **** #include "FreeRTOS.h"
   4:application/plane_task.h **** #include "main.h"
   5:application/plane_task.h **** #include "cmsis_os.h"
   6:application/plane_task.h **** #include "ins_task.h"
   7:application/plane_task.h **** #include "tim.h"
   8:application/plane_task.h **** #include "ex_05a_main.h"
   9:application/plane_task.h **** #include "data_pool.h"
  10:application/plane_task.h **** #include "usart.h"
  11:application/plane_task.h **** #include <math.h>
  12:application/plane_task.h **** #include "Movebase.h"
  13:application/plane_task.h **** #include "measure.h"
  14:application/plane_task.h **** #include "trilateration.h"
  15:application/plane_task.h **** 
  16:application/plane_task.h **** 
  17:application/plane_task.h **** /*任务节点创建区*/
  18:application/plane_task.h **** osThreadId insTaskHandle;
  19:application/plane_task.h **** osThreadId uwbTaskHandle;
  20:application/plane_task.h **** osThreadId SendTaskHandle;
  21:application/plane_task.h **** osThreadId FlyTaskHandle;
  22:application/plane_task.h **** 
ARM GAS  C:\Users\Lenovo\AppData\Local\Temp\ccjBtyZh.s 			page 2


  23:application/plane_task.h **** /*任务函数声明*/
  24:application/plane_task.h **** void StartINSTASK(void const *argument);
  25:application/plane_task.h **** void StartUWBTask(void const *argument);
  26:application/plane_task.h **** void SendCommandTask(void const *argument);
  27:application/plane_task.h **** void FlyTask(void const *argument);
  28:application/plane_task.h **** /**
  29:application/plane_task.h ****  * @name    oSTASKInit
  30:application/plane_task.h ****  * @brief   任务初始化，所有运行的任务都在此初始化
  31:application/plane_task.h ****  */
  32:application/plane_task.h **** void OSTASKInit(void)
  33:application/plane_task.h **** {
  34:application/plane_task.h ****     osThreadDef(instask,StartINSTASK,osPriorityAboveNormal,0,1024);
  35:application/plane_task.h ****     insTaskHandle = osThreadCreate(osThread(instask),NULL); //设置较高优先级
  36:application/plane_task.h **** 
  37:application/plane_task.h ****     // osThreadDef(uwbtask,StartUWBTask,osPriorityAboveNormal,0,1024);
  38:application/plane_task.h ****     // uwbTaskHandle = osThreadCreate(osThread(uwbtask),NULL);
  39:application/plane_task.h **** 
  40:application/plane_task.h ****     osThreadDef(flytask,FlyTask,osPriorityNormal,0,512);
  41:application/plane_task.h ****     FlyTaskHandle = osThreadCreate(osThread(flytask),NULL);
  42:application/plane_task.h **** }
  43:application/plane_task.h **** 
  44:application/plane_task.h **** 
  45:application/plane_task.h **** /*bmi088数据获取处理 */
  46:application/plane_task.h **** void StartINSTASK(void const *argument)
  47:application/plane_task.h **** {
  35              		.loc 1 47 1 view -0
  36              		.cfi_startproc
  37              		@ Volatile: function does not return.
  38              		@ args = 0, pretend = 0, frame = 0
  39              		@ frame_needed = 0, uses_anonymous_args = 0
  40              		.loc 1 47 1 is_stmt 0 view .LVU1
  41 0000 08B5     		push	{r3, lr}
  42              	.LCFI0:
  43              		.cfi_def_cfa_offset 8
  44              		.cfi_offset 3, -8
  45              		.cfi_offset 14, -4
  48:application/plane_task.h ****     static float ins_start;
  46              		.loc 1 48 5 is_stmt 1 view .LVU2
  49:application/plane_task.h ****     static float ins_dt;
  47              		.loc 1 49 5 view .LVU3
  50:application/plane_task.h ****     INS_Init();
  48              		.loc 1 50 5 view .LVU4
  49 0002 FFF7FEFF 		bl	INS_Init
  50              	.LVL1:
  51              	.L2:
  51:application/plane_task.h ****     for (;;)
  52              		.loc 1 51 5 discriminator 1 view .LVU5
  52:application/plane_task.h ****     {
  53:application/plane_task.h ****         // 1kHz
  54:application/plane_task.h ****         INS_Task();
  53              		.loc 1 54 9 discriminator 1 view .LVU6
  54 0006 FFF7FEFF 		bl	INS_Task
  55              	.LVL2:
  55:application/plane_task.h ****         // HCSR04_GetData();
  56:application/plane_task.h ****         osDelay(1);
  56              		.loc 1 56 9 discriminator 1 view .LVU7
  57 000a 0120     		movs	r0, #1
ARM GAS  C:\Users\Lenovo\AppData\Local\Temp\ccjBtyZh.s 			page 3


  58 000c FFF7FEFF 		bl	osDelay
  59              	.LVL3:
  51:application/plane_task.h ****     {
  60              		.loc 1 51 11 discriminator 1 view .LVU8
  61 0010 F9E7     		b	.L2
  62              		.cfi_endproc
  63              	.LFE130:
  65              		.section	.text.OSTASKInit,"ax",%progbits
  66              		.align	1
  67              		.global	OSTASKInit
  68              		.syntax unified
  69              		.thumb
  70              		.thumb_func
  72              	OSTASKInit:
  73              	.LFB129:
  33:application/plane_task.h ****     osThreadDef(instask,StartINSTASK,osPriorityAboveNormal,0,1024);
  74              		.loc 1 33 1 view -0
  75              		.cfi_startproc
  76              		@ args = 0, pretend = 0, frame = 56
  77              		@ frame_needed = 0, uses_anonymous_args = 0
  78 0000 10B5     		push	{r4, lr}
  79              	.LCFI1:
  80              		.cfi_def_cfa_offset 8
  81              		.cfi_offset 4, -8
  82              		.cfi_offset 14, -4
  83 0002 8EB0     		sub	sp, sp, #56
  84              	.LCFI2:
  85              		.cfi_def_cfa_offset 64
  34:application/plane_task.h ****     insTaskHandle = osThreadCreate(osThread(instask),NULL); //设置较高优先级
  86              		.loc 1 34 5 view .LVU10
  87 0004 124C     		ldr	r4, .L6
  88 0006 0DF11C0C 		add	ip, sp, #28
  89 000a A646     		mov	lr, r4
  90 000c BEE80F00 		ldmia	lr!, {r0, r1, r2, r3}
  91 0010 ACE80F00 		stmia	ip!, {r0, r1, r2, r3}
  92 0014 9EE80700 		ldm	lr, {r0, r1, r2}
  93 0018 8CE80700 		stm	ip, {r0, r1, r2}
  35:application/plane_task.h **** 
  94              		.loc 1 35 5 view .LVU11
  35:application/plane_task.h **** 
  95              		.loc 1 35 21 is_stmt 0 view .LVU12
  96 001c 0021     		movs	r1, #0
  97 001e 07A8     		add	r0, sp, #28
  98 0020 FFF7FEFF 		bl	osThreadCreate
  99              	.LVL4:
  35:application/plane_task.h **** 
 100              		.loc 1 35 19 view .LVU13
 101 0024 0B4B     		ldr	r3, .L6+4
 102 0026 1860     		str	r0, [r3]
  40:application/plane_task.h ****     FlyTaskHandle = osThreadCreate(osThread(flytask),NULL);
 103              		.loc 1 40 5 is_stmt 1 view .LVU14
 104 0028 EE46     		mov	lr, sp
 105 002a 04F11C0C 		add	ip, r4, #28
 106 002e BCE80F00 		ldmia	ip!, {r0, r1, r2, r3}
 107 0032 AEE80F00 		stmia	lr!, {r0, r1, r2, r3}
 108 0036 9CE80700 		ldm	ip, {r0, r1, r2}
 109 003a 8EE80700 		stm	lr, {r0, r1, r2}
ARM GAS  C:\Users\Lenovo\AppData\Local\Temp\ccjBtyZh.s 			page 4


  41:application/plane_task.h **** }
 110              		.loc 1 41 5 view .LVU15
  41:application/plane_task.h **** }
 111              		.loc 1 41 21 is_stmt 0 view .LVU16
 112 003e 0021     		movs	r1, #0
 113 0040 6846     		mov	r0, sp
 114 0042 FFF7FEFF 		bl	osThreadCreate
 115              	.LVL5:
  41:application/plane_task.h **** }
 116              		.loc 1 41 19 view .LVU17
 117 0046 044B     		ldr	r3, .L6+8
 118 0048 1860     		str	r0, [r3]
  42:application/plane_task.h **** 
 119              		.loc 1 42 1 view .LVU18
 120 004a 0EB0     		add	sp, sp, #56
 121              	.LCFI3:
 122              		.cfi_def_cfa_offset 8
 123              		@ sp needed
 124 004c 10BD     		pop	{r4, pc}
 125              	.L7:
 126 004e 00BF     		.align	2
 127              	.L6:
 128 0050 00000000 		.word	.LANCHOR0
 129 0054 00000000 		.word	.LANCHOR1
 130 0058 00000000 		.word	.LANCHOR2
 131              		.cfi_endproc
 132              	.LFE129:
 134              		.section	.text.StartUWBTask,"ax",%progbits
 135              		.align	1
 136              		.global	StartUWBTask
 137              		.syntax unified
 138              		.thumb
 139              		.thumb_func
 141              	StartUWBTask:
 142              	.LVL6:
 143              	.LFB131:
  57:application/plane_task.h ****     }
  58:application/plane_task.h **** }
  59:application/plane_task.h **** 
  60:application/plane_task.h **** 
  61:application/plane_task.h **** /*UWB数据接收函数*/
  62:application/plane_task.h **** void StartUWBTask(void const *argument)
  63:application/plane_task.h **** {
 144              		.loc 1 63 1 is_stmt 1 view -0
 145              		.cfi_startproc
 146              		@ Volatile: function does not return.
 147              		@ args = 0, pretend = 0, frame = 0
 148              		@ frame_needed = 0, uses_anonymous_args = 0
 149              		.loc 1 63 1 is_stmt 0 view .LVU20
 150 0000 08B5     		push	{r3, lr}
 151              	.LCFI4:
 152              		.cfi_def_cfa_offset 8
 153              		.cfi_offset 3, -8
 154              		.cfi_offset 14, -4
  64:application/plane_task.h ****     dw_init();
 155              		.loc 1 64 5 is_stmt 1 view .LVU21
 156 0002 FFF7FEFF 		bl	dw_init
ARM GAS  C:\Users\Lenovo\AppData\Local\Temp\ccjBtyZh.s 			page 5


 157              	.LVL7:
 158              	.L9:
  65:application/plane_task.h ****     for (;;)
 159              		.loc 1 65 5 discriminator 1 view .LVU22
  66:application/plane_task.h ****     {
  67:application/plane_task.h ****         // 1kHz
  68:application/plane_task.h ****         dw_Receive();
 160              		.loc 1 68 9 discriminator 1 view .LVU23
 161 0006 FFF7FEFF 		bl	dw_Receive
 162              	.LVL8:
  69:application/plane_task.h ****         osDelay(1);
 163              		.loc 1 69 9 discriminator 1 view .LVU24
 164 000a 0120     		movs	r0, #1
 165 000c FFF7FEFF 		bl	osDelay
 166              	.LVL9:
  65:application/plane_task.h ****     for (;;)
 167              		.loc 1 65 11 discriminator 1 view .LVU25
 168 0010 F9E7     		b	.L9
 169              		.cfi_endproc
 170              	.LFE131:
 172              		.section	.text.PlaneInit,"ax",%progbits
 173              		.align	1
 174              		.global	PlaneInit
 175              		.syntax unified
 176              		.thumb
 177              		.thumb_func
 179              	PlaneInit:
 180              	.LFB133:
 181              		.file 2 "application/plane.c"
   1:application/plane.c **** #include "plane_task.h"
   2:application/plane.c **** #include "main.h"
   3:application/plane.c **** #include "trilateration.h"
   4:application/plane.c **** #include "tim.h"
   5:application/plane.c **** 
   6:application/plane.c **** 
   7:application/plane.c **** 
   8:application/plane.c **** void PlaneInit(void)
   9:application/plane.c **** {
 182              		.loc 2 9 1 view -0
 183              		.cfi_startproc
 184              		@ args = 0, pretend = 0, frame = 0
 185              		@ frame_needed = 0, uses_anonymous_args = 0
 186 0000 08B5     		push	{r3, lr}
 187              	.LCFI5:
 188              		.cfi_def_cfa_offset 8
 189              		.cfi_offset 3, -8
 190              		.cfi_offset 14, -4
  10:application/plane.c ****     __disable_irq();
 191              		.loc 2 10 5 view .LVU27
 192              	.LBB6:
 193              	.LBI6:
 194              		.file 3 "Drivers/CMSIS/Include/cmsis_gcc.h"
   1:Drivers/CMSIS/Include/cmsis_gcc.h **** /**************************************************************************//**
   2:Drivers/CMSIS/Include/cmsis_gcc.h ****  * @file     cmsis_gcc.h
   3:Drivers/CMSIS/Include/cmsis_gcc.h ****  * @brief    CMSIS compiler GCC header file
   4:Drivers/CMSIS/Include/cmsis_gcc.h ****  * @version  V5.0.4
   5:Drivers/CMSIS/Include/cmsis_gcc.h ****  * @date     09. April 2018
ARM GAS  C:\Users\Lenovo\AppData\Local\Temp\ccjBtyZh.s 			page 6


   6:Drivers/CMSIS/Include/cmsis_gcc.h ****  ******************************************************************************/
   7:Drivers/CMSIS/Include/cmsis_gcc.h **** /*
   8:Drivers/CMSIS/Include/cmsis_gcc.h ****  * Copyright (c) 2009-2018 Arm Limited. All rights reserved.
   9:Drivers/CMSIS/Include/cmsis_gcc.h ****  *
  10:Drivers/CMSIS/Include/cmsis_gcc.h ****  * SPDX-License-Identifier: Apache-2.0
  11:Drivers/CMSIS/Include/cmsis_gcc.h ****  *
  12:Drivers/CMSIS/Include/cmsis_gcc.h ****  * Licensed under the Apache License, Version 2.0 (the License); you may
  13:Drivers/CMSIS/Include/cmsis_gcc.h ****  * not use this file except in compliance with the License.
  14:Drivers/CMSIS/Include/cmsis_gcc.h ****  * You may obtain a copy of the License at
  15:Drivers/CMSIS/Include/cmsis_gcc.h ****  *
  16:Drivers/CMSIS/Include/cmsis_gcc.h ****  * www.apache.org/licenses/LICENSE-2.0
  17:Drivers/CMSIS/Include/cmsis_gcc.h ****  *
  18:Drivers/CMSIS/Include/cmsis_gcc.h ****  * Unless required by applicable law or agreed to in writing, software
  19:Drivers/CMSIS/Include/cmsis_gcc.h ****  * distributed under the License is distributed on an AS IS BASIS, WITHOUT
  20:Drivers/CMSIS/Include/cmsis_gcc.h ****  * WARRANTIES OR CONDITIONS OF ANY KIND, either express or implied.
  21:Drivers/CMSIS/Include/cmsis_gcc.h ****  * See the License for the specific language governing permissions and
  22:Drivers/CMSIS/Include/cmsis_gcc.h ****  * limitations under the License.
  23:Drivers/CMSIS/Include/cmsis_gcc.h ****  */
  24:Drivers/CMSIS/Include/cmsis_gcc.h **** 
  25:Drivers/CMSIS/Include/cmsis_gcc.h **** #ifndef __CMSIS_GCC_H
  26:Drivers/CMSIS/Include/cmsis_gcc.h **** #define __CMSIS_GCC_H
  27:Drivers/CMSIS/Include/cmsis_gcc.h **** 
  28:Drivers/CMSIS/Include/cmsis_gcc.h **** /* ignore some GCC warnings */
  29:Drivers/CMSIS/Include/cmsis_gcc.h **** #pragma GCC diagnostic push
  30:Drivers/CMSIS/Include/cmsis_gcc.h **** #pragma GCC diagnostic ignored "-Wsign-conversion"
  31:Drivers/CMSIS/Include/cmsis_gcc.h **** #pragma GCC diagnostic ignored "-Wconversion"
  32:Drivers/CMSIS/Include/cmsis_gcc.h **** #pragma GCC diagnostic ignored "-Wunused-parameter"
  33:Drivers/CMSIS/Include/cmsis_gcc.h **** 
  34:Drivers/CMSIS/Include/cmsis_gcc.h **** /* Fallback for __has_builtin */
  35:Drivers/CMSIS/Include/cmsis_gcc.h **** #ifndef __has_builtin
  36:Drivers/CMSIS/Include/cmsis_gcc.h ****   #define __has_builtin(x) (0)
  37:Drivers/CMSIS/Include/cmsis_gcc.h **** #endif
  38:Drivers/CMSIS/Include/cmsis_gcc.h **** 
  39:Drivers/CMSIS/Include/cmsis_gcc.h **** /* CMSIS compiler specific defines */
  40:Drivers/CMSIS/Include/cmsis_gcc.h **** #ifndef   __ASM
  41:Drivers/CMSIS/Include/cmsis_gcc.h ****   #define __ASM                                  __asm
  42:Drivers/CMSIS/Include/cmsis_gcc.h **** #endif
  43:Drivers/CMSIS/Include/cmsis_gcc.h **** #ifndef   __INLINE
  44:Drivers/CMSIS/Include/cmsis_gcc.h ****   #define __INLINE                               inline
  45:Drivers/CMSIS/Include/cmsis_gcc.h **** #endif
  46:Drivers/CMSIS/Include/cmsis_gcc.h **** #ifndef   __STATIC_INLINE
  47:Drivers/CMSIS/Include/cmsis_gcc.h ****   #define __STATIC_INLINE                        static inline
  48:Drivers/CMSIS/Include/cmsis_gcc.h **** #endif
  49:Drivers/CMSIS/Include/cmsis_gcc.h **** #ifndef   __STATIC_FORCEINLINE                 
  50:Drivers/CMSIS/Include/cmsis_gcc.h ****   #define __STATIC_FORCEINLINE                   __attribute__((always_inline)) static inline
  51:Drivers/CMSIS/Include/cmsis_gcc.h **** #endif                                           
  52:Drivers/CMSIS/Include/cmsis_gcc.h **** #ifndef   __NO_RETURN
  53:Drivers/CMSIS/Include/cmsis_gcc.h ****   #define __NO_RETURN                            __attribute__((__noreturn__))
  54:Drivers/CMSIS/Include/cmsis_gcc.h **** #endif
  55:Drivers/CMSIS/Include/cmsis_gcc.h **** #ifndef   __USED
  56:Drivers/CMSIS/Include/cmsis_gcc.h ****   #define __USED                                 __attribute__((used))
  57:Drivers/CMSIS/Include/cmsis_gcc.h **** #endif
  58:Drivers/CMSIS/Include/cmsis_gcc.h **** #ifndef   __WEAK
  59:Drivers/CMSIS/Include/cmsis_gcc.h ****   #define __WEAK                                 __attribute__((weak))
  60:Drivers/CMSIS/Include/cmsis_gcc.h **** #endif
  61:Drivers/CMSIS/Include/cmsis_gcc.h **** #ifndef   __PACKED
  62:Drivers/CMSIS/Include/cmsis_gcc.h ****   #define __PACKED                               __attribute__((packed, aligned(1)))
ARM GAS  C:\Users\Lenovo\AppData\Local\Temp\ccjBtyZh.s 			page 7


  63:Drivers/CMSIS/Include/cmsis_gcc.h **** #endif
  64:Drivers/CMSIS/Include/cmsis_gcc.h **** #ifndef   __PACKED_STRUCT
  65:Drivers/CMSIS/Include/cmsis_gcc.h ****   #define __PACKED_STRUCT                        struct __attribute__((packed, aligned(1)))
  66:Drivers/CMSIS/Include/cmsis_gcc.h **** #endif
  67:Drivers/CMSIS/Include/cmsis_gcc.h **** #ifndef   __PACKED_UNION
  68:Drivers/CMSIS/Include/cmsis_gcc.h ****   #define __PACKED_UNION                         union __attribute__((packed, aligned(1)))
  69:Drivers/CMSIS/Include/cmsis_gcc.h **** #endif
  70:Drivers/CMSIS/Include/cmsis_gcc.h **** #ifndef   __UNALIGNED_UINT32        /* deprecated */
  71:Drivers/CMSIS/Include/cmsis_gcc.h ****   #pragma GCC diagnostic push
  72:Drivers/CMSIS/Include/cmsis_gcc.h ****   #pragma GCC diagnostic ignored "-Wpacked"
  73:Drivers/CMSIS/Include/cmsis_gcc.h ****   #pragma GCC diagnostic ignored "-Wattributes"
  74:Drivers/CMSIS/Include/cmsis_gcc.h ****   struct __attribute__((packed)) T_UINT32 { uint32_t v; };
  75:Drivers/CMSIS/Include/cmsis_gcc.h ****   #pragma GCC diagnostic pop
  76:Drivers/CMSIS/Include/cmsis_gcc.h ****   #define __UNALIGNED_UINT32(x)                  (((struct T_UINT32 *)(x))->v)
  77:Drivers/CMSIS/Include/cmsis_gcc.h **** #endif
  78:Drivers/CMSIS/Include/cmsis_gcc.h **** #ifndef   __UNALIGNED_UINT16_WRITE
  79:Drivers/CMSIS/Include/cmsis_gcc.h ****   #pragma GCC diagnostic push
  80:Drivers/CMSIS/Include/cmsis_gcc.h ****   #pragma GCC diagnostic ignored "-Wpacked"
  81:Drivers/CMSIS/Include/cmsis_gcc.h ****   #pragma GCC diagnostic ignored "-Wattributes"
  82:Drivers/CMSIS/Include/cmsis_gcc.h ****   __PACKED_STRUCT T_UINT16_WRITE { uint16_t v; };
  83:Drivers/CMSIS/Include/cmsis_gcc.h ****   #pragma GCC diagnostic pop
  84:Drivers/CMSIS/Include/cmsis_gcc.h ****   #define __UNALIGNED_UINT16_WRITE(addr, val)    (void)((((struct T_UINT16_WRITE *)(void *)(addr))-
  85:Drivers/CMSIS/Include/cmsis_gcc.h **** #endif
  86:Drivers/CMSIS/Include/cmsis_gcc.h **** #ifndef   __UNALIGNED_UINT16_READ
  87:Drivers/CMSIS/Include/cmsis_gcc.h ****   #pragma GCC diagnostic push
  88:Drivers/CMSIS/Include/cmsis_gcc.h ****   #pragma GCC diagnostic ignored "-Wpacked"
  89:Drivers/CMSIS/Include/cmsis_gcc.h ****   #pragma GCC diagnostic ignored "-Wattributes"
  90:Drivers/CMSIS/Include/cmsis_gcc.h ****   __PACKED_STRUCT T_UINT16_READ { uint16_t v; };
  91:Drivers/CMSIS/Include/cmsis_gcc.h ****   #pragma GCC diagnostic pop
  92:Drivers/CMSIS/Include/cmsis_gcc.h ****   #define __UNALIGNED_UINT16_READ(addr)          (((const struct T_UINT16_READ *)(const void *)(add
  93:Drivers/CMSIS/Include/cmsis_gcc.h **** #endif
  94:Drivers/CMSIS/Include/cmsis_gcc.h **** #ifndef   __UNALIGNED_UINT32_WRITE
  95:Drivers/CMSIS/Include/cmsis_gcc.h ****   #pragma GCC diagnostic push
  96:Drivers/CMSIS/Include/cmsis_gcc.h ****   #pragma GCC diagnostic ignored "-Wpacked"
  97:Drivers/CMSIS/Include/cmsis_gcc.h ****   #pragma GCC diagnostic ignored "-Wattributes"
  98:Drivers/CMSIS/Include/cmsis_gcc.h ****   __PACKED_STRUCT T_UINT32_WRITE { uint32_t v; };
  99:Drivers/CMSIS/Include/cmsis_gcc.h ****   #pragma GCC diagnostic pop
 100:Drivers/CMSIS/Include/cmsis_gcc.h ****   #define __UNALIGNED_UINT32_WRITE(addr, val)    (void)((((struct T_UINT32_WRITE *)(void *)(addr))-
 101:Drivers/CMSIS/Include/cmsis_gcc.h **** #endif
 102:Drivers/CMSIS/Include/cmsis_gcc.h **** #ifndef   __UNALIGNED_UINT32_READ
 103:Drivers/CMSIS/Include/cmsis_gcc.h ****   #pragma GCC diagnostic push
 104:Drivers/CMSIS/Include/cmsis_gcc.h ****   #pragma GCC diagnostic ignored "-Wpacked"
 105:Drivers/CMSIS/Include/cmsis_gcc.h ****   #pragma GCC diagnostic ignored "-Wattributes"
 106:Drivers/CMSIS/Include/cmsis_gcc.h ****   __PACKED_STRUCT T_UINT32_READ { uint32_t v; };
 107:Drivers/CMSIS/Include/cmsis_gcc.h ****   #pragma GCC diagnostic pop
 108:Drivers/CMSIS/Include/cmsis_gcc.h ****   #define __UNALIGNED_UINT32_READ(addr)          (((const struct T_UINT32_READ *)(const void *)(add
 109:Drivers/CMSIS/Include/cmsis_gcc.h **** #endif
 110:Drivers/CMSIS/Include/cmsis_gcc.h **** #ifndef   __ALIGNED
 111:Drivers/CMSIS/Include/cmsis_gcc.h ****   #define __ALIGNED(x)                           __attribute__((aligned(x)))
 112:Drivers/CMSIS/Include/cmsis_gcc.h **** #endif
 113:Drivers/CMSIS/Include/cmsis_gcc.h **** #ifndef   __RESTRICT
 114:Drivers/CMSIS/Include/cmsis_gcc.h ****   #define __RESTRICT                             __restrict
 115:Drivers/CMSIS/Include/cmsis_gcc.h **** #endif
 116:Drivers/CMSIS/Include/cmsis_gcc.h **** 
 117:Drivers/CMSIS/Include/cmsis_gcc.h **** 
 118:Drivers/CMSIS/Include/cmsis_gcc.h **** /* ###########################  Core Function Access  ########################### */
 119:Drivers/CMSIS/Include/cmsis_gcc.h **** /** \ingroup  CMSIS_Core_FunctionInterface
ARM GAS  C:\Users\Lenovo\AppData\Local\Temp\ccjBtyZh.s 			page 8


 120:Drivers/CMSIS/Include/cmsis_gcc.h ****     \defgroup CMSIS_Core_RegAccFunctions CMSIS Core Register Access Functions
 121:Drivers/CMSIS/Include/cmsis_gcc.h ****   @{
 122:Drivers/CMSIS/Include/cmsis_gcc.h ****  */
 123:Drivers/CMSIS/Include/cmsis_gcc.h **** 
 124:Drivers/CMSIS/Include/cmsis_gcc.h **** /**
 125:Drivers/CMSIS/Include/cmsis_gcc.h ****   \brief   Enable IRQ Interrupts
 126:Drivers/CMSIS/Include/cmsis_gcc.h ****   \details Enables IRQ interrupts by clearing the I-bit in the CPSR.
 127:Drivers/CMSIS/Include/cmsis_gcc.h ****            Can only be executed in Privileged modes.
 128:Drivers/CMSIS/Include/cmsis_gcc.h ****  */
 129:Drivers/CMSIS/Include/cmsis_gcc.h **** __STATIC_FORCEINLINE void __enable_irq(void)
 130:Drivers/CMSIS/Include/cmsis_gcc.h **** {
 131:Drivers/CMSIS/Include/cmsis_gcc.h ****   __ASM volatile ("cpsie i" : : : "memory");
 132:Drivers/CMSIS/Include/cmsis_gcc.h **** }
 133:Drivers/CMSIS/Include/cmsis_gcc.h **** 
 134:Drivers/CMSIS/Include/cmsis_gcc.h **** 
 135:Drivers/CMSIS/Include/cmsis_gcc.h **** /**
 136:Drivers/CMSIS/Include/cmsis_gcc.h ****   \brief   Disable IRQ Interrupts
 137:Drivers/CMSIS/Include/cmsis_gcc.h ****   \details Disables IRQ interrupts by setting the I-bit in the CPSR.
 138:Drivers/CMSIS/Include/cmsis_gcc.h ****            Can only be executed in Privileged modes.
 139:Drivers/CMSIS/Include/cmsis_gcc.h ****  */
 140:Drivers/CMSIS/Include/cmsis_gcc.h **** __STATIC_FORCEINLINE void __disable_irq(void)
 195              		.loc 3 140 27 view .LVU28
 196              	.LBB7:
 141:Drivers/CMSIS/Include/cmsis_gcc.h **** {
 142:Drivers/CMSIS/Include/cmsis_gcc.h ****   __ASM volatile ("cpsid i" : : : "memory");
 197              		.loc 3 142 3 view .LVU29
 198              		.syntax unified
 199              	@ 142 "Drivers/CMSIS/Include/cmsis_gcc.h" 1
 200 0002 72B6     		cpsid i
 201              	@ 0 "" 2
 202              		.thumb
 203              		.syntax unified
 204              	.LBE7:
 205              	.LBE6:
  11:application/plane.c ****     
  12:application/plane.c ****     Fly_init();
 206              		.loc 2 12 5 view .LVU30
 207 0004 FFF7FEFF 		bl	Fly_init
 208              	.LVL10:
  13:application/plane.c ****     DataPool_Init();
 209              		.loc 2 13 5 view .LVU31
 210 0008 FFF7FEFF 		bl	DataPool_Init
 211              	.LVL11:
  14:application/plane.c **** 
  15:application/plane.c ****     KalmanFilter_Init(&uwbkx);
 212              		.loc 2 15 5 view .LVU32
 213 000c 0648     		ldr	r0, .L13
 214 000e FFF7FEFF 		bl	KalmanFilter_Init
 215              	.LVL12:
  16:application/plane.c ****     KalmanFilter_Init(&uwbky);
 216              		.loc 2 16 5 view .LVU33
 217 0012 0648     		ldr	r0, .L13+4
 218 0014 FFF7FEFF 		bl	KalmanFilter_Init
 219              	.LVL13:
  17:application/plane.c ****     HAL_TIM_Base_Start_IT(&htim2);
 220              		.loc 2 17 5 view .LVU34
 221 0018 0548     		ldr	r0, .L13+8
ARM GAS  C:\Users\Lenovo\AppData\Local\Temp\ccjBtyZh.s 			page 9


 222 001a FFF7FEFF 		bl	HAL_TIM_Base_Start_IT
 223              	.LVL14:
  18:application/plane.c ****     OSTASKInit();
 224              		.loc 2 18 5 view .LVU35
 225 001e FFF7FEFF 		bl	OSTASKInit
 226              	.LVL15:
  19:application/plane.c **** 
  20:application/plane.c **** 
  21:application/plane.c ****     __enable_irq();
 227              		.loc 2 21 5 view .LVU36
 228              	.LBB8:
 229              	.LBI8:
 129:Drivers/CMSIS/Include/cmsis_gcc.h **** {
 230              		.loc 3 129 27 view .LVU37
 231              	.LBB9:
 131:Drivers/CMSIS/Include/cmsis_gcc.h **** }
 232              		.loc 3 131 3 view .LVU38
 233              		.syntax unified
 234              	@ 131 "Drivers/CMSIS/Include/cmsis_gcc.h" 1
 235 0022 62B6     		cpsie i
 236              	@ 0 "" 2
 237              		.thumb
 238              		.syntax unified
 239              	.LBE9:
 240              	.LBE8:
  22:application/plane.c **** }
 241              		.loc 2 22 1 is_stmt 0 view .LVU39
 242 0024 08BD     		pop	{r3, pc}
 243              	.L14:
 244 0026 00BF     		.align	2
 245              	.L13:
 246 0028 00000000 		.word	uwbkx
 247 002c 00000000 		.word	uwbky
 248 0030 00000000 		.word	htim2
 249              		.cfi_endproc
 250              	.LFE133:
 252              		.section	.text.FSM_Plane,"ax",%progbits
 253              		.align	1
 254              		.global	FSM_Plane
 255              		.syntax unified
 256              		.thumb
 257              		.thumb_func
 259              	FSM_Plane:
 260              	.LFB134:
  23:application/plane.c ****  
  24:application/plane.c **** uint8_t finish=0;//致敬九期天路机器人
  25:application/plane.c **** void FSM_Plane(void)
  26:application/plane.c **** {
 261              		.loc 2 26 1 is_stmt 1 view -0
 262              		.cfi_startproc
 263              		@ args = 0, pretend = 0, frame = 0
 264              		@ frame_needed = 0, uses_anonymous_args = 0
 265 0000 08B5     		push	{r3, lr}
 266              	.LCFI6:
 267              		.cfi_def_cfa_offset 8
 268              		.cfi_offset 3, -8
 269              		.cfi_offset 14, -4
ARM GAS  C:\Users\Lenovo\AppData\Local\Temp\ccjBtyZh.s 			page 10


  27:application/plane.c ****     switch(finish)
 270              		.loc 2 27 5 view .LVU41
 271 0002 084B     		ldr	r3, .L19
 272 0004 1B78     		ldrb	r3, [r3]	@ zero_extendqisi2
 273 0006 3BB9     		cbnz	r3, .L16
  28:application/plane.c ****     {
  29:application/plane.c ****         case 0:
  30:application/plane.c ****             if(StartFly())finish++;
 274              		.loc 2 30 13 view .LVU42
 275              		.loc 2 30 16 is_stmt 0 view .LVU43
 276 0008 FFF7FEFF 		bl	StartFly
 277              	.LVL16:
 278              		.loc 2 30 15 view .LVU44
 279 000c 40B1     		cbz	r0, .L15
 280              		.loc 2 30 27 is_stmt 1 discriminator 1 view .LVU45
 281              		.loc 2 30 33 is_stmt 0 discriminator 1 view .LVU46
 282 000e 054A     		ldr	r2, .L19
 283 0010 1378     		ldrb	r3, [r2]	@ zero_extendqisi2
 284 0012 0133     		adds	r3, r3, #1
 285 0014 1370     		strb	r3, [r2]
 286 0016 03E0     		b	.L15
 287              	.L16:
  31:application/plane.c ****         break;
  32:application/plane.c **** 
  33:application/plane.c ****         default:
  34:application/plane.c ****             Fly_FSM(1);
 288              		.loc 2 34 13 is_stmt 1 view .LVU47
 289 0018 4FF07E50 		mov	r0, #1065353216
 290 001c FFF7FEFF 		bl	Fly_FSM
 291              	.LVL17:
  35:application/plane.c ****         break;
 292              		.loc 2 35 9 view .LVU48
 293              	.L15:
  36:application/plane.c ****     }
  37:application/plane.c **** }
 294              		.loc 2 37 1 is_stmt 0 view .LVU49
 295 0020 08BD     		pop	{r3, pc}
 296              	.L20:
 297 0022 00BF     		.align	2
 298              	.L19:
 299 0024 00000000 		.word	.LANCHOR3
 300              		.cfi_endproc
 301              	.LFE134:
 303              		.section	.text.FlyTask,"ax",%progbits
 304              		.align	1
 305              		.global	FlyTask
 306              		.syntax unified
 307              		.thumb
 308              		.thumb_func
 310              	FlyTask:
 311              	.LFB132:
  70:application/plane_task.h ****     }
  71:application/plane_task.h **** }
  72:application/plane_task.h **** 
  73:application/plane_task.h **** 
  74:application/plane_task.h **** // int a=0;
  75:application/plane_task.h **** // /*命令发送函数*/
ARM GAS  C:\Users\Lenovo\AppData\Local\Temp\ccjBtyZh.s 			page 11


  76:application/plane_task.h **** // void SendCommandTask(void const *argument)
  77:application/plane_task.h **** // {
  78:application/plane_task.h **** //     unsigned char command[8];
  79:application/plane_task.h **** //     for (;;)
  80:application/plane_task.h **** //     {
  81:application/plane_task.h **** //         if(xQueueReceive(UART_TxPort, command, 0) == pdPASS)
  82:application/plane_task.h **** //         {
  83:application/plane_task.h **** //             a++;
  84:application/plane_task.h **** //             HAL_UART_Transmit(&huart3, command, 8, 1000);
  85:application/plane_task.h **** //         }
  86:application/plane_task.h **** //         osDelay(1);
  87:application/plane_task.h **** //     }
  88:application/plane_task.h **** // }
  89:application/plane_task.h **** 
  90:application/plane_task.h **** 
  91:application/plane_task.h **** /*飞行执行任务*/
  92:application/plane_task.h **** void FlyTask(void const *argument)
  93:application/plane_task.h **** {
 312              		.loc 1 93 1 is_stmt 1 view -0
 313              		.cfi_startproc
 314              		@ Volatile: function does not return.
 315              		@ args = 0, pretend = 0, frame = 0
 316              		@ frame_needed = 0, uses_anonymous_args = 0
 317              	.LVL18:
 318              		.loc 1 93 1 is_stmt 0 view .LVU51
 319 0000 08B5     		push	{r3, lr}
 320              	.LCFI7:
 321              		.cfi_def_cfa_offset 8
 322              		.cfi_offset 3, -8
 323              		.cfi_offset 14, -4
 324              	.LVL19:
 325              	.L22:
  94:application/plane_task.h ****     for (;;)
 326              		.loc 1 94 5 is_stmt 1 discriminator 1 view .LVU52
 327              	.LBB10:
  95:application/plane_task.h ****     {
  96:application/plane_task.h ****         // 100Hz
  97:application/plane_task.h ****         // PointTrace(1,1,1,1);
  98:application/plane_task.h ****         // HAL_UART_Transmit(&huart3, Height, 8, 1000);
  99:application/plane_task.h ****         // xQueueSendFromISR(UART_TxPort, Height, 0);
 100:application/plane_task.h ****         // HAL_Delay(10);
 101:application/plane_task.h ****         FSM_Plane();
 328              		.loc 1 101 9 discriminator 1 view .LVU53
 329 0002 FFF7FEFF 		bl	FSM_Plane
 330              	.LVL20:
 102:application/plane_task.h ****         osDelay(10);
 331              		.loc 1 102 9 discriminator 1 view .LVU54
 332 0006 0A20     		movs	r0, #10
 333 0008 FFF7FEFF 		bl	osDelay
 334              	.LVL21:
 335              	.LBE10:
  94:application/plane_task.h ****     for (;;)
 336              		.loc 1 94 11 discriminator 1 view .LVU55
 337 000c F9E7     		b	.L22
 338              		.cfi_endproc
 339              	.LFE132:
 341              		.global	finish
ARM GAS  C:\Users\Lenovo\AppData\Local\Temp\ccjBtyZh.s 			page 12


 342              		.global	FlyTaskHandle
 343              		.global	SendTaskHandle
 344              		.global	uwbTaskHandle
 345              		.global	insTaskHandle
 346              		.section	.rodata
 347              		.align	2
 348              		.set	.LANCHOR0,. + 0
 349              	.LC4:
 350 0000 00000000 		.word	.LC0
 351 0004 00000000 		.word	StartINSTASK
 352 0008 0100     		.short	1
 353 000a 0000     		.space	2
 354 000c 00000000 		.word	0
 355 0010 00040000 		.word	1024
 356 0014 00000000 		.word	0
 357 0018 00000000 		.word	0
 358              	.LC5:
 359 001c 08000000 		.word	.LC2
 360 0020 00000000 		.word	FlyTask
 361 0024 0000     		.short	0
 362 0026 0000     		.space	2
 363 0028 00000000 		.word	0
 364 002c 00020000 		.word	512
 365 0030 00000000 		.word	0
 366 0034 00000000 		.word	0
 367              		.section	.bss.FlyTaskHandle,"aw",%nobits
 368              		.align	2
 369              		.set	.LANCHOR2,. + 0
 372              	FlyTaskHandle:
 373 0000 00000000 		.space	4
 374              		.section	.bss.SendTaskHandle,"aw",%nobits
 375              		.align	2
 378              	SendTaskHandle:
 379 0000 00000000 		.space	4
 380              		.section	.bss.finish,"aw",%nobits
 381              		.set	.LANCHOR3,. + 0
 384              	finish:
 385 0000 00       		.space	1
 386              		.section	.bss.insTaskHandle,"aw",%nobits
 387              		.align	2
 388              		.set	.LANCHOR1,. + 0
 391              	insTaskHandle:
 392 0000 00000000 		.space	4
 393              		.section	.bss.uwbTaskHandle,"aw",%nobits
 394              		.align	2
 397              	uwbTaskHandle:
 398 0000 00000000 		.space	4
 399              		.text
 400              	.Letext0:
 401              		.file 4 "d:\\gnu arm embedded toolchain\\10 2021.10\\arm-none-eabi\\include\\machine\\_default_typ
 402              		.file 5 "d:\\gnu arm embedded toolchain\\10 2021.10\\arm-none-eabi\\include\\sys\\_stdint.h"
 403              		.file 6 "Middlewares/Third_Party/FreeRTOS/Source/portable/GCC/ARM_CM3/portmacro.h"
 404              		.file 7 "Middlewares/Third_Party/FreeRTOS/Source/include/FreeRTOS.h"
 405              		.file 8 "Drivers/CMSIS/Device/ST/STM32F1xx/Include/stm32f103xb.h"
 406              		.file 9 "Drivers/STM32F1xx_HAL_Driver/Inc/stm32f1xx_hal_def.h"
 407              		.file 10 "Drivers/STM32F1xx_HAL_Driver/Inc/stm32f1xx_hal_dma.h"
 408              		.file 11 "Drivers/STM32F1xx_HAL_Driver/Inc/stm32f1xx_hal_tim.h"
ARM GAS  C:\Users\Lenovo\AppData\Local\Temp\ccjBtyZh.s 			page 13


 409              		.file 12 "Middlewares/Third_Party/FreeRTOS/Source/include/task.h"
 410              		.file 13 "Middlewares/Third_Party/FreeRTOS/Source/CMSIS_RTOS/cmsis_os.h"
 411              		.file 14 "DWM1000/Inc/trilateration.h"
 412              		.file 15 "Core/Inc/tim.h"
 413              		.file 16 "application/plane.h"
 414              		.file 17 "move/Inc/Movebase.h"
 415              		.file 18 "application/data_pool.h"
 416              		.file 19 "DWM1000/Inc/ex_05a_main.h"
 417              		.file 20 "BMI088/Inc/ins_task.h"
ARM GAS  C:\Users\Lenovo\AppData\Local\Temp\ccjBtyZh.s 			page 14


DEFINED SYMBOLS
                            *ABS*:00000000 plane.c
C:\Users\Lenovo\AppData\Local\Temp\ccjBtyZh.s:15     .rodata.str1.4:00000000 $d
C:\Users\Lenovo\AppData\Local\Temp\ccjBtyZh.s:25     .text.StartINSTASK:00000000 $t
C:\Users\Lenovo\AppData\Local\Temp\ccjBtyZh.s:31     .text.StartINSTASK:00000000 StartINSTASK
C:\Users\Lenovo\AppData\Local\Temp\ccjBtyZh.s:66     .text.OSTASKInit:00000000 $t
C:\Users\Lenovo\AppData\Local\Temp\ccjBtyZh.s:72     .text.OSTASKInit:00000000 OSTASKInit
C:\Users\Lenovo\AppData\Local\Temp\ccjBtyZh.s:128    .text.OSTASKInit:00000050 $d
C:\Users\Lenovo\AppData\Local\Temp\ccjBtyZh.s:135    .text.StartUWBTask:00000000 $t
C:\Users\Lenovo\AppData\Local\Temp\ccjBtyZh.s:141    .text.StartUWBTask:00000000 StartUWBTask
C:\Users\Lenovo\AppData\Local\Temp\ccjBtyZh.s:173    .text.PlaneInit:00000000 $t
C:\Users\Lenovo\AppData\Local\Temp\ccjBtyZh.s:179    .text.PlaneInit:00000000 PlaneInit
C:\Users\Lenovo\AppData\Local\Temp\ccjBtyZh.s:246    .text.PlaneInit:00000028 $d
C:\Users\Lenovo\AppData\Local\Temp\ccjBtyZh.s:253    .text.FSM_Plane:00000000 $t
C:\Users\Lenovo\AppData\Local\Temp\ccjBtyZh.s:259    .text.FSM_Plane:00000000 FSM_Plane
C:\Users\Lenovo\AppData\Local\Temp\ccjBtyZh.s:299    .text.FSM_Plane:00000024 $d
C:\Users\Lenovo\AppData\Local\Temp\ccjBtyZh.s:304    .text.FlyTask:00000000 $t
C:\Users\Lenovo\AppData\Local\Temp\ccjBtyZh.s:310    .text.FlyTask:00000000 FlyTask
C:\Users\Lenovo\AppData\Local\Temp\ccjBtyZh.s:384    .bss.finish:00000000 finish
C:\Users\Lenovo\AppData\Local\Temp\ccjBtyZh.s:372    .bss.FlyTaskHandle:00000000 FlyTaskHandle
C:\Users\Lenovo\AppData\Local\Temp\ccjBtyZh.s:378    .bss.SendTaskHandle:00000000 SendTaskHandle
C:\Users\Lenovo\AppData\Local\Temp\ccjBtyZh.s:397    .bss.uwbTaskHandle:00000000 uwbTaskHandle
C:\Users\Lenovo\AppData\Local\Temp\ccjBtyZh.s:391    .bss.insTaskHandle:00000000 insTaskHandle
C:\Users\Lenovo\AppData\Local\Temp\ccjBtyZh.s:347    .rodata:00000000 $d
C:\Users\Lenovo\AppData\Local\Temp\ccjBtyZh.s:368    .bss.FlyTaskHandle:00000000 $d
C:\Users\Lenovo\AppData\Local\Temp\ccjBtyZh.s:375    .bss.SendTaskHandle:00000000 $d
C:\Users\Lenovo\AppData\Local\Temp\ccjBtyZh.s:385    .bss.finish:00000000 $d
C:\Users\Lenovo\AppData\Local\Temp\ccjBtyZh.s:387    .bss.insTaskHandle:00000000 $d
C:\Users\Lenovo\AppData\Local\Temp\ccjBtyZh.s:394    .bss.uwbTaskHandle:00000000 $d

UNDEFINED SYMBOLS
INS_Init
INS_Task
osDelay
osThreadCreate
dw_init
dw_Receive
Fly_init
DataPool_Init
KalmanFilter_Init
HAL_TIM_Base_Start_IT
uwbkx
uwbky
htim2
StartFly
Fly_FSM
