ARM GAS  C:\Users\Lenovo\AppData\Local\Temp\cc82VIOh.s 			page 1


   1              		.cpu cortex-m3
   2              		.arch armv7-m
   3              		.fpu softvfp
   4              		.eabi_attribute 20, 1
   5              		.eabi_attribute 21, 1
   6              		.eabi_attribute 23, 3
   7              		.eabi_attribute 24, 1
   8              		.eabi_attribute 25, 1
   9              		.eabi_attribute 26, 1
  10              		.eabi_attribute 30, 1
  11              		.eabi_attribute 34, 1
  12              		.eabi_attribute 18, 4
  13              		.file	"spi.c"
  14              		.text
  15              	.Ltext0:
  16              		.cfi_sections	.debug_frame
  17              		.section	.text.MX_SPI1_Init,"ax",%progbits
  18              		.align	1
  19              		.global	MX_SPI1_Init
  20              		.syntax unified
  21              		.thumb
  22              		.thumb_func
  24              	MX_SPI1_Init:
  25              	.LFB65:
  26              		.file 1 "Core/Src/spi.c"
   1:Core/Src/spi.c **** /* USER CODE BEGIN Header */
   2:Core/Src/spi.c **** /**
   3:Core/Src/spi.c ****   ******************************************************************************
   4:Core/Src/spi.c ****   * @file    spi.c
   5:Core/Src/spi.c ****   * @brief   This file provides code for the configuration
   6:Core/Src/spi.c ****   *          of the SPI instances.
   7:Core/Src/spi.c ****   ******************************************************************************
   8:Core/Src/spi.c ****   * @attention
   9:Core/Src/spi.c ****   *
  10:Core/Src/spi.c ****   * Copyright (c) 2024 STMicroelectronics.
  11:Core/Src/spi.c ****   * All rights reserved.
  12:Core/Src/spi.c ****   *
  13:Core/Src/spi.c ****   * This software is licensed under terms that can be found in the LICENSE file
  14:Core/Src/spi.c ****   * in the root directory of this software component.
  15:Core/Src/spi.c ****   * If no LICENSE file comes with this software, it is provided AS-IS.
  16:Core/Src/spi.c ****   *
  17:Core/Src/spi.c ****   ******************************************************************************
  18:Core/Src/spi.c ****   */
  19:Core/Src/spi.c **** /* USER CODE END Header */
  20:Core/Src/spi.c **** /* Includes ------------------------------------------------------------------*/
  21:Core/Src/spi.c **** #include "spi.h"
  22:Core/Src/spi.c **** 
  23:Core/Src/spi.c **** /* USER CODE BEGIN 0 */
  24:Core/Src/spi.c **** 
  25:Core/Src/spi.c **** /* USER CODE END 0 */
  26:Core/Src/spi.c **** 
  27:Core/Src/spi.c **** SPI_HandleTypeDef hspi1;
  28:Core/Src/spi.c **** SPI_HandleTypeDef hspi2;
  29:Core/Src/spi.c **** DMA_HandleTypeDef hdma_spi2_rx;
  30:Core/Src/spi.c **** DMA_HandleTypeDef hdma_spi2_tx;
  31:Core/Src/spi.c **** 
  32:Core/Src/spi.c **** /* SPI1 init function */
ARM GAS  C:\Users\Lenovo\AppData\Local\Temp\cc82VIOh.s 			page 2


  33:Core/Src/spi.c **** void MX_SPI1_Init(void)
  34:Core/Src/spi.c **** {
  27              		.loc 1 34 1 view -0
  28              		.cfi_startproc
  29              		@ args = 0, pretend = 0, frame = 0
  30              		@ frame_needed = 0, uses_anonymous_args = 0
  31 0000 08B5     		push	{r3, lr}
  32              	.LCFI0:
  33              		.cfi_def_cfa_offset 8
  34              		.cfi_offset 3, -8
  35              		.cfi_offset 14, -4
  35:Core/Src/spi.c **** 
  36:Core/Src/spi.c ****   /* USER CODE BEGIN SPI1_Init 0 */
  37:Core/Src/spi.c **** 
  38:Core/Src/spi.c ****   /* USER CODE END SPI1_Init 0 */
  39:Core/Src/spi.c **** 
  40:Core/Src/spi.c ****   /* USER CODE BEGIN SPI1_Init 1 */
  41:Core/Src/spi.c **** 
  42:Core/Src/spi.c ****   /* USER CODE END SPI1_Init 1 */
  43:Core/Src/spi.c ****   hspi1.Instance = SPI1;
  36              		.loc 1 43 3 view .LVU1
  37              		.loc 1 43 18 is_stmt 0 view .LVU2
  38 0002 0E48     		ldr	r0, .L5
  39 0004 0E4B     		ldr	r3, .L5+4
  40 0006 0360     		str	r3, [r0]
  44:Core/Src/spi.c ****   hspi1.Init.Mode = SPI_MODE_MASTER;
  41              		.loc 1 44 3 is_stmt 1 view .LVU3
  42              		.loc 1 44 19 is_stmt 0 view .LVU4
  43 0008 4FF48273 		mov	r3, #260
  44 000c 4360     		str	r3, [r0, #4]
  45:Core/Src/spi.c ****   hspi1.Init.Direction = SPI_DIRECTION_2LINES;
  45              		.loc 1 45 3 is_stmt 1 view .LVU5
  46              		.loc 1 45 24 is_stmt 0 view .LVU6
  47 000e 0023     		movs	r3, #0
  48 0010 8360     		str	r3, [r0, #8]
  46:Core/Src/spi.c ****   hspi1.Init.DataSize = SPI_DATASIZE_8BIT;
  49              		.loc 1 46 3 is_stmt 1 view .LVU7
  50              		.loc 1 46 23 is_stmt 0 view .LVU8
  51 0012 C360     		str	r3, [r0, #12]
  47:Core/Src/spi.c ****   hspi1.Init.CLKPolarity = SPI_POLARITY_LOW;
  52              		.loc 1 47 3 is_stmt 1 view .LVU9
  53              		.loc 1 47 26 is_stmt 0 view .LVU10
  54 0014 0361     		str	r3, [r0, #16]
  48:Core/Src/spi.c ****   hspi1.Init.CLKPhase = SPI_PHASE_1EDGE;
  55              		.loc 1 48 3 is_stmt 1 view .LVU11
  56              		.loc 1 48 23 is_stmt 0 view .LVU12
  57 0016 4361     		str	r3, [r0, #20]
  49:Core/Src/spi.c ****   hspi1.Init.NSS = SPI_NSS_SOFT;
  58              		.loc 1 49 3 is_stmt 1 view .LVU13
  59              		.loc 1 49 18 is_stmt 0 view .LVU14
  60 0018 4FF40072 		mov	r2, #512
  61 001c 8261     		str	r2, [r0, #24]
  50:Core/Src/spi.c ****   hspi1.Init.BaudRatePrescaler = SPI_BAUDRATEPRESCALER_32;
  62              		.loc 1 50 3 is_stmt 1 view .LVU15
  63              		.loc 1 50 32 is_stmt 0 view .LVU16
  64 001e 2022     		movs	r2, #32
  65 0020 C261     		str	r2, [r0, #28]
ARM GAS  C:\Users\Lenovo\AppData\Local\Temp\cc82VIOh.s 			page 3


  51:Core/Src/spi.c ****   hspi1.Init.FirstBit = SPI_FIRSTBIT_MSB;
  66              		.loc 1 51 3 is_stmt 1 view .LVU17
  67              		.loc 1 51 23 is_stmt 0 view .LVU18
  68 0022 0362     		str	r3, [r0, #32]
  52:Core/Src/spi.c ****   hspi1.Init.TIMode = SPI_TIMODE_DISABLE;
  69              		.loc 1 52 3 is_stmt 1 view .LVU19
  70              		.loc 1 52 21 is_stmt 0 view .LVU20
  71 0024 4362     		str	r3, [r0, #36]
  53:Core/Src/spi.c ****   hspi1.Init.CRCCalculation = SPI_CRCCALCULATION_DISABLE;
  72              		.loc 1 53 3 is_stmt 1 view .LVU21
  73              		.loc 1 53 29 is_stmt 0 view .LVU22
  74 0026 8362     		str	r3, [r0, #40]
  54:Core/Src/spi.c ****   hspi1.Init.CRCPolynomial = 10;
  75              		.loc 1 54 3 is_stmt 1 view .LVU23
  76              		.loc 1 54 28 is_stmt 0 view .LVU24
  77 0028 0A23     		movs	r3, #10
  78 002a C362     		str	r3, [r0, #44]
  55:Core/Src/spi.c ****   if (HAL_SPI_Init(&hspi1) != HAL_OK)
  79              		.loc 1 55 3 is_stmt 1 view .LVU25
  80              		.loc 1 55 7 is_stmt 0 view .LVU26
  81 002c FFF7FEFF 		bl	HAL_SPI_Init
  82              	.LVL0:
  83              		.loc 1 55 6 view .LVU27
  84 0030 00B9     		cbnz	r0, .L4
  85              	.L1:
  56:Core/Src/spi.c ****   {
  57:Core/Src/spi.c ****     Error_Handler();
  58:Core/Src/spi.c ****   }
  59:Core/Src/spi.c ****   /* USER CODE BEGIN SPI1_Init 2 */
  60:Core/Src/spi.c **** 
  61:Core/Src/spi.c ****   /* USER CODE END SPI1_Init 2 */
  62:Core/Src/spi.c **** 
  63:Core/Src/spi.c **** }
  86              		.loc 1 63 1 view .LVU28
  87 0032 08BD     		pop	{r3, pc}
  88              	.L4:
  57:Core/Src/spi.c ****   }
  89              		.loc 1 57 5 is_stmt 1 view .LVU29
  90 0034 FFF7FEFF 		bl	Error_Handler
  91              	.LVL1:
  92              		.loc 1 63 1 is_stmt 0 view .LVU30
  93 0038 FBE7     		b	.L1
  94              	.L6:
  95 003a 00BF     		.align	2
  96              	.L5:
  97 003c 00000000 		.word	.LANCHOR0
  98 0040 00300140 		.word	1073819648
  99              		.cfi_endproc
 100              	.LFE65:
 102              		.section	.text.MX_SPI2_Init,"ax",%progbits
 103              		.align	1
 104              		.global	MX_SPI2_Init
 105              		.syntax unified
 106              		.thumb
 107              		.thumb_func
 109              	MX_SPI2_Init:
 110              	.LFB66:
ARM GAS  C:\Users\Lenovo\AppData\Local\Temp\cc82VIOh.s 			page 4


  64:Core/Src/spi.c **** /* SPI2 init function */
  65:Core/Src/spi.c **** void MX_SPI2_Init(void)
  66:Core/Src/spi.c **** {
 111              		.loc 1 66 1 is_stmt 1 view -0
 112              		.cfi_startproc
 113              		@ args = 0, pretend = 0, frame = 0
 114              		@ frame_needed = 0, uses_anonymous_args = 0
 115 0000 08B5     		push	{r3, lr}
 116              	.LCFI1:
 117              		.cfi_def_cfa_offset 8
 118              		.cfi_offset 3, -8
 119              		.cfi_offset 14, -4
  67:Core/Src/spi.c **** 
  68:Core/Src/spi.c ****   /* USER CODE BEGIN SPI2_Init 0 */
  69:Core/Src/spi.c **** 
  70:Core/Src/spi.c ****   /* USER CODE END SPI2_Init 0 */
  71:Core/Src/spi.c **** 
  72:Core/Src/spi.c ****   /* USER CODE BEGIN SPI2_Init 1 */
  73:Core/Src/spi.c **** 
  74:Core/Src/spi.c ****   /* USER CODE END SPI2_Init 1 */
  75:Core/Src/spi.c ****   hspi2.Instance = SPI2;
 120              		.loc 1 75 3 view .LVU32
 121              		.loc 1 75 18 is_stmt 0 view .LVU33
 122 0002 0F48     		ldr	r0, .L11
 123 0004 0F4B     		ldr	r3, .L11+4
 124 0006 0360     		str	r3, [r0]
  76:Core/Src/spi.c ****   hspi2.Init.Mode = SPI_MODE_MASTER;
 125              		.loc 1 76 3 is_stmt 1 view .LVU34
 126              		.loc 1 76 19 is_stmt 0 view .LVU35
 127 0008 4FF48273 		mov	r3, #260
 128 000c 4360     		str	r3, [r0, #4]
  77:Core/Src/spi.c ****   hspi2.Init.Direction = SPI_DIRECTION_2LINES;
 129              		.loc 1 77 3 is_stmt 1 view .LVU36
 130              		.loc 1 77 24 is_stmt 0 view .LVU37
 131 000e 0023     		movs	r3, #0
 132 0010 8360     		str	r3, [r0, #8]
  78:Core/Src/spi.c ****   hspi2.Init.DataSize = SPI_DATASIZE_8BIT;
 133              		.loc 1 78 3 is_stmt 1 view .LVU38
 134              		.loc 1 78 23 is_stmt 0 view .LVU39
 135 0012 C360     		str	r3, [r0, #12]
  79:Core/Src/spi.c ****   hspi2.Init.CLKPolarity = SPI_POLARITY_HIGH;
 136              		.loc 1 79 3 is_stmt 1 view .LVU40
 137              		.loc 1 79 26 is_stmt 0 view .LVU41
 138 0014 0222     		movs	r2, #2
 139 0016 0261     		str	r2, [r0, #16]
  80:Core/Src/spi.c ****   hspi2.Init.CLKPhase = SPI_PHASE_2EDGE;
 140              		.loc 1 80 3 is_stmt 1 view .LVU42
 141              		.loc 1 80 23 is_stmt 0 view .LVU43
 142 0018 0122     		movs	r2, #1
 143 001a 4261     		str	r2, [r0, #20]
  81:Core/Src/spi.c ****   hspi2.Init.NSS = SPI_NSS_SOFT;
 144              		.loc 1 81 3 is_stmt 1 view .LVU44
 145              		.loc 1 81 18 is_stmt 0 view .LVU45
 146 001c 4FF40072 		mov	r2, #512
 147 0020 8261     		str	r2, [r0, #24]
  82:Core/Src/spi.c ****   hspi2.Init.BaudRatePrescaler = SPI_BAUDRATEPRESCALER_64;
 148              		.loc 1 82 3 is_stmt 1 view .LVU46
ARM GAS  C:\Users\Lenovo\AppData\Local\Temp\cc82VIOh.s 			page 5


 149              		.loc 1 82 32 is_stmt 0 view .LVU47
 150 0022 2822     		movs	r2, #40
 151 0024 C261     		str	r2, [r0, #28]
  83:Core/Src/spi.c ****   hspi2.Init.FirstBit = SPI_FIRSTBIT_MSB;
 152              		.loc 1 83 3 is_stmt 1 view .LVU48
 153              		.loc 1 83 23 is_stmt 0 view .LVU49
 154 0026 0362     		str	r3, [r0, #32]
  84:Core/Src/spi.c ****   hspi2.Init.TIMode = SPI_TIMODE_DISABLE;
 155              		.loc 1 84 3 is_stmt 1 view .LVU50
 156              		.loc 1 84 21 is_stmt 0 view .LVU51
 157 0028 4362     		str	r3, [r0, #36]
  85:Core/Src/spi.c ****   hspi2.Init.CRCCalculation = SPI_CRCCALCULATION_DISABLE;
 158              		.loc 1 85 3 is_stmt 1 view .LVU52
 159              		.loc 1 85 29 is_stmt 0 view .LVU53
 160 002a 8362     		str	r3, [r0, #40]
  86:Core/Src/spi.c ****   hspi2.Init.CRCPolynomial = 10;
 161              		.loc 1 86 3 is_stmt 1 view .LVU54
 162              		.loc 1 86 28 is_stmt 0 view .LVU55
 163 002c 0A23     		movs	r3, #10
 164 002e C362     		str	r3, [r0, #44]
  87:Core/Src/spi.c ****   if (HAL_SPI_Init(&hspi2) != HAL_OK)
 165              		.loc 1 87 3 is_stmt 1 view .LVU56
 166              		.loc 1 87 7 is_stmt 0 view .LVU57
 167 0030 FFF7FEFF 		bl	HAL_SPI_Init
 168              	.LVL2:
 169              		.loc 1 87 6 view .LVU58
 170 0034 00B9     		cbnz	r0, .L10
 171              	.L7:
  88:Core/Src/spi.c ****   {
  89:Core/Src/spi.c ****     Error_Handler();
  90:Core/Src/spi.c ****   }
  91:Core/Src/spi.c ****   /* USER CODE BEGIN SPI2_Init 2 */
  92:Core/Src/spi.c **** 
  93:Core/Src/spi.c ****   /* USER CODE END SPI2_Init 2 */
  94:Core/Src/spi.c **** 
  95:Core/Src/spi.c **** }
 172              		.loc 1 95 1 view .LVU59
 173 0036 08BD     		pop	{r3, pc}
 174              	.L10:
  89:Core/Src/spi.c ****   }
 175              		.loc 1 89 5 is_stmt 1 view .LVU60
 176 0038 FFF7FEFF 		bl	Error_Handler
 177              	.LVL3:
 178              		.loc 1 95 1 is_stmt 0 view .LVU61
 179 003c FBE7     		b	.L7
 180              	.L12:
 181 003e 00BF     		.align	2
 182              	.L11:
 183 0040 00000000 		.word	.LANCHOR1
 184 0044 00380040 		.word	1073756160
 185              		.cfi_endproc
 186              	.LFE66:
 188              		.section	.text.HAL_SPI_MspInit,"ax",%progbits
 189              		.align	1
 190              		.global	HAL_SPI_MspInit
 191              		.syntax unified
 192              		.thumb
ARM GAS  C:\Users\Lenovo\AppData\Local\Temp\cc82VIOh.s 			page 6


 193              		.thumb_func
 195              	HAL_SPI_MspInit:
 196              	.LVL4:
 197              	.LFB67:
  96:Core/Src/spi.c **** 
  97:Core/Src/spi.c **** void HAL_SPI_MspInit(SPI_HandleTypeDef* spiHandle)
  98:Core/Src/spi.c **** {
 198              		.loc 1 98 1 is_stmt 1 view -0
 199              		.cfi_startproc
 200              		@ args = 0, pretend = 0, frame = 32
 201              		@ frame_needed = 0, uses_anonymous_args = 0
 202              		.loc 1 98 1 is_stmt 0 view .LVU63
 203 0000 70B5     		push	{r4, r5, r6, lr}
 204              	.LCFI2:
 205              		.cfi_def_cfa_offset 16
 206              		.cfi_offset 4, -16
 207              		.cfi_offset 5, -12
 208              		.cfi_offset 6, -8
 209              		.cfi_offset 14, -4
 210 0002 88B0     		sub	sp, sp, #32
 211              	.LCFI3:
 212              		.cfi_def_cfa_offset 48
  99:Core/Src/spi.c **** 
 100:Core/Src/spi.c ****   GPIO_InitTypeDef GPIO_InitStruct = {0};
 213              		.loc 1 100 3 is_stmt 1 view .LVU64
 214              		.loc 1 100 20 is_stmt 0 view .LVU65
 215 0004 0023     		movs	r3, #0
 216 0006 0493     		str	r3, [sp, #16]
 217 0008 0593     		str	r3, [sp, #20]
 218 000a 0693     		str	r3, [sp, #24]
 219 000c 0793     		str	r3, [sp, #28]
 101:Core/Src/spi.c ****   if(spiHandle->Instance==SPI1)
 220              		.loc 1 101 3 is_stmt 1 view .LVU66
 221              		.loc 1 101 15 is_stmt 0 view .LVU67
 222 000e 0368     		ldr	r3, [r0]
 223              		.loc 1 101 5 view .LVU68
 224 0010 444A     		ldr	r2, .L23
 225 0012 9342     		cmp	r3, r2
 226 0014 05D0     		beq	.L19
 227 0016 0446     		mov	r4, r0
 102:Core/Src/spi.c ****   {
 103:Core/Src/spi.c ****   /* USER CODE BEGIN SPI1_MspInit 0 */
 104:Core/Src/spi.c **** 
 105:Core/Src/spi.c ****   /* USER CODE END SPI1_MspInit 0 */
 106:Core/Src/spi.c ****     /* SPI1 clock enable */
 107:Core/Src/spi.c ****     __HAL_RCC_SPI1_CLK_ENABLE();
 108:Core/Src/spi.c **** 
 109:Core/Src/spi.c ****     __HAL_RCC_GPIOA_CLK_ENABLE();
 110:Core/Src/spi.c ****     /**SPI1 GPIO Configuration
 111:Core/Src/spi.c ****     PA5     ------> SPI1_SCK
 112:Core/Src/spi.c ****     PA6     ------> SPI1_MISO
 113:Core/Src/spi.c ****     PA7     ------> SPI1_MOSI
 114:Core/Src/spi.c ****     */
 115:Core/Src/spi.c ****     GPIO_InitStruct.Pin = GPIO_PIN_5|GPIO_PIN_7;
 116:Core/Src/spi.c ****     GPIO_InitStruct.Mode = GPIO_MODE_AF_PP;
 117:Core/Src/spi.c ****     GPIO_InitStruct.Speed = GPIO_SPEED_FREQ_HIGH;
 118:Core/Src/spi.c ****     HAL_GPIO_Init(GPIOA, &GPIO_InitStruct);
ARM GAS  C:\Users\Lenovo\AppData\Local\Temp\cc82VIOh.s 			page 7


 119:Core/Src/spi.c **** 
 120:Core/Src/spi.c ****     GPIO_InitStruct.Pin = GPIO_PIN_6;
 121:Core/Src/spi.c ****     GPIO_InitStruct.Mode = GPIO_MODE_INPUT;
 122:Core/Src/spi.c ****     GPIO_InitStruct.Pull = GPIO_NOPULL;
 123:Core/Src/spi.c ****     HAL_GPIO_Init(GPIOA, &GPIO_InitStruct);
 124:Core/Src/spi.c **** 
 125:Core/Src/spi.c ****   /* USER CODE BEGIN SPI1_MspInit 1 */
 126:Core/Src/spi.c **** 
 127:Core/Src/spi.c ****   /* USER CODE END SPI1_MspInit 1 */
 128:Core/Src/spi.c ****   }
 129:Core/Src/spi.c ****   else if(spiHandle->Instance==SPI2)
 228              		.loc 1 129 8 is_stmt 1 view .LVU69
 229              		.loc 1 129 10 is_stmt 0 view .LVU70
 230 0018 434A     		ldr	r2, .L23+4
 231 001a 9342     		cmp	r3, r2
 232 001c 29D0     		beq	.L20
 233              	.LVL5:
 234              	.L13:
 130:Core/Src/spi.c ****   {
 131:Core/Src/spi.c ****   /* USER CODE BEGIN SPI2_MspInit 0 */
 132:Core/Src/spi.c **** 
 133:Core/Src/spi.c ****   /* USER CODE END SPI2_MspInit 0 */
 134:Core/Src/spi.c ****     /* SPI2 clock enable */
 135:Core/Src/spi.c ****     __HAL_RCC_SPI2_CLK_ENABLE();
 136:Core/Src/spi.c **** 
 137:Core/Src/spi.c ****     __HAL_RCC_GPIOB_CLK_ENABLE();
 138:Core/Src/spi.c ****     /**SPI2 GPIO Configuration
 139:Core/Src/spi.c ****     PB13     ------> SPI2_SCK
 140:Core/Src/spi.c ****     PB14     ------> SPI2_MISO
 141:Core/Src/spi.c ****     PB15     ------> SPI2_MOSI
 142:Core/Src/spi.c ****     */
 143:Core/Src/spi.c ****     GPIO_InitStruct.Pin = GPIO_PIN_13|GPIO_PIN_15;
 144:Core/Src/spi.c ****     GPIO_InitStruct.Mode = GPIO_MODE_AF_PP;
 145:Core/Src/spi.c ****     GPIO_InitStruct.Speed = GPIO_SPEED_FREQ_HIGH;
 146:Core/Src/spi.c ****     HAL_GPIO_Init(GPIOB, &GPIO_InitStruct);
 147:Core/Src/spi.c **** 
 148:Core/Src/spi.c ****     GPIO_InitStruct.Pin = GPIO_PIN_14;
 149:Core/Src/spi.c ****     GPIO_InitStruct.Mode = GPIO_MODE_INPUT;
 150:Core/Src/spi.c ****     GPIO_InitStruct.Pull = GPIO_NOPULL;
 151:Core/Src/spi.c ****     HAL_GPIO_Init(GPIOB, &GPIO_InitStruct);
 152:Core/Src/spi.c **** 
 153:Core/Src/spi.c ****     /* SPI2 DMA Init */
 154:Core/Src/spi.c ****     /* SPI2_RX Init */
 155:Core/Src/spi.c ****     hdma_spi2_rx.Instance = DMA1_Channel4;
 156:Core/Src/spi.c ****     hdma_spi2_rx.Init.Direction = DMA_PERIPH_TO_MEMORY;
 157:Core/Src/spi.c ****     hdma_spi2_rx.Init.PeriphInc = DMA_PINC_DISABLE;
 158:Core/Src/spi.c ****     hdma_spi2_rx.Init.MemInc = DMA_MINC_ENABLE;
 159:Core/Src/spi.c ****     hdma_spi2_rx.Init.PeriphDataAlignment = DMA_PDATAALIGN_BYTE;
 160:Core/Src/spi.c ****     hdma_spi2_rx.Init.MemDataAlignment = DMA_MDATAALIGN_BYTE;
 161:Core/Src/spi.c ****     hdma_spi2_rx.Init.Mode = DMA_NORMAL;
 162:Core/Src/spi.c ****     hdma_spi2_rx.Init.Priority = DMA_PRIORITY_VERY_HIGH;
 163:Core/Src/spi.c ****     if (HAL_DMA_Init(&hdma_spi2_rx) != HAL_OK)
 164:Core/Src/spi.c ****     {
 165:Core/Src/spi.c ****       Error_Handler();
 166:Core/Src/spi.c ****     }
 167:Core/Src/spi.c **** 
 168:Core/Src/spi.c ****     __HAL_LINKDMA(spiHandle,hdmarx,hdma_spi2_rx);
ARM GAS  C:\Users\Lenovo\AppData\Local\Temp\cc82VIOh.s 			page 8


 169:Core/Src/spi.c **** 
 170:Core/Src/spi.c ****     /* SPI2_TX Init */
 171:Core/Src/spi.c ****     hdma_spi2_tx.Instance = DMA1_Channel5;
 172:Core/Src/spi.c ****     hdma_spi2_tx.Init.Direction = DMA_MEMORY_TO_PERIPH;
 173:Core/Src/spi.c ****     hdma_spi2_tx.Init.PeriphInc = DMA_PINC_DISABLE;
 174:Core/Src/spi.c ****     hdma_spi2_tx.Init.MemInc = DMA_MINC_ENABLE;
 175:Core/Src/spi.c ****     hdma_spi2_tx.Init.PeriphDataAlignment = DMA_PDATAALIGN_BYTE;
 176:Core/Src/spi.c ****     hdma_spi2_tx.Init.MemDataAlignment = DMA_MDATAALIGN_BYTE;
 177:Core/Src/spi.c ****     hdma_spi2_tx.Init.Mode = DMA_NORMAL;
 178:Core/Src/spi.c ****     hdma_spi2_tx.Init.Priority = DMA_PRIORITY_HIGH;
 179:Core/Src/spi.c ****     if (HAL_DMA_Init(&hdma_spi2_tx) != HAL_OK)
 180:Core/Src/spi.c ****     {
 181:Core/Src/spi.c ****       Error_Handler();
 182:Core/Src/spi.c ****     }
 183:Core/Src/spi.c **** 
 184:Core/Src/spi.c ****     __HAL_LINKDMA(spiHandle,hdmatx,hdma_spi2_tx);
 185:Core/Src/spi.c **** 
 186:Core/Src/spi.c ****   /* USER CODE BEGIN SPI2_MspInit 1 */
 187:Core/Src/spi.c **** 
 188:Core/Src/spi.c ****   /* USER CODE END SPI2_MspInit 1 */
 189:Core/Src/spi.c ****   }
 190:Core/Src/spi.c **** }
 235              		.loc 1 190 1 view .LVU71
 236 001e 08B0     		add	sp, sp, #32
 237              	.LCFI4:
 238              		.cfi_remember_state
 239              		.cfi_def_cfa_offset 16
 240              		@ sp needed
 241 0020 70BD     		pop	{r4, r5, r6, pc}
 242              	.LVL6:
 243              	.L19:
 244              	.LCFI5:
 245              		.cfi_restore_state
 107:Core/Src/spi.c **** 
 246              		.loc 1 107 5 is_stmt 1 view .LVU72
 247              	.LBB2:
 107:Core/Src/spi.c **** 
 248              		.loc 1 107 5 view .LVU73
 107:Core/Src/spi.c **** 
 249              		.loc 1 107 5 view .LVU74
 250 0022 424B     		ldr	r3, .L23+8
 251 0024 9A69     		ldr	r2, [r3, #24]
 252 0026 42F48052 		orr	r2, r2, #4096
 253 002a 9A61     		str	r2, [r3, #24]
 107:Core/Src/spi.c **** 
 254              		.loc 1 107 5 view .LVU75
 255 002c 9A69     		ldr	r2, [r3, #24]
 256 002e 02F48052 		and	r2, r2, #4096
 257 0032 0092     		str	r2, [sp]
 107:Core/Src/spi.c **** 
 258              		.loc 1 107 5 view .LVU76
 259 0034 009A     		ldr	r2, [sp]
 260              	.LBE2:
 107:Core/Src/spi.c **** 
 261              		.loc 1 107 5 view .LVU77
 109:Core/Src/spi.c ****     /**SPI1 GPIO Configuration
 262              		.loc 1 109 5 view .LVU78
ARM GAS  C:\Users\Lenovo\AppData\Local\Temp\cc82VIOh.s 			page 9


 263              	.LBB3:
 109:Core/Src/spi.c ****     /**SPI1 GPIO Configuration
 264              		.loc 1 109 5 view .LVU79
 109:Core/Src/spi.c ****     /**SPI1 GPIO Configuration
 265              		.loc 1 109 5 view .LVU80
 266 0036 9A69     		ldr	r2, [r3, #24]
 267 0038 42F00402 		orr	r2, r2, #4
 268 003c 9A61     		str	r2, [r3, #24]
 109:Core/Src/spi.c ****     /**SPI1 GPIO Configuration
 269              		.loc 1 109 5 view .LVU81
 270 003e 9B69     		ldr	r3, [r3, #24]
 271 0040 03F00403 		and	r3, r3, #4
 272 0044 0193     		str	r3, [sp, #4]
 109:Core/Src/spi.c ****     /**SPI1 GPIO Configuration
 273              		.loc 1 109 5 view .LVU82
 274 0046 019B     		ldr	r3, [sp, #4]
 275              	.LBE3:
 109:Core/Src/spi.c ****     /**SPI1 GPIO Configuration
 276              		.loc 1 109 5 view .LVU83
 115:Core/Src/spi.c ****     GPIO_InitStruct.Mode = GPIO_MODE_AF_PP;
 277              		.loc 1 115 5 view .LVU84
 115:Core/Src/spi.c ****     GPIO_InitStruct.Mode = GPIO_MODE_AF_PP;
 278              		.loc 1 115 25 is_stmt 0 view .LVU85
 279 0048 A023     		movs	r3, #160
 280 004a 0493     		str	r3, [sp, #16]
 116:Core/Src/spi.c ****     GPIO_InitStruct.Speed = GPIO_SPEED_FREQ_HIGH;
 281              		.loc 1 116 5 is_stmt 1 view .LVU86
 116:Core/Src/spi.c ****     GPIO_InitStruct.Speed = GPIO_SPEED_FREQ_HIGH;
 282              		.loc 1 116 26 is_stmt 0 view .LVU87
 283 004c 0223     		movs	r3, #2
 284 004e 0593     		str	r3, [sp, #20]
 117:Core/Src/spi.c ****     HAL_GPIO_Init(GPIOA, &GPIO_InitStruct);
 285              		.loc 1 117 5 is_stmt 1 view .LVU88
 117:Core/Src/spi.c ****     HAL_GPIO_Init(GPIOA, &GPIO_InitStruct);
 286              		.loc 1 117 27 is_stmt 0 view .LVU89
 287 0050 0323     		movs	r3, #3
 288 0052 0793     		str	r3, [sp, #28]
 118:Core/Src/spi.c **** 
 289              		.loc 1 118 5 is_stmt 1 view .LVU90
 290 0054 364C     		ldr	r4, .L23+12
 291 0056 04A9     		add	r1, sp, #16
 292 0058 2046     		mov	r0, r4
 293              	.LVL7:
 118:Core/Src/spi.c **** 
 294              		.loc 1 118 5 is_stmt 0 view .LVU91
 295 005a FFF7FEFF 		bl	HAL_GPIO_Init
 296              	.LVL8:
 120:Core/Src/spi.c ****     GPIO_InitStruct.Mode = GPIO_MODE_INPUT;
 297              		.loc 1 120 5 is_stmt 1 view .LVU92
 120:Core/Src/spi.c ****     GPIO_InitStruct.Mode = GPIO_MODE_INPUT;
 298              		.loc 1 120 25 is_stmt 0 view .LVU93
 299 005e 4023     		movs	r3, #64
 300 0060 0493     		str	r3, [sp, #16]
 121:Core/Src/spi.c ****     GPIO_InitStruct.Pull = GPIO_NOPULL;
 301              		.loc 1 121 5 is_stmt 1 view .LVU94
 121:Core/Src/spi.c ****     GPIO_InitStruct.Pull = GPIO_NOPULL;
 302              		.loc 1 121 26 is_stmt 0 view .LVU95
ARM GAS  C:\Users\Lenovo\AppData\Local\Temp\cc82VIOh.s 			page 10


 303 0062 0023     		movs	r3, #0
 304 0064 0593     		str	r3, [sp, #20]
 122:Core/Src/spi.c ****     HAL_GPIO_Init(GPIOA, &GPIO_InitStruct);
 305              		.loc 1 122 5 is_stmt 1 view .LVU96
 122:Core/Src/spi.c ****     HAL_GPIO_Init(GPIOA, &GPIO_InitStruct);
 306              		.loc 1 122 26 is_stmt 0 view .LVU97
 307 0066 0693     		str	r3, [sp, #24]
 123:Core/Src/spi.c **** 
 308              		.loc 1 123 5 is_stmt 1 view .LVU98
 309 0068 04A9     		add	r1, sp, #16
 310 006a 2046     		mov	r0, r4
 311 006c FFF7FEFF 		bl	HAL_GPIO_Init
 312              	.LVL9:
 313 0070 D5E7     		b	.L13
 314              	.LVL10:
 315              	.L20:
 135:Core/Src/spi.c **** 
 316              		.loc 1 135 5 view .LVU99
 317              	.LBB4:
 135:Core/Src/spi.c **** 
 318              		.loc 1 135 5 view .LVU100
 135:Core/Src/spi.c **** 
 319              		.loc 1 135 5 view .LVU101
 320 0072 2E4B     		ldr	r3, .L23+8
 321 0074 DA69     		ldr	r2, [r3, #28]
 322 0076 42F48042 		orr	r2, r2, #16384
 323 007a DA61     		str	r2, [r3, #28]
 135:Core/Src/spi.c **** 
 324              		.loc 1 135 5 view .LVU102
 325 007c DA69     		ldr	r2, [r3, #28]
 326 007e 02F48042 		and	r2, r2, #16384
 327 0082 0292     		str	r2, [sp, #8]
 135:Core/Src/spi.c **** 
 328              		.loc 1 135 5 view .LVU103
 329 0084 029A     		ldr	r2, [sp, #8]
 330              	.LBE4:
 135:Core/Src/spi.c **** 
 331              		.loc 1 135 5 view .LVU104
 137:Core/Src/spi.c ****     /**SPI2 GPIO Configuration
 332              		.loc 1 137 5 view .LVU105
 333              	.LBB5:
 137:Core/Src/spi.c ****     /**SPI2 GPIO Configuration
 334              		.loc 1 137 5 view .LVU106
 137:Core/Src/spi.c ****     /**SPI2 GPIO Configuration
 335              		.loc 1 137 5 view .LVU107
 336 0086 9A69     		ldr	r2, [r3, #24]
 337 0088 42F00802 		orr	r2, r2, #8
 338 008c 9A61     		str	r2, [r3, #24]
 137:Core/Src/spi.c ****     /**SPI2 GPIO Configuration
 339              		.loc 1 137 5 view .LVU108
 340 008e 9B69     		ldr	r3, [r3, #24]
 341 0090 03F00803 		and	r3, r3, #8
 342 0094 0393     		str	r3, [sp, #12]
 137:Core/Src/spi.c ****     /**SPI2 GPIO Configuration
 343              		.loc 1 137 5 view .LVU109
 344 0096 039B     		ldr	r3, [sp, #12]
 345              	.LBE5:
ARM GAS  C:\Users\Lenovo\AppData\Local\Temp\cc82VIOh.s 			page 11


 137:Core/Src/spi.c ****     /**SPI2 GPIO Configuration
 346              		.loc 1 137 5 view .LVU110
 143:Core/Src/spi.c ****     GPIO_InitStruct.Mode = GPIO_MODE_AF_PP;
 347              		.loc 1 143 5 view .LVU111
 143:Core/Src/spi.c ****     GPIO_InitStruct.Mode = GPIO_MODE_AF_PP;
 348              		.loc 1 143 25 is_stmt 0 view .LVU112
 349 0098 4FF42043 		mov	r3, #40960
 350 009c 0493     		str	r3, [sp, #16]
 144:Core/Src/spi.c ****     GPIO_InitStruct.Speed = GPIO_SPEED_FREQ_HIGH;
 351              		.loc 1 144 5 is_stmt 1 view .LVU113
 144:Core/Src/spi.c ****     GPIO_InitStruct.Speed = GPIO_SPEED_FREQ_HIGH;
 352              		.loc 1 144 26 is_stmt 0 view .LVU114
 353 009e 0223     		movs	r3, #2
 354 00a0 0593     		str	r3, [sp, #20]
 145:Core/Src/spi.c ****     HAL_GPIO_Init(GPIOB, &GPIO_InitStruct);
 355              		.loc 1 145 5 is_stmt 1 view .LVU115
 145:Core/Src/spi.c ****     HAL_GPIO_Init(GPIOB, &GPIO_InitStruct);
 356              		.loc 1 145 27 is_stmt 0 view .LVU116
 357 00a2 0323     		movs	r3, #3
 358 00a4 0793     		str	r3, [sp, #28]
 146:Core/Src/spi.c **** 
 359              		.loc 1 146 5 is_stmt 1 view .LVU117
 360 00a6 234E     		ldr	r6, .L23+16
 361 00a8 04A9     		add	r1, sp, #16
 362 00aa 3046     		mov	r0, r6
 363              	.LVL11:
 146:Core/Src/spi.c **** 
 364              		.loc 1 146 5 is_stmt 0 view .LVU118
 365 00ac FFF7FEFF 		bl	HAL_GPIO_Init
 366              	.LVL12:
 148:Core/Src/spi.c ****     GPIO_InitStruct.Mode = GPIO_MODE_INPUT;
 367              		.loc 1 148 5 is_stmt 1 view .LVU119
 148:Core/Src/spi.c ****     GPIO_InitStruct.Mode = GPIO_MODE_INPUT;
 368              		.loc 1 148 25 is_stmt 0 view .LVU120
 369 00b0 4FF48043 		mov	r3, #16384
 370 00b4 0493     		str	r3, [sp, #16]
 149:Core/Src/spi.c ****     GPIO_InitStruct.Pull = GPIO_NOPULL;
 371              		.loc 1 149 5 is_stmt 1 view .LVU121
 149:Core/Src/spi.c ****     GPIO_InitStruct.Pull = GPIO_NOPULL;
 372              		.loc 1 149 26 is_stmt 0 view .LVU122
 373 00b6 0025     		movs	r5, #0
 374 00b8 0595     		str	r5, [sp, #20]
 150:Core/Src/spi.c ****     HAL_GPIO_Init(GPIOB, &GPIO_InitStruct);
 375              		.loc 1 150 5 is_stmt 1 view .LVU123
 150:Core/Src/spi.c ****     HAL_GPIO_Init(GPIOB, &GPIO_InitStruct);
 376              		.loc 1 150 26 is_stmt 0 view .LVU124
 377 00ba 0695     		str	r5, [sp, #24]
 151:Core/Src/spi.c **** 
 378              		.loc 1 151 5 is_stmt 1 view .LVU125
 379 00bc 04A9     		add	r1, sp, #16
 380 00be 3046     		mov	r0, r6
 381 00c0 FFF7FEFF 		bl	HAL_GPIO_Init
 382              	.LVL13:
 155:Core/Src/spi.c ****     hdma_spi2_rx.Init.Direction = DMA_PERIPH_TO_MEMORY;
 383              		.loc 1 155 5 view .LVU126
 155:Core/Src/spi.c ****     hdma_spi2_rx.Init.Direction = DMA_PERIPH_TO_MEMORY;
 384              		.loc 1 155 27 is_stmt 0 view .LVU127
ARM GAS  C:\Users\Lenovo\AppData\Local\Temp\cc82VIOh.s 			page 12


 385 00c4 1C48     		ldr	r0, .L23+20
 386 00c6 1D4B     		ldr	r3, .L23+24
 387 00c8 0360     		str	r3, [r0]
 156:Core/Src/spi.c ****     hdma_spi2_rx.Init.PeriphInc = DMA_PINC_DISABLE;
 388              		.loc 1 156 5 is_stmt 1 view .LVU128
 156:Core/Src/spi.c ****     hdma_spi2_rx.Init.PeriphInc = DMA_PINC_DISABLE;
 389              		.loc 1 156 33 is_stmt 0 view .LVU129
 390 00ca 4560     		str	r5, [r0, #4]
 157:Core/Src/spi.c ****     hdma_spi2_rx.Init.MemInc = DMA_MINC_ENABLE;
 391              		.loc 1 157 5 is_stmt 1 view .LVU130
 157:Core/Src/spi.c ****     hdma_spi2_rx.Init.MemInc = DMA_MINC_ENABLE;
 392              		.loc 1 157 33 is_stmt 0 view .LVU131
 393 00cc 8560     		str	r5, [r0, #8]
 158:Core/Src/spi.c ****     hdma_spi2_rx.Init.PeriphDataAlignment = DMA_PDATAALIGN_BYTE;
 394              		.loc 1 158 5 is_stmt 1 view .LVU132
 158:Core/Src/spi.c ****     hdma_spi2_rx.Init.PeriphDataAlignment = DMA_PDATAALIGN_BYTE;
 395              		.loc 1 158 30 is_stmt 0 view .LVU133
 396 00ce 8023     		movs	r3, #128
 397 00d0 C360     		str	r3, [r0, #12]
 159:Core/Src/spi.c ****     hdma_spi2_rx.Init.MemDataAlignment = DMA_MDATAALIGN_BYTE;
 398              		.loc 1 159 5 is_stmt 1 view .LVU134
 159:Core/Src/spi.c ****     hdma_spi2_rx.Init.MemDataAlignment = DMA_MDATAALIGN_BYTE;
 399              		.loc 1 159 43 is_stmt 0 view .LVU135
 400 00d2 0561     		str	r5, [r0, #16]
 160:Core/Src/spi.c ****     hdma_spi2_rx.Init.Mode = DMA_NORMAL;
 401              		.loc 1 160 5 is_stmt 1 view .LVU136
 160:Core/Src/spi.c ****     hdma_spi2_rx.Init.Mode = DMA_NORMAL;
 402              		.loc 1 160 40 is_stmt 0 view .LVU137
 403 00d4 4561     		str	r5, [r0, #20]
 161:Core/Src/spi.c ****     hdma_spi2_rx.Init.Priority = DMA_PRIORITY_VERY_HIGH;
 404              		.loc 1 161 5 is_stmt 1 view .LVU138
 161:Core/Src/spi.c ****     hdma_spi2_rx.Init.Priority = DMA_PRIORITY_VERY_HIGH;
 405              		.loc 1 161 28 is_stmt 0 view .LVU139
 406 00d6 8561     		str	r5, [r0, #24]
 162:Core/Src/spi.c ****     if (HAL_DMA_Init(&hdma_spi2_rx) != HAL_OK)
 407              		.loc 1 162 5 is_stmt 1 view .LVU140
 162:Core/Src/spi.c ****     if (HAL_DMA_Init(&hdma_spi2_rx) != HAL_OK)
 408              		.loc 1 162 32 is_stmt 0 view .LVU141
 409 00d8 4FF44053 		mov	r3, #12288
 410 00dc C361     		str	r3, [r0, #28]
 163:Core/Src/spi.c ****     {
 411              		.loc 1 163 5 is_stmt 1 view .LVU142
 163:Core/Src/spi.c ****     {
 412              		.loc 1 163 9 is_stmt 0 view .LVU143
 413 00de FFF7FEFF 		bl	HAL_DMA_Init
 414              	.LVL14:
 163:Core/Src/spi.c ****     {
 415              		.loc 1 163 8 view .LVU144
 416 00e2 C0B9     		cbnz	r0, .L21
 417              	.L16:
 168:Core/Src/spi.c **** 
 418              		.loc 1 168 5 is_stmt 1 view .LVU145
 168:Core/Src/spi.c **** 
 419              		.loc 1 168 5 view .LVU146
 420 00e4 144B     		ldr	r3, .L23+20
 421 00e6 E364     		str	r3, [r4, #76]
 168:Core/Src/spi.c **** 
ARM GAS  C:\Users\Lenovo\AppData\Local\Temp\cc82VIOh.s 			page 13


 422              		.loc 1 168 5 view .LVU147
 423 00e8 5C62     		str	r4, [r3, #36]
 168:Core/Src/spi.c **** 
 424              		.loc 1 168 5 view .LVU148
 171:Core/Src/spi.c ****     hdma_spi2_tx.Init.Direction = DMA_MEMORY_TO_PERIPH;
 425              		.loc 1 171 5 view .LVU149
 171:Core/Src/spi.c ****     hdma_spi2_tx.Init.Direction = DMA_MEMORY_TO_PERIPH;
 426              		.loc 1 171 27 is_stmt 0 view .LVU150
 427 00ea 1548     		ldr	r0, .L23+28
 428 00ec 154B     		ldr	r3, .L23+32
 429 00ee 0360     		str	r3, [r0]
 172:Core/Src/spi.c ****     hdma_spi2_tx.Init.PeriphInc = DMA_PINC_DISABLE;
 430              		.loc 1 172 5 is_stmt 1 view .LVU151
 172:Core/Src/spi.c ****     hdma_spi2_tx.Init.PeriphInc = DMA_PINC_DISABLE;
 431              		.loc 1 172 33 is_stmt 0 view .LVU152
 432 00f0 1023     		movs	r3, #16
 433 00f2 4360     		str	r3, [r0, #4]
 173:Core/Src/spi.c ****     hdma_spi2_tx.Init.MemInc = DMA_MINC_ENABLE;
 434              		.loc 1 173 5 is_stmt 1 view .LVU153
 173:Core/Src/spi.c ****     hdma_spi2_tx.Init.MemInc = DMA_MINC_ENABLE;
 435              		.loc 1 173 33 is_stmt 0 view .LVU154
 436 00f4 0023     		movs	r3, #0
 437 00f6 8360     		str	r3, [r0, #8]
 174:Core/Src/spi.c ****     hdma_spi2_tx.Init.PeriphDataAlignment = DMA_PDATAALIGN_BYTE;
 438              		.loc 1 174 5 is_stmt 1 view .LVU155
 174:Core/Src/spi.c ****     hdma_spi2_tx.Init.PeriphDataAlignment = DMA_PDATAALIGN_BYTE;
 439              		.loc 1 174 30 is_stmt 0 view .LVU156
 440 00f8 8022     		movs	r2, #128
 441 00fa C260     		str	r2, [r0, #12]
 175:Core/Src/spi.c ****     hdma_spi2_tx.Init.MemDataAlignment = DMA_MDATAALIGN_BYTE;
 442              		.loc 1 175 5 is_stmt 1 view .LVU157
 175:Core/Src/spi.c ****     hdma_spi2_tx.Init.MemDataAlignment = DMA_MDATAALIGN_BYTE;
 443              		.loc 1 175 43 is_stmt 0 view .LVU158
 444 00fc 0361     		str	r3, [r0, #16]
 176:Core/Src/spi.c ****     hdma_spi2_tx.Init.Mode = DMA_NORMAL;
 445              		.loc 1 176 5 is_stmt 1 view .LVU159
 176:Core/Src/spi.c ****     hdma_spi2_tx.Init.Mode = DMA_NORMAL;
 446              		.loc 1 176 40 is_stmt 0 view .LVU160
 447 00fe 4361     		str	r3, [r0, #20]
 177:Core/Src/spi.c ****     hdma_spi2_tx.Init.Priority = DMA_PRIORITY_HIGH;
 448              		.loc 1 177 5 is_stmt 1 view .LVU161
 177:Core/Src/spi.c ****     hdma_spi2_tx.Init.Priority = DMA_PRIORITY_HIGH;
 449              		.loc 1 177 28 is_stmt 0 view .LVU162
 450 0100 8361     		str	r3, [r0, #24]
 178:Core/Src/spi.c ****     if (HAL_DMA_Init(&hdma_spi2_tx) != HAL_OK)
 451              		.loc 1 178 5 is_stmt 1 view .LVU163
 178:Core/Src/spi.c ****     if (HAL_DMA_Init(&hdma_spi2_tx) != HAL_OK)
 452              		.loc 1 178 32 is_stmt 0 view .LVU164
 453 0102 4FF40053 		mov	r3, #8192
 454 0106 C361     		str	r3, [r0, #28]
 179:Core/Src/spi.c ****     {
 455              		.loc 1 179 5 is_stmt 1 view .LVU165
 179:Core/Src/spi.c ****     {
 456              		.loc 1 179 9 is_stmt 0 view .LVU166
 457 0108 FFF7FEFF 		bl	HAL_DMA_Init
 458              	.LVL15:
 179:Core/Src/spi.c ****     {
ARM GAS  C:\Users\Lenovo\AppData\Local\Temp\cc82VIOh.s 			page 14


 459              		.loc 1 179 8 view .LVU167
 460 010c 30B9     		cbnz	r0, .L22
 461              	.L17:
 184:Core/Src/spi.c **** 
 462              		.loc 1 184 5 is_stmt 1 view .LVU168
 184:Core/Src/spi.c **** 
 463              		.loc 1 184 5 view .LVU169
 464 010e 0C4B     		ldr	r3, .L23+28
 465 0110 A364     		str	r3, [r4, #72]
 184:Core/Src/spi.c **** 
 466              		.loc 1 184 5 view .LVU170
 467 0112 5C62     		str	r4, [r3, #36]
 184:Core/Src/spi.c **** 
 468              		.loc 1 184 5 view .LVU171
 469              		.loc 1 190 1 is_stmt 0 view .LVU172
 470 0114 83E7     		b	.L13
 471              	.L21:
 165:Core/Src/spi.c ****     }
 472              		.loc 1 165 7 is_stmt 1 view .LVU173
 473 0116 FFF7FEFF 		bl	Error_Handler
 474              	.LVL16:
 475 011a E3E7     		b	.L16
 476              	.L22:
 181:Core/Src/spi.c ****     }
 477              		.loc 1 181 7 view .LVU174
 478 011c FFF7FEFF 		bl	Error_Handler
 479              	.LVL17:
 480 0120 F5E7     		b	.L17
 481              	.L24:
 482 0122 00BF     		.align	2
 483              	.L23:
 484 0124 00300140 		.word	1073819648
 485 0128 00380040 		.word	1073756160
 486 012c 00100240 		.word	1073876992
 487 0130 00080140 		.word	1073809408
 488 0134 000C0140 		.word	1073810432
 489 0138 00000000 		.word	.LANCHOR2
 490 013c 44000240 		.word	1073872964
 491 0140 00000000 		.word	.LANCHOR3
 492 0144 58000240 		.word	1073872984
 493              		.cfi_endproc
 494              	.LFE67:
 496              		.section	.text.HAL_SPI_MspDeInit,"ax",%progbits
 497              		.align	1
 498              		.global	HAL_SPI_MspDeInit
 499              		.syntax unified
 500              		.thumb
 501              		.thumb_func
 503              	HAL_SPI_MspDeInit:
 504              	.LVL18:
 505              	.LFB68:
 191:Core/Src/spi.c **** 
 192:Core/Src/spi.c **** void HAL_SPI_MspDeInit(SPI_HandleTypeDef* spiHandle)
 193:Core/Src/spi.c **** {
 506              		.loc 1 193 1 view -0
 507              		.cfi_startproc
 508              		@ args = 0, pretend = 0, frame = 0
ARM GAS  C:\Users\Lenovo\AppData\Local\Temp\cc82VIOh.s 			page 15


 509              		@ frame_needed = 0, uses_anonymous_args = 0
 510              		.loc 1 193 1 is_stmt 0 view .LVU176
 511 0000 10B5     		push	{r4, lr}
 512              	.LCFI6:
 513              		.cfi_def_cfa_offset 8
 514              		.cfi_offset 4, -8
 515              		.cfi_offset 14, -4
 194:Core/Src/spi.c **** 
 195:Core/Src/spi.c ****   if(spiHandle->Instance==SPI1)
 516              		.loc 1 195 3 is_stmt 1 view .LVU177
 517              		.loc 1 195 15 is_stmt 0 view .LVU178
 518 0002 0368     		ldr	r3, [r0]
 519              		.loc 1 195 5 view .LVU179
 520 0004 124A     		ldr	r2, .L31
 521 0006 9342     		cmp	r3, r2
 522 0008 04D0     		beq	.L29
 523 000a 0446     		mov	r4, r0
 196:Core/Src/spi.c ****   {
 197:Core/Src/spi.c ****   /* USER CODE BEGIN SPI1_MspDeInit 0 */
 198:Core/Src/spi.c **** 
 199:Core/Src/spi.c ****   /* USER CODE END SPI1_MspDeInit 0 */
 200:Core/Src/spi.c ****     /* Peripheral clock disable */
 201:Core/Src/spi.c ****     __HAL_RCC_SPI1_CLK_DISABLE();
 202:Core/Src/spi.c **** 
 203:Core/Src/spi.c ****     /**SPI1 GPIO Configuration
 204:Core/Src/spi.c ****     PA5     ------> SPI1_SCK
 205:Core/Src/spi.c ****     PA6     ------> SPI1_MISO
 206:Core/Src/spi.c ****     PA7     ------> SPI1_MOSI
 207:Core/Src/spi.c ****     */
 208:Core/Src/spi.c ****     HAL_GPIO_DeInit(GPIOA, GPIO_PIN_5|GPIO_PIN_6|GPIO_PIN_7);
 209:Core/Src/spi.c **** 
 210:Core/Src/spi.c ****   /* USER CODE BEGIN SPI1_MspDeInit 1 */
 211:Core/Src/spi.c **** 
 212:Core/Src/spi.c ****   /* USER CODE END SPI1_MspDeInit 1 */
 213:Core/Src/spi.c ****   }
 214:Core/Src/spi.c ****   else if(spiHandle->Instance==SPI2)
 524              		.loc 1 214 8 is_stmt 1 view .LVU180
 525              		.loc 1 214 10 is_stmt 0 view .LVU181
 526 000c 114A     		ldr	r2, .L31+4
 527 000e 9342     		cmp	r3, r2
 528 0010 0BD0     		beq	.L30
 529              	.LVL19:
 530              	.L25:
 215:Core/Src/spi.c ****   {
 216:Core/Src/spi.c ****   /* USER CODE BEGIN SPI2_MspDeInit 0 */
 217:Core/Src/spi.c **** 
 218:Core/Src/spi.c ****   /* USER CODE END SPI2_MspDeInit 0 */
 219:Core/Src/spi.c ****     /* Peripheral clock disable */
 220:Core/Src/spi.c ****     __HAL_RCC_SPI2_CLK_DISABLE();
 221:Core/Src/spi.c **** 
 222:Core/Src/spi.c ****     /**SPI2 GPIO Configuration
 223:Core/Src/spi.c ****     PB13     ------> SPI2_SCK
 224:Core/Src/spi.c ****     PB14     ------> SPI2_MISO
 225:Core/Src/spi.c ****     PB15     ------> SPI2_MOSI
 226:Core/Src/spi.c ****     */
 227:Core/Src/spi.c ****     HAL_GPIO_DeInit(GPIOB, GPIO_PIN_13|GPIO_PIN_14|GPIO_PIN_15);
 228:Core/Src/spi.c **** 
ARM GAS  C:\Users\Lenovo\AppData\Local\Temp\cc82VIOh.s 			page 16


 229:Core/Src/spi.c ****     /* SPI2 DMA DeInit */
 230:Core/Src/spi.c ****     HAL_DMA_DeInit(spiHandle->hdmarx);
 231:Core/Src/spi.c ****     HAL_DMA_DeInit(spiHandle->hdmatx);
 232:Core/Src/spi.c ****   /* USER CODE BEGIN SPI2_MspDeInit 1 */
 233:Core/Src/spi.c **** 
 234:Core/Src/spi.c ****   /* USER CODE END SPI2_MspDeInit 1 */
 235:Core/Src/spi.c ****   }
 236:Core/Src/spi.c **** }
 531              		.loc 1 236 1 view .LVU182
 532 0012 10BD     		pop	{r4, pc}
 533              	.LVL20:
 534              	.L29:
 201:Core/Src/spi.c **** 
 535              		.loc 1 201 5 is_stmt 1 view .LVU183
 536 0014 02F56042 		add	r2, r2, #57344
 537 0018 9369     		ldr	r3, [r2, #24]
 538 001a 23F48053 		bic	r3, r3, #4096
 539 001e 9361     		str	r3, [r2, #24]
 208:Core/Src/spi.c **** 
 540              		.loc 1 208 5 view .LVU184
 541 0020 E021     		movs	r1, #224
 542 0022 0D48     		ldr	r0, .L31+8
 543              	.LVL21:
 208:Core/Src/spi.c **** 
 544              		.loc 1 208 5 is_stmt 0 view .LVU185
 545 0024 FFF7FEFF 		bl	HAL_GPIO_DeInit
 546              	.LVL22:
 547 0028 F3E7     		b	.L25
 548              	.LVL23:
 549              	.L30:
 220:Core/Src/spi.c **** 
 550              		.loc 1 220 5 is_stmt 1 view .LVU186
 551 002a 02F5EC32 		add	r2, r2, #120832
 552 002e D369     		ldr	r3, [r2, #28]
 553 0030 23F48043 		bic	r3, r3, #16384
 554 0034 D361     		str	r3, [r2, #28]
 227:Core/Src/spi.c **** 
 555              		.loc 1 227 5 view .LVU187
 556 0036 4FF46041 		mov	r1, #57344
 557 003a 0848     		ldr	r0, .L31+12
 558              	.LVL24:
 227:Core/Src/spi.c **** 
 559              		.loc 1 227 5 is_stmt 0 view .LVU188
 560 003c FFF7FEFF 		bl	HAL_GPIO_DeInit
 561              	.LVL25:
 230:Core/Src/spi.c ****     HAL_DMA_DeInit(spiHandle->hdmatx);
 562              		.loc 1 230 5 is_stmt 1 view .LVU189
 563 0040 E06C     		ldr	r0, [r4, #76]
 564 0042 FFF7FEFF 		bl	HAL_DMA_DeInit
 565              	.LVL26:
 231:Core/Src/spi.c ****   /* USER CODE BEGIN SPI2_MspDeInit 1 */
 566              		.loc 1 231 5 view .LVU190
 567 0046 A06C     		ldr	r0, [r4, #72]
 568 0048 FFF7FEFF 		bl	HAL_DMA_DeInit
 569              	.LVL27:
 570              		.loc 1 236 1 is_stmt 0 view .LVU191
 571 004c E1E7     		b	.L25
ARM GAS  C:\Users\Lenovo\AppData\Local\Temp\cc82VIOh.s 			page 17


 572              	.L32:
 573 004e 00BF     		.align	2
 574              	.L31:
 575 0050 00300140 		.word	1073819648
 576 0054 00380040 		.word	1073756160
 577 0058 00080140 		.word	1073809408
 578 005c 000C0140 		.word	1073810432
 579              		.cfi_endproc
 580              	.LFE68:
 582              		.global	hdma_spi2_tx
 583              		.global	hdma_spi2_rx
 584              		.global	hspi2
 585              		.global	hspi1
 586              		.section	.bss.hdma_spi2_rx,"aw",%nobits
 587              		.align	2
 588              		.set	.LANCHOR2,. + 0
 591              	hdma_spi2_rx:
 592 0000 00000000 		.space	68
 592      00000000 
 592      00000000 
 592      00000000 
 592      00000000 
 593              		.section	.bss.hdma_spi2_tx,"aw",%nobits
 594              		.align	2
 595              		.set	.LANCHOR3,. + 0
 598              	hdma_spi2_tx:
 599 0000 00000000 		.space	68
 599      00000000 
 599      00000000 
 599      00000000 
 599      00000000 
 600              		.section	.bss.hspi1,"aw",%nobits
 601              		.align	2
 602              		.set	.LANCHOR0,. + 0
 605              	hspi1:
 606 0000 00000000 		.space	88
 606      00000000 
 606      00000000 
 606      00000000 
 606      00000000 
 607              		.section	.bss.hspi2,"aw",%nobits
 608              		.align	2
 609              		.set	.LANCHOR1,. + 0
 612              	hspi2:
 613 0000 00000000 		.space	88
 613      00000000 
 613      00000000 
 613      00000000 
 613      00000000 
 614              		.text
 615              	.Letext0:
 616              		.file 2 "d:\\gnu arm embedded toolchain\\10 2021.10\\arm-none-eabi\\include\\machine\\_default_typ
 617              		.file 3 "d:\\gnu arm embedded toolchain\\10 2021.10\\arm-none-eabi\\include\\sys\\_stdint.h"
 618              		.file 4 "Drivers/CMSIS/Device/ST/STM32F1xx/Include/stm32f103xb.h"
 619              		.file 5 "Drivers/STM32F1xx_HAL_Driver/Inc/stm32f1xx_hal_def.h"
 620              		.file 6 "Drivers/STM32F1xx_HAL_Driver/Inc/stm32f1xx_hal_gpio.h"
 621              		.file 7 "Drivers/STM32F1xx_HAL_Driver/Inc/stm32f1xx_hal_dma.h"
ARM GAS  C:\Users\Lenovo\AppData\Local\Temp\cc82VIOh.s 			page 18


 622              		.file 8 "Drivers/STM32F1xx_HAL_Driver/Inc/stm32f1xx_hal_spi.h"
 623              		.file 9 "Core/Inc/spi.h"
 624              		.file 10 "Core/Inc/main.h"
ARM GAS  C:\Users\Lenovo\AppData\Local\Temp\cc82VIOh.s 			page 19

