ARM GAS  C:\Users\Lenovo\AppData\Local\Temp\cceQm6IE.s 			page 1


   1              		.cpu cortex-m3
   2              		.arch armv7-m
   3              		.fpu softvfp
   4              		.eabi_attribute 20, 1
   5              		.eabi_attribute 21, 1
   6              		.eabi_attribute 23, 3
   7              		.eabi_attribute 24, 1
   8              		.eabi_attribute 25, 1
   9              		.eabi_attribute 26, 1
  10              		.eabi_attribute 30, 1
  11              		.eabi_attribute 34, 1
  12              		.eabi_attribute 18, 4
  13              		.file	"stm32f1xx_it.c"
  14              		.text
  15              	.Ltext0:
  16              		.cfi_sections	.debug_frame
  17              		.section	.text.NMI_Handler,"ax",%progbits
  18              		.align	1
  19              		.global	NMI_Handler
  20              		.syntax unified
  21              		.thumb
  22              		.thumb_func
  24              	NMI_Handler:
  25              	.LFB65:
  26              		.file 1 "Core/Src/stm32f1xx_it.c"
   1:Core/Src/stm32f1xx_it.c **** /* USER CODE BEGIN Header */
   2:Core/Src/stm32f1xx_it.c **** /**
   3:Core/Src/stm32f1xx_it.c ****   ******************************************************************************
   4:Core/Src/stm32f1xx_it.c ****   * @file    stm32f1xx_it.c
   5:Core/Src/stm32f1xx_it.c ****   * @brief   Interrupt Service Routines.
   6:Core/Src/stm32f1xx_it.c ****   ******************************************************************************
   7:Core/Src/stm32f1xx_it.c ****   * @attention
   8:Core/Src/stm32f1xx_it.c ****   *
   9:Core/Src/stm32f1xx_it.c ****   * Copyright (c) 2024 STMicroelectronics.
  10:Core/Src/stm32f1xx_it.c ****   * All rights reserved.
  11:Core/Src/stm32f1xx_it.c ****   *
  12:Core/Src/stm32f1xx_it.c ****   * This software is licensed under terms that can be found in the LICENSE file
  13:Core/Src/stm32f1xx_it.c ****   * in the root directory of this software component.
  14:Core/Src/stm32f1xx_it.c ****   * If no LICENSE file comes with this software, it is provided AS-IS.
  15:Core/Src/stm32f1xx_it.c ****   *
  16:Core/Src/stm32f1xx_it.c ****   ******************************************************************************
  17:Core/Src/stm32f1xx_it.c ****   */
  18:Core/Src/stm32f1xx_it.c **** /* USER CODE END Header */
  19:Core/Src/stm32f1xx_it.c **** 
  20:Core/Src/stm32f1xx_it.c **** /* Includes ------------------------------------------------------------------*/
  21:Core/Src/stm32f1xx_it.c **** #include "main.h"
  22:Core/Src/stm32f1xx_it.c **** #include "stm32f1xx_it.h"
  23:Core/Src/stm32f1xx_it.c **** /* Private includes ----------------------------------------------------------*/
  24:Core/Src/stm32f1xx_it.c **** /* USER CODE BEGIN Includes */
  25:Core/Src/stm32f1xx_it.c **** /* USER CODE END Includes */
  26:Core/Src/stm32f1xx_it.c **** 
  27:Core/Src/stm32f1xx_it.c **** /* Private typedef -----------------------------------------------------------*/
  28:Core/Src/stm32f1xx_it.c **** /* USER CODE BEGIN TD */
  29:Core/Src/stm32f1xx_it.c **** 
  30:Core/Src/stm32f1xx_it.c **** /* USER CODE END TD */
  31:Core/Src/stm32f1xx_it.c **** 
  32:Core/Src/stm32f1xx_it.c **** /* Private define ------------------------------------------------------------*/
ARM GAS  C:\Users\Lenovo\AppData\Local\Temp\cceQm6IE.s 			page 2


  33:Core/Src/stm32f1xx_it.c **** /* USER CODE BEGIN PD */
  34:Core/Src/stm32f1xx_it.c **** 
  35:Core/Src/stm32f1xx_it.c **** /* USER CODE END PD */
  36:Core/Src/stm32f1xx_it.c **** 
  37:Core/Src/stm32f1xx_it.c **** /* Private macro -------------------------------------------------------------*/
  38:Core/Src/stm32f1xx_it.c **** /* USER CODE BEGIN PM */
  39:Core/Src/stm32f1xx_it.c **** 
  40:Core/Src/stm32f1xx_it.c **** /* USER CODE END PM */
  41:Core/Src/stm32f1xx_it.c **** 
  42:Core/Src/stm32f1xx_it.c **** /* Private variables ---------------------------------------------------------*/
  43:Core/Src/stm32f1xx_it.c **** /* USER CODE BEGIN PV */
  44:Core/Src/stm32f1xx_it.c **** 
  45:Core/Src/stm32f1xx_it.c **** /* USER CODE END PV */
  46:Core/Src/stm32f1xx_it.c **** 
  47:Core/Src/stm32f1xx_it.c **** /* Private function prototypes -----------------------------------------------*/
  48:Core/Src/stm32f1xx_it.c **** /* USER CODE BEGIN PFP */
  49:Core/Src/stm32f1xx_it.c **** 
  50:Core/Src/stm32f1xx_it.c **** /* USER CODE END PFP */
  51:Core/Src/stm32f1xx_it.c **** 
  52:Core/Src/stm32f1xx_it.c **** /* Private user code ---------------------------------------------------------*/
  53:Core/Src/stm32f1xx_it.c **** /* USER CODE BEGIN 0 */
  54:Core/Src/stm32f1xx_it.c **** 
  55:Core/Src/stm32f1xx_it.c **** /* USER CODE END 0 */
  56:Core/Src/stm32f1xx_it.c **** 
  57:Core/Src/stm32f1xx_it.c **** /* External variables --------------------------------------------------------*/
  58:Core/Src/stm32f1xx_it.c **** extern DMA_HandleTypeDef hdma_spi2_rx;
  59:Core/Src/stm32f1xx_it.c **** extern DMA_HandleTypeDef hdma_spi2_tx;
  60:Core/Src/stm32f1xx_it.c **** extern TIM_HandleTypeDef htim2;
  61:Core/Src/stm32f1xx_it.c **** extern TIM_HandleTypeDef htim4;
  62:Core/Src/stm32f1xx_it.c **** 
  63:Core/Src/stm32f1xx_it.c **** /* USER CODE BEGIN EV */
  64:Core/Src/stm32f1xx_it.c **** extern struct bmi08x_dev dev;
  65:Core/Src/stm32f1xx_it.c **** extern struct bmi08x_sensor_data user_accel_bmi088;
  66:Core/Src/stm32f1xx_it.c **** extern struct bmi08x_sensor_data user_gyro_bmi088;
  67:Core/Src/stm32f1xx_it.c **** extern int8_t rslt;
  68:Core/Src/stm32f1xx_it.c **** /* USER CODE END EV */
  69:Core/Src/stm32f1xx_it.c **** 
  70:Core/Src/stm32f1xx_it.c **** /******************************************************************************/
  71:Core/Src/stm32f1xx_it.c **** /*           Cortex-M3 Processor Interruption and Exception Handlers          */
  72:Core/Src/stm32f1xx_it.c **** /******************************************************************************/
  73:Core/Src/stm32f1xx_it.c **** /**
  74:Core/Src/stm32f1xx_it.c ****   * @brief This function handles Non maskable interrupt.
  75:Core/Src/stm32f1xx_it.c ****   */
  76:Core/Src/stm32f1xx_it.c **** void NMI_Handler(void)
  77:Core/Src/stm32f1xx_it.c **** {
  27              		.loc 1 77 1 view -0
  28              		.cfi_startproc
  29              		@ Volatile: function does not return.
  30              		@ args = 0, pretend = 0, frame = 0
  31              		@ frame_needed = 0, uses_anonymous_args = 0
  32              		@ link register save eliminated.
  33              	.L2:
  78:Core/Src/stm32f1xx_it.c ****   /* USER CODE BEGIN NonMaskableInt_IRQn 0 */
  79:Core/Src/stm32f1xx_it.c **** 
  80:Core/Src/stm32f1xx_it.c ****   /* USER CODE END NonMaskableInt_IRQn 0 */
  81:Core/Src/stm32f1xx_it.c ****   /* USER CODE BEGIN NonMaskableInt_IRQn 1 */
  82:Core/Src/stm32f1xx_it.c ****    while (1)
ARM GAS  C:\Users\Lenovo\AppData\Local\Temp\cceQm6IE.s 			page 3


  34              		.loc 1 82 4 discriminator 1 view .LVU1
  83:Core/Src/stm32f1xx_it.c ****   {
  84:Core/Src/stm32f1xx_it.c ****   }
  35              		.loc 1 84 3 discriminator 1 view .LVU2
  82:Core/Src/stm32f1xx_it.c ****   {
  36              		.loc 1 82 10 discriminator 1 view .LVU3
  37 0000 FEE7     		b	.L2
  38              		.cfi_endproc
  39              	.LFE65:
  41              		.section	.text.HardFault_Handler,"ax",%progbits
  42              		.align	1
  43              		.global	HardFault_Handler
  44              		.syntax unified
  45              		.thumb
  46              		.thumb_func
  48              	HardFault_Handler:
  49              	.LFB66:
  85:Core/Src/stm32f1xx_it.c ****   /* USER CODE END NonMaskableInt_IRQn 1 */
  86:Core/Src/stm32f1xx_it.c **** }
  87:Core/Src/stm32f1xx_it.c **** 
  88:Core/Src/stm32f1xx_it.c **** /**
  89:Core/Src/stm32f1xx_it.c ****   * @brief This function handles Hard fault interrupt.
  90:Core/Src/stm32f1xx_it.c ****   */
  91:Core/Src/stm32f1xx_it.c **** void HardFault_Handler(void)
  92:Core/Src/stm32f1xx_it.c **** {
  50              		.loc 1 92 1 view -0
  51              		.cfi_startproc
  52              		@ Volatile: function does not return.
  53              		@ args = 0, pretend = 0, frame = 0
  54              		@ frame_needed = 0, uses_anonymous_args = 0
  55              		@ link register save eliminated.
  56              	.L4:
  93:Core/Src/stm32f1xx_it.c ****   /* USER CODE BEGIN HardFault_IRQn 0 */
  94:Core/Src/stm32f1xx_it.c **** 
  95:Core/Src/stm32f1xx_it.c ****   /* USER CODE END HardFault_IRQn 0 */
  96:Core/Src/stm32f1xx_it.c ****   while (1)
  57              		.loc 1 96 3 discriminator 1 view .LVU5
  97:Core/Src/stm32f1xx_it.c ****   {
  98:Core/Src/stm32f1xx_it.c ****     /* USER CODE BEGIN W1_HardFault_IRQn 0 */
  99:Core/Src/stm32f1xx_it.c ****     /* USER CODE END W1_HardFault_IRQn 0 */
 100:Core/Src/stm32f1xx_it.c ****   }
  58              		.loc 1 100 3 discriminator 1 view .LVU6
  96:Core/Src/stm32f1xx_it.c ****   {
  59              		.loc 1 96 9 discriminator 1 view .LVU7
  60 0000 FEE7     		b	.L4
  61              		.cfi_endproc
  62              	.LFE66:
  64              		.section	.text.MemManage_Handler,"ax",%progbits
  65              		.align	1
  66              		.global	MemManage_Handler
  67              		.syntax unified
  68              		.thumb
  69              		.thumb_func
  71              	MemManage_Handler:
  72              	.LFB67:
 101:Core/Src/stm32f1xx_it.c **** }
 102:Core/Src/stm32f1xx_it.c **** 
ARM GAS  C:\Users\Lenovo\AppData\Local\Temp\cceQm6IE.s 			page 4


 103:Core/Src/stm32f1xx_it.c **** /**
 104:Core/Src/stm32f1xx_it.c ****   * @brief This function handles Memory management fault.
 105:Core/Src/stm32f1xx_it.c ****   */
 106:Core/Src/stm32f1xx_it.c **** void MemManage_Handler(void)
 107:Core/Src/stm32f1xx_it.c **** {
  73              		.loc 1 107 1 view -0
  74              		.cfi_startproc
  75              		@ Volatile: function does not return.
  76              		@ args = 0, pretend = 0, frame = 0
  77              		@ frame_needed = 0, uses_anonymous_args = 0
  78              		@ link register save eliminated.
  79              	.L6:
 108:Core/Src/stm32f1xx_it.c ****   /* USER CODE BEGIN MemoryManagement_IRQn 0 */
 109:Core/Src/stm32f1xx_it.c **** 
 110:Core/Src/stm32f1xx_it.c ****   /* USER CODE END MemoryManagement_IRQn 0 */
 111:Core/Src/stm32f1xx_it.c ****   while (1)
  80              		.loc 1 111 3 discriminator 1 view .LVU9
 112:Core/Src/stm32f1xx_it.c ****   {
 113:Core/Src/stm32f1xx_it.c ****     /* USER CODE BEGIN W1_MemoryManagement_IRQn 0 */
 114:Core/Src/stm32f1xx_it.c ****     /* USER CODE END W1_MemoryManagement_IRQn 0 */
 115:Core/Src/stm32f1xx_it.c ****   }
  81              		.loc 1 115 3 discriminator 1 view .LVU10
 111:Core/Src/stm32f1xx_it.c ****   {
  82              		.loc 1 111 9 discriminator 1 view .LVU11
  83 0000 FEE7     		b	.L6
  84              		.cfi_endproc
  85              	.LFE67:
  87              		.section	.text.BusFault_Handler,"ax",%progbits
  88              		.align	1
  89              		.global	BusFault_Handler
  90              		.syntax unified
  91              		.thumb
  92              		.thumb_func
  94              	BusFault_Handler:
  95              	.LFB68:
 116:Core/Src/stm32f1xx_it.c **** }
 117:Core/Src/stm32f1xx_it.c **** 
 118:Core/Src/stm32f1xx_it.c **** /**
 119:Core/Src/stm32f1xx_it.c ****   * @brief This function handles Prefetch fault, memory access fault.
 120:Core/Src/stm32f1xx_it.c ****   */
 121:Core/Src/stm32f1xx_it.c **** void BusFault_Handler(void)
 122:Core/Src/stm32f1xx_it.c **** {
  96              		.loc 1 122 1 view -0
  97              		.cfi_startproc
  98              		@ Volatile: function does not return.
  99              		@ args = 0, pretend = 0, frame = 0
 100              		@ frame_needed = 0, uses_anonymous_args = 0
 101              		@ link register save eliminated.
 102              	.L8:
 123:Core/Src/stm32f1xx_it.c ****   /* USER CODE BEGIN BusFault_IRQn 0 */
 124:Core/Src/stm32f1xx_it.c **** 
 125:Core/Src/stm32f1xx_it.c ****   /* USER CODE END BusFault_IRQn 0 */
 126:Core/Src/stm32f1xx_it.c ****   while (1)
 103              		.loc 1 126 3 discriminator 1 view .LVU13
 127:Core/Src/stm32f1xx_it.c ****   {
 128:Core/Src/stm32f1xx_it.c ****     /* USER CODE BEGIN W1_BusFault_IRQn 0 */
 129:Core/Src/stm32f1xx_it.c ****     /* USER CODE END W1_BusFault_IRQn 0 */
ARM GAS  C:\Users\Lenovo\AppData\Local\Temp\cceQm6IE.s 			page 5


 130:Core/Src/stm32f1xx_it.c ****   }
 104              		.loc 1 130 3 discriminator 1 view .LVU14
 126:Core/Src/stm32f1xx_it.c ****   {
 105              		.loc 1 126 9 discriminator 1 view .LVU15
 106 0000 FEE7     		b	.L8
 107              		.cfi_endproc
 108              	.LFE68:
 110              		.section	.text.UsageFault_Handler,"ax",%progbits
 111              		.align	1
 112              		.global	UsageFault_Handler
 113              		.syntax unified
 114              		.thumb
 115              		.thumb_func
 117              	UsageFault_Handler:
 118              	.LFB69:
 131:Core/Src/stm32f1xx_it.c **** }
 132:Core/Src/stm32f1xx_it.c **** 
 133:Core/Src/stm32f1xx_it.c **** /**
 134:Core/Src/stm32f1xx_it.c ****   * @brief This function handles Undefined instruction or illegal state.
 135:Core/Src/stm32f1xx_it.c ****   */
 136:Core/Src/stm32f1xx_it.c **** void UsageFault_Handler(void)
 137:Core/Src/stm32f1xx_it.c **** {
 119              		.loc 1 137 1 view -0
 120              		.cfi_startproc
 121              		@ Volatile: function does not return.
 122              		@ args = 0, pretend = 0, frame = 0
 123              		@ frame_needed = 0, uses_anonymous_args = 0
 124              		@ link register save eliminated.
 125              	.L10:
 138:Core/Src/stm32f1xx_it.c ****   /* USER CODE BEGIN UsageFault_IRQn 0 */
 139:Core/Src/stm32f1xx_it.c **** 
 140:Core/Src/stm32f1xx_it.c ****   /* USER CODE END UsageFault_IRQn 0 */
 141:Core/Src/stm32f1xx_it.c ****   while (1)
 126              		.loc 1 141 3 discriminator 1 view .LVU17
 142:Core/Src/stm32f1xx_it.c ****   {
 143:Core/Src/stm32f1xx_it.c ****     /* USER CODE BEGIN W1_UsageFault_IRQn 0 */
 144:Core/Src/stm32f1xx_it.c ****     /* USER CODE END W1_UsageFault_IRQn 0 */
 145:Core/Src/stm32f1xx_it.c ****   }
 127              		.loc 1 145 3 discriminator 1 view .LVU18
 141:Core/Src/stm32f1xx_it.c ****   {
 128              		.loc 1 141 9 discriminator 1 view .LVU19
 129 0000 FEE7     		b	.L10
 130              		.cfi_endproc
 131              	.LFE69:
 133              		.section	.text.DebugMon_Handler,"ax",%progbits
 134              		.align	1
 135              		.global	DebugMon_Handler
 136              		.syntax unified
 137              		.thumb
 138              		.thumb_func
 140              	DebugMon_Handler:
 141              	.LFB70:
 146:Core/Src/stm32f1xx_it.c **** }
 147:Core/Src/stm32f1xx_it.c **** 
 148:Core/Src/stm32f1xx_it.c **** /**
 149:Core/Src/stm32f1xx_it.c ****   * @brief This function handles Debug monitor.
 150:Core/Src/stm32f1xx_it.c ****   */
ARM GAS  C:\Users\Lenovo\AppData\Local\Temp\cceQm6IE.s 			page 6


 151:Core/Src/stm32f1xx_it.c **** void DebugMon_Handler(void)
 152:Core/Src/stm32f1xx_it.c **** {
 142              		.loc 1 152 1 view -0
 143              		.cfi_startproc
 144              		@ args = 0, pretend = 0, frame = 0
 145              		@ frame_needed = 0, uses_anonymous_args = 0
 146              		@ link register save eliminated.
 153:Core/Src/stm32f1xx_it.c ****   /* USER CODE BEGIN DebugMonitor_IRQn 0 */
 154:Core/Src/stm32f1xx_it.c **** 
 155:Core/Src/stm32f1xx_it.c ****   /* USER CODE END DebugMonitor_IRQn 0 */
 156:Core/Src/stm32f1xx_it.c ****   /* USER CODE BEGIN DebugMonitor_IRQn 1 */
 157:Core/Src/stm32f1xx_it.c **** 
 158:Core/Src/stm32f1xx_it.c ****   /* USER CODE END DebugMonitor_IRQn 1 */
 159:Core/Src/stm32f1xx_it.c **** }
 147              		.loc 1 159 1 view .LVU21
 148 0000 7047     		bx	lr
 149              		.cfi_endproc
 150              	.LFE70:
 152              		.section	.text.EXTI3_IRQHandler,"ax",%progbits
 153              		.align	1
 154              		.global	EXTI3_IRQHandler
 155              		.syntax unified
 156              		.thumb
 157              		.thumb_func
 159              	EXTI3_IRQHandler:
 160              	.LFB71:
 160:Core/Src/stm32f1xx_it.c **** 
 161:Core/Src/stm32f1xx_it.c **** /******************************************************************************/
 162:Core/Src/stm32f1xx_it.c **** /* STM32F1xx Peripheral Interrupt Handlers                                    */
 163:Core/Src/stm32f1xx_it.c **** /* Add here the Interrupt Handlers for the used peripherals.                  */
 164:Core/Src/stm32f1xx_it.c **** /* For the available peripheral interrupt handler names,                      */
 165:Core/Src/stm32f1xx_it.c **** /* please refer to the startup file (startup_stm32f1xx.s).                    */
 166:Core/Src/stm32f1xx_it.c **** /******************************************************************************/
 167:Core/Src/stm32f1xx_it.c **** 
 168:Core/Src/stm32f1xx_it.c **** /**
 169:Core/Src/stm32f1xx_it.c ****   * @brief This function handles EXTI line3 interrupt.
 170:Core/Src/stm32f1xx_it.c ****   */
 171:Core/Src/stm32f1xx_it.c **** void EXTI3_IRQHandler(void)
 172:Core/Src/stm32f1xx_it.c **** {
 161              		.loc 1 172 1 view -0
 162              		.cfi_startproc
 163              		@ args = 0, pretend = 0, frame = 0
 164              		@ frame_needed = 0, uses_anonymous_args = 0
 165 0000 08B5     		push	{r3, lr}
 166              	.LCFI0:
 167              		.cfi_def_cfa_offset 8
 168              		.cfi_offset 3, -8
 169              		.cfi_offset 14, -4
 173:Core/Src/stm32f1xx_it.c ****   /* USER CODE BEGIN EXTI3_IRQn 0 */
 174:Core/Src/stm32f1xx_it.c **** 
 175:Core/Src/stm32f1xx_it.c ****   /* USER CODE END EXTI3_IRQn 0 */
 176:Core/Src/stm32f1xx_it.c ****   HAL_GPIO_EXTI_IRQHandler(INT2_Pin);
 170              		.loc 1 176 3 view .LVU23
 171 0002 0820     		movs	r0, #8
 172 0004 FFF7FEFF 		bl	HAL_GPIO_EXTI_IRQHandler
 173              	.LVL0:
 177:Core/Src/stm32f1xx_it.c ****   /* USER CODE BEGIN EXTI3_IRQn 1 */
ARM GAS  C:\Users\Lenovo\AppData\Local\Temp\cceQm6IE.s 			page 7


 178:Core/Src/stm32f1xx_it.c **** 
 179:Core/Src/stm32f1xx_it.c ****   /* USER CODE END EXTI3_IRQn 1 */
 180:Core/Src/stm32f1xx_it.c **** }
 174              		.loc 1 180 1 is_stmt 0 view .LVU24
 175 0008 08BD     		pop	{r3, pc}
 176              		.cfi_endproc
 177              	.LFE71:
 179              		.section	.text.DMA1_Channel4_IRQHandler,"ax",%progbits
 180              		.align	1
 181              		.global	DMA1_Channel4_IRQHandler
 182              		.syntax unified
 183              		.thumb
 184              		.thumb_func
 186              	DMA1_Channel4_IRQHandler:
 187              	.LFB72:
 181:Core/Src/stm32f1xx_it.c **** 
 182:Core/Src/stm32f1xx_it.c **** /**
 183:Core/Src/stm32f1xx_it.c ****   * @brief This function handles DMA1 channel4 global interrupt.
 184:Core/Src/stm32f1xx_it.c ****   */
 185:Core/Src/stm32f1xx_it.c **** void DMA1_Channel4_IRQHandler(void)
 186:Core/Src/stm32f1xx_it.c **** {
 188              		.loc 1 186 1 is_stmt 1 view -0
 189              		.cfi_startproc
 190              		@ args = 0, pretend = 0, frame = 0
 191              		@ frame_needed = 0, uses_anonymous_args = 0
 192 0000 08B5     		push	{r3, lr}
 193              	.LCFI1:
 194              		.cfi_def_cfa_offset 8
 195              		.cfi_offset 3, -8
 196              		.cfi_offset 14, -4
 187:Core/Src/stm32f1xx_it.c ****   /* USER CODE BEGIN DMA1_Channel4_IRQn 0 */
 188:Core/Src/stm32f1xx_it.c **** 
 189:Core/Src/stm32f1xx_it.c ****   /* USER CODE END DMA1_Channel4_IRQn 0 */
 190:Core/Src/stm32f1xx_it.c ****   HAL_DMA_IRQHandler(&hdma_spi2_rx);
 197              		.loc 1 190 3 view .LVU26
 198 0002 0248     		ldr	r0, .L16
 199 0004 FFF7FEFF 		bl	HAL_DMA_IRQHandler
 200              	.LVL1:
 191:Core/Src/stm32f1xx_it.c ****   /* USER CODE BEGIN DMA1_Channel4_IRQn 1 */
 192:Core/Src/stm32f1xx_it.c **** 
 193:Core/Src/stm32f1xx_it.c ****   /* USER CODE END DMA1_Channel4_IRQn 1 */
 194:Core/Src/stm32f1xx_it.c **** }
 201              		.loc 1 194 1 is_stmt 0 view .LVU27
 202 0008 08BD     		pop	{r3, pc}
 203              	.L17:
 204 000a 00BF     		.align	2
 205              	.L16:
 206 000c 00000000 		.word	hdma_spi2_rx
 207              		.cfi_endproc
 208              	.LFE72:
 210              		.section	.text.DMA1_Channel5_IRQHandler,"ax",%progbits
 211              		.align	1
 212              		.global	DMA1_Channel5_IRQHandler
 213              		.syntax unified
 214              		.thumb
 215              		.thumb_func
 217              	DMA1_Channel5_IRQHandler:
ARM GAS  C:\Users\Lenovo\AppData\Local\Temp\cceQm6IE.s 			page 8


 218              	.LFB73:
 195:Core/Src/stm32f1xx_it.c **** 
 196:Core/Src/stm32f1xx_it.c **** /**
 197:Core/Src/stm32f1xx_it.c ****   * @brief This function handles DMA1 channel5 global interrupt.
 198:Core/Src/stm32f1xx_it.c ****   */
 199:Core/Src/stm32f1xx_it.c **** void DMA1_Channel5_IRQHandler(void)
 200:Core/Src/stm32f1xx_it.c **** {
 219              		.loc 1 200 1 is_stmt 1 view -0
 220              		.cfi_startproc
 221              		@ args = 0, pretend = 0, frame = 0
 222              		@ frame_needed = 0, uses_anonymous_args = 0
 223 0000 08B5     		push	{r3, lr}
 224              	.LCFI2:
 225              		.cfi_def_cfa_offset 8
 226              		.cfi_offset 3, -8
 227              		.cfi_offset 14, -4
 201:Core/Src/stm32f1xx_it.c ****   /* USER CODE BEGIN DMA1_Channel5_IRQn 0 */
 202:Core/Src/stm32f1xx_it.c **** 
 203:Core/Src/stm32f1xx_it.c ****   /* USER CODE END DMA1_Channel5_IRQn 0 */
 204:Core/Src/stm32f1xx_it.c ****   HAL_DMA_IRQHandler(&hdma_spi2_tx);
 228              		.loc 1 204 3 view .LVU29
 229 0002 0248     		ldr	r0, .L20
 230 0004 FFF7FEFF 		bl	HAL_DMA_IRQHandler
 231              	.LVL2:
 205:Core/Src/stm32f1xx_it.c ****   /* USER CODE BEGIN DMA1_Channel5_IRQn 1 */
 206:Core/Src/stm32f1xx_it.c **** 
 207:Core/Src/stm32f1xx_it.c ****   /* USER CODE END DMA1_Channel5_IRQn 1 */
 208:Core/Src/stm32f1xx_it.c **** }
 232              		.loc 1 208 1 is_stmt 0 view .LVU30
 233 0008 08BD     		pop	{r3, pc}
 234              	.L21:
 235 000a 00BF     		.align	2
 236              	.L20:
 237 000c 00000000 		.word	hdma_spi2_tx
 238              		.cfi_endproc
 239              	.LFE73:
 241              		.section	.text.TIM2_IRQHandler,"ax",%progbits
 242              		.align	1
 243              		.global	TIM2_IRQHandler
 244              		.syntax unified
 245              		.thumb
 246              		.thumb_func
 248              	TIM2_IRQHandler:
 249              	.LFB74:
 209:Core/Src/stm32f1xx_it.c **** 
 210:Core/Src/stm32f1xx_it.c **** /**
 211:Core/Src/stm32f1xx_it.c ****   * @brief This function handles TIM2 global interrupt.
 212:Core/Src/stm32f1xx_it.c ****   */
 213:Core/Src/stm32f1xx_it.c **** void TIM2_IRQHandler(void)
 214:Core/Src/stm32f1xx_it.c **** {
 250              		.loc 1 214 1 is_stmt 1 view -0
 251              		.cfi_startproc
 252              		@ args = 0, pretend = 0, frame = 0
 253              		@ frame_needed = 0, uses_anonymous_args = 0
 254 0000 08B5     		push	{r3, lr}
 255              	.LCFI3:
 256              		.cfi_def_cfa_offset 8
ARM GAS  C:\Users\Lenovo\AppData\Local\Temp\cceQm6IE.s 			page 9


 257              		.cfi_offset 3, -8
 258              		.cfi_offset 14, -4
 215:Core/Src/stm32f1xx_it.c ****   /* USER CODE BEGIN TIM2_IRQn 0 */
 216:Core/Src/stm32f1xx_it.c **** 
 217:Core/Src/stm32f1xx_it.c ****   /* USER CODE END TIM2_IRQn 0 */
 218:Core/Src/stm32f1xx_it.c ****   HAL_TIM_IRQHandler(&htim2);
 259              		.loc 1 218 3 view .LVU32
 260 0002 0248     		ldr	r0, .L24
 261 0004 FFF7FEFF 		bl	HAL_TIM_IRQHandler
 262              	.LVL3:
 219:Core/Src/stm32f1xx_it.c ****   /* USER CODE BEGIN TIM2_IRQn 1 */
 220:Core/Src/stm32f1xx_it.c **** 
 221:Core/Src/stm32f1xx_it.c ****   /* USER CODE END TIM2_IRQn 1 */
 222:Core/Src/stm32f1xx_it.c **** }
 263              		.loc 1 222 1 is_stmt 0 view .LVU33
 264 0008 08BD     		pop	{r3, pc}
 265              	.L25:
 266 000a 00BF     		.align	2
 267              	.L24:
 268 000c 00000000 		.word	htim2
 269              		.cfi_endproc
 270              	.LFE74:
 272              		.section	.text.TIM4_IRQHandler,"ax",%progbits
 273              		.align	1
 274              		.global	TIM4_IRQHandler
 275              		.syntax unified
 276              		.thumb
 277              		.thumb_func
 279              	TIM4_IRQHandler:
 280              	.LFB75:
 223:Core/Src/stm32f1xx_it.c **** 
 224:Core/Src/stm32f1xx_it.c **** /**
 225:Core/Src/stm32f1xx_it.c ****   * @brief This function handles TIM4 global interrupt.
 226:Core/Src/stm32f1xx_it.c ****   */
 227:Core/Src/stm32f1xx_it.c **** void TIM4_IRQHandler(void)
 228:Core/Src/stm32f1xx_it.c **** {
 281              		.loc 1 228 1 is_stmt 1 view -0
 282              		.cfi_startproc
 283              		@ args = 0, pretend = 0, frame = 0
 284              		@ frame_needed = 0, uses_anonymous_args = 0
 285 0000 08B5     		push	{r3, lr}
 286              	.LCFI4:
 287              		.cfi_def_cfa_offset 8
 288              		.cfi_offset 3, -8
 289              		.cfi_offset 14, -4
 229:Core/Src/stm32f1xx_it.c ****   /* USER CODE BEGIN TIM4_IRQn 0 */
 230:Core/Src/stm32f1xx_it.c **** 
 231:Core/Src/stm32f1xx_it.c ****   /* USER CODE END TIM4_IRQn 0 */
 232:Core/Src/stm32f1xx_it.c ****   HAL_TIM_IRQHandler(&htim4);
 290              		.loc 1 232 3 view .LVU35
 291 0002 0248     		ldr	r0, .L28
 292 0004 FFF7FEFF 		bl	HAL_TIM_IRQHandler
 293              	.LVL4:
 233:Core/Src/stm32f1xx_it.c ****   /* USER CODE BEGIN TIM4_IRQn 1 */
 234:Core/Src/stm32f1xx_it.c **** 
 235:Core/Src/stm32f1xx_it.c ****   /* USER CODE END TIM4_IRQn 1 */
 236:Core/Src/stm32f1xx_it.c **** }
ARM GAS  C:\Users\Lenovo\AppData\Local\Temp\cceQm6IE.s 			page 10


 294              		.loc 1 236 1 is_stmt 0 view .LVU36
 295 0008 08BD     		pop	{r3, pc}
 296              	.L29:
 297 000a 00BF     		.align	2
 298              	.L28:
 299 000c 00000000 		.word	htim4
 300              		.cfi_endproc
 301              	.LFE75:
 303              		.section	.text.EXTI15_10_IRQHandler,"ax",%progbits
 304              		.align	1
 305              		.global	EXTI15_10_IRQHandler
 306              		.syntax unified
 307              		.thumb
 308              		.thumb_func
 310              	EXTI15_10_IRQHandler:
 311              	.LFB76:
 237:Core/Src/stm32f1xx_it.c **** 
 238:Core/Src/stm32f1xx_it.c **** /**
 239:Core/Src/stm32f1xx_it.c ****   * @brief This function handles EXTI line[15:10] interrupts.
 240:Core/Src/stm32f1xx_it.c ****   */
 241:Core/Src/stm32f1xx_it.c **** void EXTI15_10_IRQHandler(void)
 242:Core/Src/stm32f1xx_it.c **** {
 312              		.loc 1 242 1 is_stmt 1 view -0
 313              		.cfi_startproc
 314              		@ args = 0, pretend = 0, frame = 0
 315              		@ frame_needed = 0, uses_anonymous_args = 0
 316 0000 08B5     		push	{r3, lr}
 317              	.LCFI5:
 318              		.cfi_def_cfa_offset 8
 319              		.cfi_offset 3, -8
 320              		.cfi_offset 14, -4
 243:Core/Src/stm32f1xx_it.c ****   /* USER CODE BEGIN EXTI15_10_IRQn 0 */
 244:Core/Src/stm32f1xx_it.c **** 
 245:Core/Src/stm32f1xx_it.c ****   /* USER CODE END EXTI15_10_IRQn 0 */
 246:Core/Src/stm32f1xx_it.c ****   HAL_GPIO_EXTI_IRQHandler(INT1_Pin);
 321              		.loc 1 246 3 view .LVU38
 322 0002 4FF40040 		mov	r0, #32768
 323 0006 FFF7FEFF 		bl	HAL_GPIO_EXTI_IRQHandler
 324              	.LVL5:
 247:Core/Src/stm32f1xx_it.c ****   /* USER CODE BEGIN EXTI15_10_IRQn 1 */
 248:Core/Src/stm32f1xx_it.c ****   
 249:Core/Src/stm32f1xx_it.c ****   /* USER CODE END EXTI15_10_IRQn 1 */
 250:Core/Src/stm32f1xx_it.c **** }
 325              		.loc 1 250 1 is_stmt 0 view .LVU39
 326 000a 08BD     		pop	{r3, pc}
 327              		.cfi_endproc
 328              	.LFE76:
 330              		.text
 331              	.Letext0:
 332              		.file 2 "d:\\gnu arm embedded toolchain\\10 2021.10\\arm-none-eabi\\include\\machine\\_default_typ
 333              		.file 3 "d:\\gnu arm embedded toolchain\\10 2021.10\\arm-none-eabi\\include\\sys\\_stdint.h"
 334              		.file 4 "Drivers/CMSIS/Device/ST/STM32F1xx/Include/stm32f103xb.h"
 335              		.file 5 "Drivers/STM32F1xx_HAL_Driver/Inc/stm32f1xx_hal_def.h"
 336              		.file 6 "Drivers/STM32F1xx_HAL_Driver/Inc/stm32f1xx_hal_dma.h"
 337              		.file 7 "Drivers/STM32F1xx_HAL_Driver/Inc/stm32f1xx_hal_tim.h"
 338              		.file 8 "Drivers/STM32F1xx_HAL_Driver/Inc/stm32f1xx_hal_gpio.h"
ARM GAS  C:\Users\Lenovo\AppData\Local\Temp\cceQm6IE.s 			page 11

